Archive member included to satisfy reference by file (symbol)

C:\Users\khurr\e2_studio_latest\workspace\VerticalControl\synergy\ssp\src\driver\r_fmi\libs\libfmi_cm4_s5d9_gcc.a(r_fmi.o)
                              ./synergy/ssp/src/driver/r_sci_i2c/r_sci_i2c.o (g_fmi_on_fmi)
C:\Users\khurr\e2_studio_latest\workspace\VerticalControl\synergy\ssp\src\framework\el\tx\cm4_gcc\libtx.a(txe_semaphore_create.o)
                              ./src/synergy_gen/main.o (_txe_semaphore_create)
C:\Users\khurr\e2_studio_latest\workspace\VerticalControl\synergy\ssp\src\framework\el\tx\cm4_gcc\libtx.a(txe_semaphore_get.o)
                              ./src/synergy_gen/main.o (_txe_semaphore_get)
C:\Users\khurr\e2_studio_latest\workspace\VerticalControl\synergy\ssp\src\framework\el\tx\cm4_gcc\libtx.a(txe_semaphore_put.o)
                              ./src/synergy_gen/main.o (_txe_semaphore_put)
C:\Users\khurr\e2_studio_latest\workspace\VerticalControl\synergy\ssp\src\framework\el\tx\cm4_gcc\libtx.a(txe_thread_create.o)
                              ./src/synergy_gen/adc_thread.o (_txe_thread_create)
C:\Users\khurr\e2_studio_latest\workspace\VerticalControl\synergy\ssp\src\framework\el\tx\cm4_gcc\libtx.a(tx_initialize_high_level.o)
                              C:\Users\khurr\e2_studio_latest\workspace\VerticalControl\synergy\ssp\src\framework\el\tx\cm4_gcc\libtx.a(txe_semaphore_create.o) (_tx_semaphore_created_count)
C:\Users\khurr\e2_studio_latest\workspace\VerticalControl\synergy\ssp\src\framework\el\tx\cm4_gcc\libtx.a(tx_initialize_kernel_enter.o)
                              ./src/synergy_gen/main.o (_tx_initialize_kernel_enter)
C:\Users\khurr\e2_studio_latest\workspace\VerticalControl\synergy\ssp\src\framework\el\tx\cm4_gcc\libtx.a(tx_isr_end.o)
                              ./synergy/ssp/src/driver/r_sci_i2c/r_sci_i2c.o (tx_isr_end)
C:\Users\khurr\e2_studio_latest\workspace\VerticalControl\synergy\ssp\src\framework\el\tx\cm4_gcc\libtx.a(tx_isr_start.o)
                              ./synergy/ssp/src/driver/r_sci_i2c/r_sci_i2c.o (tx_isr_start)
C:\Users\khurr\e2_studio_latest\workspace\VerticalControl\synergy\ssp\src\framework\el\tx\cm4_gcc\libtx.a(tx_semaphore_create.o)
                              C:\Users\khurr\e2_studio_latest\workspace\VerticalControl\synergy\ssp\src\framework\el\tx\cm4_gcc\libtx.a(txe_semaphore_create.o) (_tx_semaphore_create)
C:\Users\khurr\e2_studio_latest\workspace\VerticalControl\synergy\ssp\src\framework\el\tx\cm4_gcc\libtx.a(tx_semaphore_get.o)
                              C:\Users\khurr\e2_studio_latest\workspace\VerticalControl\synergy\ssp\src\framework\el\tx\cm4_gcc\libtx.a(txe_semaphore_get.o) (_tx_semaphore_get)
C:\Users\khurr\e2_studio_latest\workspace\VerticalControl\synergy\ssp\src\framework\el\tx\cm4_gcc\libtx.a(tx_semaphore_put.o)
                              C:\Users\khurr\e2_studio_latest\workspace\VerticalControl\synergy\ssp\src\framework\el\tx\cm4_gcc\libtx.a(txe_semaphore_put.o) (_tx_semaphore_put)
C:\Users\khurr\e2_studio_latest\workspace\VerticalControl\synergy\ssp\src\framework\el\tx\cm4_gcc\libtx.a(tx_thread_create.o)
                              C:\Users\khurr\e2_studio_latest\workspace\VerticalControl\synergy\ssp\src\framework\el\tx\cm4_gcc\libtx.a(txe_thread_create.o) (_tx_thread_create)
C:\Users\khurr\e2_studio_latest\workspace\VerticalControl\synergy\ssp\src\framework\el\tx\cm4_gcc\libtx.a(tx_thread_initialize.o)
                              C:\Users\khurr\e2_studio_latest\workspace\VerticalControl\synergy\ssp\src\framework\el\tx\cm4_gcc\libtx.a(tx_initialize_high_level.o) (_tx_thread_initialize)
C:\Users\khurr\e2_studio_latest\workspace\VerticalControl\synergy\ssp\src\framework\el\tx\cm4_gcc\libtx.a(tx_thread_shell_entry.o)
                              C:\Users\khurr\e2_studio_latest\workspace\VerticalControl\synergy\ssp\src\framework\el\tx\cm4_gcc\libtx.a(tx_thread_create.o) (_tx_thread_shell_entry)
C:\Users\khurr\e2_studio_latest\workspace\VerticalControl\synergy\ssp\src\framework\el\tx\cm4_gcc\libtx.a(tx_thread_sleep.o)
                              ./src/adc_thread_entry.o (_tx_thread_sleep)
C:\Users\khurr\e2_studio_latest\workspace\VerticalControl\synergy\ssp\src\framework\el\tx\cm4_gcc\libtx.a(tx_thread_system_preempt_check.o)
                              C:\Users\khurr\e2_studio_latest\workspace\VerticalControl\synergy\ssp\src\framework\el\tx\cm4_gcc\libtx.a(txe_semaphore_create.o) (_tx_thread_system_preempt_check)
C:\Users\khurr\e2_studio_latest\workspace\VerticalControl\synergy\ssp\src\framework\el\tx\cm4_gcc\libtx.a(tx_thread_system_resume.o)
                              C:\Users\khurr\e2_studio_latest\workspace\VerticalControl\synergy\ssp\src\framework\el\tx\cm4_gcc\libtx.a(tx_semaphore_put.o) (_tx_thread_system_resume)
C:\Users\khurr\e2_studio_latest\workspace\VerticalControl\synergy\ssp\src\framework\el\tx\cm4_gcc\libtx.a(tx_thread_system_suspend.o)
                              C:\Users\khurr\e2_studio_latest\workspace\VerticalControl\synergy\ssp\src\framework\el\tx\cm4_gcc\libtx.a(tx_semaphore_get.o) (_tx_thread_system_suspend)
C:\Users\khurr\e2_studio_latest\workspace\VerticalControl\synergy\ssp\src\framework\el\tx\cm4_gcc\libtx.a(tx_thread_timeout.o)
                              C:\Users\khurr\e2_studio_latest\workspace\VerticalControl\synergy\ssp\src\framework\el\tx\cm4_gcc\libtx.a(tx_thread_create.o) (_tx_thread_timeout)
C:\Users\khurr\e2_studio_latest\workspace\VerticalControl\synergy\ssp\src\framework\el\tx\cm4_gcc\libtx.a(tx_timer_initialize.o)
                              C:\Users\khurr\e2_studio_latest\workspace\VerticalControl\synergy\ssp\src\framework\el\tx\cm4_gcc\libtx.a(tx_initialize_high_level.o) (_tx_timer_initialize)
C:\Users\khurr\e2_studio_latest\workspace\VerticalControl\synergy\ssp\src\framework\el\tx\cm4_gcc\libtx.a(tx_timer_system_activate.o)
                              C:\Users\khurr\e2_studio_latest\workspace\VerticalControl\synergy\ssp\src\framework\el\tx\cm4_gcc\libtx.a(tx_thread_system_suspend.o) (_tx_timer_system_activate)
C:\Users\khurr\e2_studio_latest\workspace\VerticalControl\synergy\ssp\src\framework\el\tx\cm4_gcc\libtx.a(tx_timer_system_deactivate.o)
                              C:\Users\khurr\e2_studio_latest\workspace\VerticalControl\synergy\ssp\src\framework\el\tx\cm4_gcc\libtx.a(tx_thread_system_resume.o) (_tx_timer_system_deactivate)
C:\Users\khurr\e2_studio_latest\workspace\VerticalControl\synergy\ssp\src\framework\el\tx\cm4_gcc\libtx.a(tx_initialize_low_level.o)
                              C:\Users\khurr\e2_studio_latest\workspace\VerticalControl\synergy\ssp\src\framework\el\tx\cm4_gcc\libtx.a(tx_initialize_kernel_enter.o) (_tx_initialize_low_level)
C:\Users\khurr\e2_studio_latest\workspace\VerticalControl\synergy\ssp\src\framework\el\tx\cm4_gcc\libtx.a(tx_thread_schedule.o)
                              C:\Users\khurr\e2_studio_latest\workspace\VerticalControl\synergy\ssp\src\framework\el\tx\cm4_gcc\libtx.a(tx_initialize_kernel_enter.o) (_tx_thread_schedule)
C:\Users\khurr\e2_studio_latest\workspace\VerticalControl\synergy\ssp\src\framework\el\tx\cm4_gcc\libtx.a(tx_thread_stack_build.o)
                              C:\Users\khurr\e2_studio_latest\workspace\VerticalControl\synergy\ssp\src\framework\el\tx\cm4_gcc\libtx.a(tx_thread_create.o) (_tx_thread_stack_build)
C:\Users\khurr\e2_studio_latest\workspace\VerticalControl\synergy\ssp\src\framework\el\tx\cm4_gcc\libtx.a(tx_timer_interrupt.o)
                              C:\Users\khurr\e2_studio_latest\workspace\VerticalControl\synergy\ssp\src\framework\el\tx\cm4_gcc\libtx.a(tx_thread_schedule.o) (_tx_timer_interrupt)
C:\Users\khurr\e2_studio_latest\workspace\VerticalControl\synergy\ssp\src\framework\el\tx\cm4_gcc\libtx.a(tx_semaphore_cleanup.o)
                              C:\Users\khurr\e2_studio_latest\workspace\VerticalControl\synergy\ssp\src\framework\el\tx\cm4_gcc\libtx.a(tx_semaphore_get.o) (_tx_semaphore_cleanup)
C:\Users\khurr\e2_studio_latest\workspace\VerticalControl\synergy\ssp\src\framework\el\tx\cm4_gcc\libtx.a(tx_thread_time_slice.o)
                              C:\Users\khurr\e2_studio_latest\workspace\VerticalControl\synergy\ssp\src\framework\el\tx\cm4_gcc\libtx.a(tx_timer_interrupt.o) (_tx_thread_time_slice)
C:\Users\khurr\e2_studio_latest\workspace\VerticalControl\synergy\ssp\src\framework\el\tx\cm4_gcc\libtx.a(tx_timer_expiration_process.o)
                              C:\Users\khurr\e2_studio_latest\workspace\VerticalControl\synergy\ssp\src\framework\el\tx\cm4_gcc\libtx.a(tx_timer_interrupt.o) (_tx_timer_expiration_process)
C:\Users\khurr\e2_studio_latest\workspace\VerticalControl\synergy\ssp\src\bsp\mcu\s5d9\libfmi_R7FS5D97E3A01CFB_gcc.a(bsp_fmi_R7FS5D97E3A01CFB.o)
                              C:\Users\khurr\e2_studio_latest\workspace\VerticalControl\synergy\ssp\src\driver\r_fmi\libs\libfmi_cm4_s5d9_gcc.a(r_fmi.o) (g_fmi_data)
c:/renesas/synergy/e2studio_v2022-10_ssp_v2.4.0/toolchains/gcc_arm/gcc-arm-none-eabi-10.3-2021.10/bin/../lib/gcc/arm-none-eabi/10.3.1/thumb/v7e-m+fp/hard\libgcc.a(_aeabi_ldivmod.o)
                              ./synergy/ssp/src/driver/r_sci_i2c/r_sci_i2c.o (__aeabi_ldivmod)
c:/renesas/synergy/e2studio_v2022-10_ssp_v2.4.0/toolchains/gcc_arm/gcc-arm-none-eabi-10.3-2021.10/bin/../lib/gcc/arm-none-eabi/10.3.1/thumb/v7e-m+fp/hard\libgcc.a(_aeabi_uldivmod.o)
                              ./synergy/ssp/src/driver/r_sci_i2c/r_sci_i2c.o (__aeabi_uldivmod)
c:/renesas/synergy/e2studio_v2022-10_ssp_v2.4.0/toolchains/gcc_arm/gcc-arm-none-eabi-10.3-2021.10/bin/../lib/gcc/arm-none-eabi/10.3.1/thumb/v7e-m+fp/hard\libgcc.a(_udivmoddi4.o)
                              c:/renesas/synergy/e2studio_v2022-10_ssp_v2.4.0/toolchains/gcc_arm/gcc-arm-none-eabi-10.3-2021.10/bin/../lib/gcc/arm-none-eabi/10.3.1/thumb/v7e-m+fp/hard\libgcc.a(_aeabi_ldivmod.o) (__udivmoddi4)
c:/renesas/synergy/e2studio_v2022-10_ssp_v2.4.0/toolchains/gcc_arm/gcc-arm-none-eabi-10.3-2021.10/bin/../lib/gcc/arm-none-eabi/10.3.1/thumb/v7e-m+fp/hard\libgcc.a(_dvmd_tls.o)
                              c:/renesas/synergy/e2studio_v2022-10_ssp_v2.4.0/toolchains/gcc_arm/gcc-arm-none-eabi-10.3-2021.10/bin/../lib/gcc/arm-none-eabi/10.3.1/thumb/v7e-m+fp/hard\libgcc.a(_aeabi_ldivmod.o) (__aeabi_ldiv0)
c:/renesas/synergy/e2studio_v2022-10_ssp_v2.4.0/toolchains/gcc_arm/gcc-arm-none-eabi-10.3-2021.10/bin/../lib/gcc/arm-none-eabi/10.3.1/../../../../arm-none-eabi/lib/thumb/v7e-m+fp/hard\libg_nano.a(lib_a-errno.o)
                              ./synergy/ssp/src/bsp/mcu/all/bsp_sbrk.o (__errno)
c:/renesas/synergy/e2studio_v2022-10_ssp_v2.4.0/toolchains/gcc_arm/gcc-arm-none-eabi-10.3-2021.10/bin/../lib/gcc/arm-none-eabi/10.3.1/../../../../arm-none-eabi/lib/thumb/v7e-m+fp/hard\libg_nano.a(lib_a-exit.o)
                              c:/renesas/synergy/e2studio_v2022-10_ssp_v2.4.0/toolchains/gcc_arm/gcc-arm-none-eabi-10.3-2021.10/bin/../lib/gcc/arm-none-eabi/10.3.1/../../../../arm-none-eabi/lib/thumb/v7e-m+fp/hard/rdimon-crt0.o (exit)
c:/renesas/synergy/e2studio_v2022-10_ssp_v2.4.0/toolchains/gcc_arm/gcc-arm-none-eabi-10.3-2021.10/bin/../lib/gcc/arm-none-eabi/10.3.1/../../../../arm-none-eabi/lib/thumb/v7e-m+fp/hard\libg_nano.a(lib_a-impure.o)
                              c:/renesas/synergy/e2studio_v2022-10_ssp_v2.4.0/toolchains/gcc_arm/gcc-arm-none-eabi-10.3-2021.10/bin/../lib/gcc/arm-none-eabi/10.3.1/../../../../arm-none-eabi/lib/thumb/v7e-m+fp/hard\libg_nano.a(lib_a-exit.o) (_global_impure_ptr)
c:/renesas/synergy/e2studio_v2022-10_ssp_v2.4.0/toolchains/gcc_arm/gcc-arm-none-eabi-10.3-2021.10/bin/../lib/gcc/arm-none-eabi/10.3.1/../../../../arm-none-eabi/lib/thumb/v7e-m+fp/hard\libg_nano.a(lib_a-init.o)
                              c:/renesas/synergy/e2studio_v2022-10_ssp_v2.4.0/toolchains/gcc_arm/gcc-arm-none-eabi-10.3-2021.10/bin/../lib/gcc/arm-none-eabi/10.3.1/../../../../arm-none-eabi/lib/thumb/v7e-m+fp/hard/rdimon-crt0.o (__libc_init_array)
c:/renesas/synergy/e2studio_v2022-10_ssp_v2.4.0/toolchains/gcc_arm/gcc-arm-none-eabi-10.3-2021.10/bin/../lib/gcc/arm-none-eabi/10.3.1/../../../../arm-none-eabi/lib/thumb/v7e-m+fp/hard\libg_nano.a(lib_a-memcpy-stub.o)
                              ./synergy/ssp/src/bsp/cmsis/Device/RENESAS/S5D9/Source/system_S5D9.o (memcpy)
c:/renesas/synergy/e2studio_v2022-10_ssp_v2.4.0/toolchains/gcc_arm/gcc-arm-none-eabi-10.3-2021.10/bin/../lib/gcc/arm-none-eabi/10.3.1/../../../../arm-none-eabi/lib/thumb/v7e-m+fp/hard\libg_nano.a(lib_a-memset.o)
                              c:/renesas/synergy/e2studio_v2022-10_ssp_v2.4.0/toolchains/gcc_arm/gcc-arm-none-eabi-10.3-2021.10/bin/../lib/gcc/arm-none-eabi/10.3.1/../../../../arm-none-eabi/lib/thumb/v7e-m+fp/hard/rdimon-crt0.o (memset)
c:/renesas/synergy/e2studio_v2022-10_ssp_v2.4.0/toolchains/gcc_arm/gcc-arm-none-eabi-10.3-2021.10/bin/../lib/gcc/arm-none-eabi/10.3.1/../../../../arm-none-eabi/lib/thumb/v7e-m+fp/hard\libg_nano.a(lib_a-rand.o)
                              ./synergy/ssp/src/bsp/cmsis/Device/RENESAS/S5D9/Source/system_S5D9.o (srand)
c:/renesas/synergy/e2studio_v2022-10_ssp_v2.4.0/toolchains/gcc_arm/gcc-arm-none-eabi-10.3-2021.10/bin/../lib/gcc/arm-none-eabi/10.3.1/../../../../arm-none-eabi/lib/thumb/v7e-m+fp/hard\libg_nano.a(lib_a-assert.o)
                              c:/renesas/synergy/e2studio_v2022-10_ssp_v2.4.0/toolchains/gcc_arm/gcc-arm-none-eabi-10.3-2021.10/bin/../lib/gcc/arm-none-eabi/10.3.1/../../../../arm-none-eabi/lib/thumb/v7e-m+fp/hard\libg_nano.a(lib_a-rand.o) (__assert_func)
c:/renesas/synergy/e2studio_v2022-10_ssp_v2.4.0/toolchains/gcc_arm/gcc-arm-none-eabi-10.3-2021.10/bin/../lib/gcc/arm-none-eabi/10.3.1/../../../../arm-none-eabi/lib/thumb/v7e-m+fp/hard\libg_nano.a(lib_a-fprintf.o)
                              c:/renesas/synergy/e2studio_v2022-10_ssp_v2.4.0/toolchains/gcc_arm/gcc-arm-none-eabi-10.3-2021.10/bin/../lib/gcc/arm-none-eabi/10.3.1/../../../../arm-none-eabi/lib/thumb/v7e-m+fp/hard\libg_nano.a(lib_a-assert.o) (fiprintf)
c:/renesas/synergy/e2studio_v2022-10_ssp_v2.4.0/toolchains/gcc_arm/gcc-arm-none-eabi-10.3-2021.10/bin/../lib/gcc/arm-none-eabi/10.3.1/../../../../arm-none-eabi/lib/thumb/v7e-m+fp/hard\libg_nano.a(lib_a-malloc.o)
                              c:/renesas/synergy/e2studio_v2022-10_ssp_v2.4.0/toolchains/gcc_arm/gcc-arm-none-eabi-10.3-2021.10/bin/../lib/gcc/arm-none-eabi/10.3.1/../../../../arm-none-eabi/lib/thumb/v7e-m+fp/hard\libg_nano.a(lib_a-rand.o) (malloc)
c:/renesas/synergy/e2studio_v2022-10_ssp_v2.4.0/toolchains/gcc_arm/gcc-arm-none-eabi-10.3-2021.10/bin/../lib/gcc/arm-none-eabi/10.3.1/../../../../arm-none-eabi/lib/thumb/v7e-m+fp/hard\libg_nano.a(lib_a-nano-freer.o)
                              c:/renesas/synergy/e2studio_v2022-10_ssp_v2.4.0/toolchains/gcc_arm/gcc-arm-none-eabi-10.3-2021.10/bin/../lib/gcc/arm-none-eabi/10.3.1/../../../../arm-none-eabi/lib/thumb/v7e-m+fp/hard\libg_nano.a(lib_a-malloc.o) (_free_r)
c:/renesas/synergy/e2studio_v2022-10_ssp_v2.4.0/toolchains/gcc_arm/gcc-arm-none-eabi-10.3-2021.10/bin/../lib/gcc/arm-none-eabi/10.3.1/../../../../arm-none-eabi/lib/thumb/v7e-m+fp/hard\libg_nano.a(lib_a-nano-mallocr.o)
                              c:/renesas/synergy/e2studio_v2022-10_ssp_v2.4.0/toolchains/gcc_arm/gcc-arm-none-eabi-10.3-2021.10/bin/../lib/gcc/arm-none-eabi/10.3.1/../../../../arm-none-eabi/lib/thumb/v7e-m+fp/hard\libg_nano.a(lib_a-malloc.o) (_malloc_r)
c:/renesas/synergy/e2studio_v2022-10_ssp_v2.4.0/toolchains/gcc_arm/gcc-arm-none-eabi-10.3-2021.10/bin/../lib/gcc/arm-none-eabi/10.3.1/../../../../arm-none-eabi/lib/thumb/v7e-m+fp/hard\libg_nano.a(lib_a-nano-vfprintf.o)
                              c:/renesas/synergy/e2studio_v2022-10_ssp_v2.4.0/toolchains/gcc_arm/gcc-arm-none-eabi-10.3-2021.10/bin/../lib/gcc/arm-none-eabi/10.3.1/../../../../arm-none-eabi/lib/thumb/v7e-m+fp/hard\libg_nano.a(lib_a-fprintf.o) (_vfprintf_r)
c:/renesas/synergy/e2studio_v2022-10_ssp_v2.4.0/toolchains/gcc_arm/gcc-arm-none-eabi-10.3-2021.10/bin/../lib/gcc/arm-none-eabi/10.3.1/../../../../arm-none-eabi/lib/thumb/v7e-m+fp/hard\libg_nano.a(lib_a-nano-vfprintf_i.o)
                              c:/renesas/synergy/e2studio_v2022-10_ssp_v2.4.0/toolchains/gcc_arm/gcc-arm-none-eabi-10.3-2021.10/bin/../lib/gcc/arm-none-eabi/10.3.1/../../../../arm-none-eabi/lib/thumb/v7e-m+fp/hard\libg_nano.a(lib_a-nano-vfprintf.o) (_printf_i)
c:/renesas/synergy/e2studio_v2022-10_ssp_v2.4.0/toolchains/gcc_arm/gcc-arm-none-eabi-10.3-2021.10/bin/../lib/gcc/arm-none-eabi/10.3.1/../../../../arm-none-eabi/lib/thumb/v7e-m+fp/hard\libg_nano.a(lib_a-sbrkr.o)
                              c:/renesas/synergy/e2studio_v2022-10_ssp_v2.4.0/toolchains/gcc_arm/gcc-arm-none-eabi-10.3-2021.10/bin/../lib/gcc/arm-none-eabi/10.3.1/../../../../arm-none-eabi/lib/thumb/v7e-m+fp/hard\libg_nano.a(lib_a-nano-mallocr.o) (_sbrk_r)
c:/renesas/synergy/e2studio_v2022-10_ssp_v2.4.0/toolchains/gcc_arm/gcc-arm-none-eabi-10.3-2021.10/bin/../lib/gcc/arm-none-eabi/10.3.1/../../../../arm-none-eabi/lib/thumb/v7e-m+fp/hard\libg_nano.a(lib_a-wbuf.o)
                              c:/renesas/synergy/e2studio_v2022-10_ssp_v2.4.0/toolchains/gcc_arm/gcc-arm-none-eabi-10.3-2021.10/bin/../lib/gcc/arm-none-eabi/10.3.1/../../../../arm-none-eabi/lib/thumb/v7e-m+fp/hard\libg_nano.a(lib_a-nano-vfprintf.o) (__swbuf_r)
c:/renesas/synergy/e2studio_v2022-10_ssp_v2.4.0/toolchains/gcc_arm/gcc-arm-none-eabi-10.3-2021.10/bin/../lib/gcc/arm-none-eabi/10.3.1/../../../../arm-none-eabi/lib/thumb/v7e-m+fp/hard\libg_nano.a(lib_a-wsetup.o)
                              c:/renesas/synergy/e2studio_v2022-10_ssp_v2.4.0/toolchains/gcc_arm/gcc-arm-none-eabi-10.3-2021.10/bin/../lib/gcc/arm-none-eabi/10.3.1/../../../../arm-none-eabi/lib/thumb/v7e-m+fp/hard\libg_nano.a(lib_a-nano-vfprintf.o) (__swsetup_r)
c:/renesas/synergy/e2studio_v2022-10_ssp_v2.4.0/toolchains/gcc_arm/gcc-arm-none-eabi-10.3-2021.10/bin/../lib/gcc/arm-none-eabi/10.3.1/../../../../arm-none-eabi/lib/thumb/v7e-m+fp/hard\libg_nano.a(lib_a-abort.o)
                              c:/renesas/synergy/e2studio_v2022-10_ssp_v2.4.0/toolchains/gcc_arm/gcc-arm-none-eabi-10.3-2021.10/bin/../lib/gcc/arm-none-eabi/10.3.1/../../../../arm-none-eabi/lib/thumb/v7e-m+fp/hard\libg_nano.a(lib_a-assert.o) (abort)
c:/renesas/synergy/e2studio_v2022-10_ssp_v2.4.0/toolchains/gcc_arm/gcc-arm-none-eabi-10.3-2021.10/bin/../lib/gcc/arm-none-eabi/10.3.1/../../../../arm-none-eabi/lib/thumb/v7e-m+fp/hard\libg_nano.a(lib_a-fflush.o)
                              c:/renesas/synergy/e2studio_v2022-10_ssp_v2.4.0/toolchains/gcc_arm/gcc-arm-none-eabi-10.3-2021.10/bin/../lib/gcc/arm-none-eabi/10.3.1/../../../../arm-none-eabi/lib/thumb/v7e-m+fp/hard\libg_nano.a(lib_a-wbuf.o) (_fflush_r)
c:/renesas/synergy/e2studio_v2022-10_ssp_v2.4.0/toolchains/gcc_arm/gcc-arm-none-eabi-10.3-2021.10/bin/../lib/gcc/arm-none-eabi/10.3.1/../../../../arm-none-eabi/lib/thumb/v7e-m+fp/hard\libg_nano.a(lib_a-findfp.o)
                              c:/renesas/synergy/e2studio_v2022-10_ssp_v2.4.0/toolchains/gcc_arm/gcc-arm-none-eabi-10.3-2021.10/bin/../lib/gcc/arm-none-eabi/10.3.1/../../../../arm-none-eabi/lib/thumb/v7e-m+fp/hard\libg_nano.a(lib_a-nano-vfprintf.o) (__sinit)
c:/renesas/synergy/e2studio_v2022-10_ssp_v2.4.0/toolchains/gcc_arm/gcc-arm-none-eabi-10.3-2021.10/bin/../lib/gcc/arm-none-eabi/10.3.1/../../../../arm-none-eabi/lib/thumb/v7e-m+fp/hard\libg_nano.a(lib_a-fvwrite.o)
                              c:/renesas/synergy/e2studio_v2022-10_ssp_v2.4.0/toolchains/gcc_arm/gcc-arm-none-eabi-10.3-2021.10/bin/../lib/gcc/arm-none-eabi/10.3.1/../../../../arm-none-eabi/lib/thumb/v7e-m+fp/hard\libg_nano.a(lib_a-nano-vfprintf.o) (__sfvwrite_r)
c:/renesas/synergy/e2studio_v2022-10_ssp_v2.4.0/toolchains/gcc_arm/gcc-arm-none-eabi-10.3-2021.10/bin/../lib/gcc/arm-none-eabi/10.3.1/../../../../arm-none-eabi/lib/thumb/v7e-m+fp/hard\libg_nano.a(lib_a-fwalk.o)
                              c:/renesas/synergy/e2studio_v2022-10_ssp_v2.4.0/toolchains/gcc_arm/gcc-arm-none-eabi-10.3-2021.10/bin/../lib/gcc/arm-none-eabi/10.3.1/../../../../arm-none-eabi/lib/thumb/v7e-m+fp/hard\libg_nano.a(lib_a-findfp.o) (_fwalk)
c:/renesas/synergy/e2studio_v2022-10_ssp_v2.4.0/toolchains/gcc_arm/gcc-arm-none-eabi-10.3-2021.10/bin/../lib/gcc/arm-none-eabi/10.3.1/../../../../arm-none-eabi/lib/thumb/v7e-m+fp/hard\libg_nano.a(lib_a-lock.o)
                              c:/renesas/synergy/e2studio_v2022-10_ssp_v2.4.0/toolchains/gcc_arm/gcc-arm-none-eabi-10.3-2021.10/bin/../lib/gcc/arm-none-eabi/10.3.1/../../../../arm-none-eabi/lib/thumb/v7e-m+fp/hard\libg_nano.a(lib_a-findfp.o) (__retarget_lock_init_recursive)
c:/renesas/synergy/e2studio_v2022-10_ssp_v2.4.0/toolchains/gcc_arm/gcc-arm-none-eabi-10.3-2021.10/bin/../lib/gcc/arm-none-eabi/10.3.1/../../../../arm-none-eabi/lib/thumb/v7e-m+fp/hard\libg_nano.a(lib_a-makebuf.o)
                              c:/renesas/synergy/e2studio_v2022-10_ssp_v2.4.0/toolchains/gcc_arm/gcc-arm-none-eabi-10.3-2021.10/bin/../lib/gcc/arm-none-eabi/10.3.1/../../../../arm-none-eabi/lib/thumb/v7e-m+fp/hard\libg_nano.a(lib_a-wsetup.o) (__smakebuf_r)
c:/renesas/synergy/e2studio_v2022-10_ssp_v2.4.0/toolchains/gcc_arm/gcc-arm-none-eabi-10.3-2021.10/bin/../lib/gcc/arm-none-eabi/10.3.1/../../../../arm-none-eabi/lib/thumb/v7e-m+fp/hard\libg_nano.a(lib_a-memchr.o)
                              c:/renesas/synergy/e2studio_v2022-10_ssp_v2.4.0/toolchains/gcc_arm/gcc-arm-none-eabi-10.3-2021.10/bin/../lib/gcc/arm-none-eabi/10.3.1/../../../../arm-none-eabi/lib/thumb/v7e-m+fp/hard\libg_nano.a(lib_a-nano-vfprintf.o) (memchr)
c:/renesas/synergy/e2studio_v2022-10_ssp_v2.4.0/toolchains/gcc_arm/gcc-arm-none-eabi-10.3-2021.10/bin/../lib/gcc/arm-none-eabi/10.3.1/../../../../arm-none-eabi/lib/thumb/v7e-m+fp/hard\libg_nano.a(lib_a-memmove.o)
                              c:/renesas/synergy/e2studio_v2022-10_ssp_v2.4.0/toolchains/gcc_arm/gcc-arm-none-eabi-10.3-2021.10/bin/../lib/gcc/arm-none-eabi/10.3.1/../../../../arm-none-eabi/lib/thumb/v7e-m+fp/hard\libg_nano.a(lib_a-fvwrite.o) (memmove)
c:/renesas/synergy/e2studio_v2022-10_ssp_v2.4.0/toolchains/gcc_arm/gcc-arm-none-eabi-10.3-2021.10/bin/../lib/gcc/arm-none-eabi/10.3.1/../../../../arm-none-eabi/lib/thumb/v7e-m+fp/hard\libg_nano.a(lib_a-mlock.o)
                              c:/renesas/synergy/e2studio_v2022-10_ssp_v2.4.0/toolchains/gcc_arm/gcc-arm-none-eabi-10.3-2021.10/bin/../lib/gcc/arm-none-eabi/10.3.1/../../../../arm-none-eabi/lib/thumb/v7e-m+fp/hard\libg_nano.a(lib_a-nano-freer.o) (__malloc_lock)
c:/renesas/synergy/e2studio_v2022-10_ssp_v2.4.0/toolchains/gcc_arm/gcc-arm-none-eabi-10.3-2021.10/bin/../lib/gcc/arm-none-eabi/10.3.1/../../../../arm-none-eabi/lib/thumb/v7e-m+fp/hard\libg_nano.a(lib_a-nano-reallocr.o)
                              c:/renesas/synergy/e2studio_v2022-10_ssp_v2.4.0/toolchains/gcc_arm/gcc-arm-none-eabi-10.3-2021.10/bin/../lib/gcc/arm-none-eabi/10.3.1/../../../../arm-none-eabi/lib/thumb/v7e-m+fp/hard\libg_nano.a(lib_a-fvwrite.o) (_realloc_r)
c:/renesas/synergy/e2studio_v2022-10_ssp_v2.4.0/toolchains/gcc_arm/gcc-arm-none-eabi-10.3-2021.10/bin/../lib/gcc/arm-none-eabi/10.3.1/../../../../arm-none-eabi/lib/thumb/v7e-m+fp/hard\libg_nano.a(lib_a-reent.o)
                              c:/renesas/synergy/e2studio_v2022-10_ssp_v2.4.0/toolchains/gcc_arm/gcc-arm-none-eabi-10.3-2021.10/bin/../lib/gcc/arm-none-eabi/10.3.1/../../../../arm-none-eabi/lib/thumb/v7e-m+fp/hard\libg_nano.a(lib_a-sbrkr.o) (errno)
c:/renesas/synergy/e2studio_v2022-10_ssp_v2.4.0/toolchains/gcc_arm/gcc-arm-none-eabi-10.3-2021.10/bin/../lib/gcc/arm-none-eabi/10.3.1/../../../../arm-none-eabi/lib/thumb/v7e-m+fp/hard\libg_nano.a(lib_a-signal.o)
                              c:/renesas/synergy/e2studio_v2022-10_ssp_v2.4.0/toolchains/gcc_arm/gcc-arm-none-eabi-10.3-2021.10/bin/../lib/gcc/arm-none-eabi/10.3.1/../../../../arm-none-eabi/lib/thumb/v7e-m+fp/hard\libg_nano.a(lib_a-abort.o) (raise)
c:/renesas/synergy/e2studio_v2022-10_ssp_v2.4.0/toolchains/gcc_arm/gcc-arm-none-eabi-10.3-2021.10/bin/../lib/gcc/arm-none-eabi/10.3.1/../../../../arm-none-eabi/lib/thumb/v7e-m+fp/hard\libg_nano.a(lib_a-signalr.o)
                              c:/renesas/synergy/e2studio_v2022-10_ssp_v2.4.0/toolchains/gcc_arm/gcc-arm-none-eabi-10.3-2021.10/bin/../lib/gcc/arm-none-eabi/10.3.1/../../../../arm-none-eabi/lib/thumb/v7e-m+fp/hard\libg_nano.a(lib_a-signal.o) (_kill_r)
c:/renesas/synergy/e2studio_v2022-10_ssp_v2.4.0/toolchains/gcc_arm/gcc-arm-none-eabi-10.3-2021.10/bin/../lib/gcc/arm-none-eabi/10.3.1/../../../../arm-none-eabi/lib/thumb/v7e-m+fp/hard\libg_nano.a(lib_a-stdio.o)
                              c:/renesas/synergy/e2studio_v2022-10_ssp_v2.4.0/toolchains/gcc_arm/gcc-arm-none-eabi-10.3-2021.10/bin/../lib/gcc/arm-none-eabi/10.3.1/../../../../arm-none-eabi/lib/thumb/v7e-m+fp/hard\libg_nano.a(lib_a-findfp.o) (__sread)
c:/renesas/synergy/e2studio_v2022-10_ssp_v2.4.0/toolchains/gcc_arm/gcc-arm-none-eabi-10.3-2021.10/bin/../lib/gcc/arm-none-eabi/10.3.1/../../../../arm-none-eabi/lib/thumb/v7e-m+fp/hard\libg_nano.a(lib_a-writer.o)
                              c:/renesas/synergy/e2studio_v2022-10_ssp_v2.4.0/toolchains/gcc_arm/gcc-arm-none-eabi-10.3-2021.10/bin/../lib/gcc/arm-none-eabi/10.3.1/../../../../arm-none-eabi/lib/thumb/v7e-m+fp/hard\libg_nano.a(lib_a-stdio.o) (_write_r)
c:/renesas/synergy/e2studio_v2022-10_ssp_v2.4.0/toolchains/gcc_arm/gcc-arm-none-eabi-10.3-2021.10/bin/../lib/gcc/arm-none-eabi/10.3.1/../../../../arm-none-eabi/lib/thumb/v7e-m+fp/hard\libg_nano.a(lib_a-closer.o)
                              c:/renesas/synergy/e2studio_v2022-10_ssp_v2.4.0/toolchains/gcc_arm/gcc-arm-none-eabi-10.3-2021.10/bin/../lib/gcc/arm-none-eabi/10.3.1/../../../../arm-none-eabi/lib/thumb/v7e-m+fp/hard\libg_nano.a(lib_a-stdio.o) (_close_r)
c:/renesas/synergy/e2studio_v2022-10_ssp_v2.4.0/toolchains/gcc_arm/gcc-arm-none-eabi-10.3-2021.10/bin/../lib/gcc/arm-none-eabi/10.3.1/../../../../arm-none-eabi/lib/thumb/v7e-m+fp/hard\libg_nano.a(lib_a-fstatr.o)
                              c:/renesas/synergy/e2studio_v2022-10_ssp_v2.4.0/toolchains/gcc_arm/gcc-arm-none-eabi-10.3-2021.10/bin/../lib/gcc/arm-none-eabi/10.3.1/../../../../arm-none-eabi/lib/thumb/v7e-m+fp/hard\libg_nano.a(lib_a-makebuf.o) (_fstat_r)
c:/renesas/synergy/e2studio_v2022-10_ssp_v2.4.0/toolchains/gcc_arm/gcc-arm-none-eabi-10.3-2021.10/bin/../lib/gcc/arm-none-eabi/10.3.1/../../../../arm-none-eabi/lib/thumb/v7e-m+fp/hard\libg_nano.a(lib_a-isattyr.o)
                              c:/renesas/synergy/e2studio_v2022-10_ssp_v2.4.0/toolchains/gcc_arm/gcc-arm-none-eabi-10.3-2021.10/bin/../lib/gcc/arm-none-eabi/10.3.1/../../../../arm-none-eabi/lib/thumb/v7e-m+fp/hard\libg_nano.a(lib_a-makebuf.o) (_isatty_r)
c:/renesas/synergy/e2studio_v2022-10_ssp_v2.4.0/toolchains/gcc_arm/gcc-arm-none-eabi-10.3-2021.10/bin/../lib/gcc/arm-none-eabi/10.3.1/../../../../arm-none-eabi/lib/thumb/v7e-m+fp/hard\libg_nano.a(lib_a-lseekr.o)
                              c:/renesas/synergy/e2studio_v2022-10_ssp_v2.4.0/toolchains/gcc_arm/gcc-arm-none-eabi-10.3-2021.10/bin/../lib/gcc/arm-none-eabi/10.3.1/../../../../arm-none-eabi/lib/thumb/v7e-m+fp/hard\libg_nano.a(lib_a-stdio.o) (_lseek_r)
c:/renesas/synergy/e2studio_v2022-10_ssp_v2.4.0/toolchains/gcc_arm/gcc-arm-none-eabi-10.3-2021.10/bin/../lib/gcc/arm-none-eabi/10.3.1/../../../../arm-none-eabi/lib/thumb/v7e-m+fp/hard\libg_nano.a(lib_a-nano-msizer.o)
                              c:/renesas/synergy/e2studio_v2022-10_ssp_v2.4.0/toolchains/gcc_arm/gcc-arm-none-eabi-10.3-2021.10/bin/../lib/gcc/arm-none-eabi/10.3.1/../../../../arm-none-eabi/lib/thumb/v7e-m+fp/hard\libg_nano.a(lib_a-nano-reallocr.o) (_malloc_usable_size_r)
c:/renesas/synergy/e2studio_v2022-10_ssp_v2.4.0/toolchains/gcc_arm/gcc-arm-none-eabi-10.3-2021.10/bin/../lib/gcc/arm-none-eabi/10.3.1/../../../../arm-none-eabi/lib/thumb/v7e-m+fp/hard\libg_nano.a(lib_a-readr.o)
                              c:/renesas/synergy/e2studio_v2022-10_ssp_v2.4.0/toolchains/gcc_arm/gcc-arm-none-eabi-10.3-2021.10/bin/../lib/gcc/arm-none-eabi/10.3.1/../../../../arm-none-eabi/lib/thumb/v7e-m+fp/hard\libg_nano.a(lib_a-stdio.o) (_read_r)
c:/renesas/synergy/e2studio_v2022-10_ssp_v2.4.0/toolchains/gcc_arm/gcc-arm-none-eabi-10.3-2021.10/bin/../lib/gcc/arm-none-eabi/10.3.1/../../../../arm-none-eabi/lib/thumb/v7e-m+fp/hard\librdimon_nano.a(rdimon-syscalls.o)
                              c:/renesas/synergy/e2studio_v2022-10_ssp_v2.4.0/toolchains/gcc_arm/gcc-arm-none-eabi-10.3-2021.10/bin/../lib/gcc/arm-none-eabi/10.3.1/../../../../arm-none-eabi/lib/thumb/v7e-m+fp/hard\libg_nano.a(lib_a-readr.o) (_read)
c:/renesas/synergy/e2studio_v2022-10_ssp_v2.4.0/toolchains/gcc_arm/gcc-arm-none-eabi-10.3-2021.10/bin/../lib/gcc/arm-none-eabi/10.3.1/../../../../arm-none-eabi/lib/thumb/v7e-m+fp/hard\librdimon_nano.a(rdimon-_exit.o)
                              c:/renesas/synergy/e2studio_v2022-10_ssp_v2.4.0/toolchains/gcc_arm/gcc-arm-none-eabi-10.3-2021.10/bin/../lib/gcc/arm-none-eabi/10.3.1/../../../../arm-none-eabi/lib/thumb/v7e-m+fp/hard\libg_nano.a(lib_a-exit.o) (_exit)
c:/renesas/synergy/e2studio_v2022-10_ssp_v2.4.0/toolchains/gcc_arm/gcc-arm-none-eabi-10.3-2021.10/bin/../lib/gcc/arm-none-eabi/10.3.1/../../../../arm-none-eabi/lib/thumb/v7e-m+fp/hard\librdimon_nano.a(rdimon-_kill.o)
                              c:/renesas/synergy/e2studio_v2022-10_ssp_v2.4.0/toolchains/gcc_arm/gcc-arm-none-eabi-10.3-2021.10/bin/../lib/gcc/arm-none-eabi/10.3.1/../../../../arm-none-eabi/lib/thumb/v7e-m+fp/hard\librdimon_nano.a(rdimon-_exit.o) (_kill_shared)
c:/renesas/synergy/e2studio_v2022-10_ssp_v2.4.0/toolchains/gcc_arm/gcc-arm-none-eabi-10.3-2021.10/bin/../lib/gcc/arm-none-eabi/10.3.1/../../../../arm-none-eabi/lib/thumb/v7e-m+fp/hard\libc_nano.a(lib_a-strlen.o)
                              c:/renesas/synergy/e2studio_v2022-10_ssp_v2.4.0/toolchains/gcc_arm/gcc-arm-none-eabi-10.3-2021.10/bin/../lib/gcc/arm-none-eabi/10.3.1/../../../../arm-none-eabi/lib/thumb/v7e-m+fp/hard\librdimon_nano.a(rdimon-syscalls.o) (strlen)

Discarded input sections

 .text          0x00000000        0x0 c:/renesas/synergy/e2studio_v2022-10_ssp_v2.4.0/toolchains/gcc_arm/gcc-arm-none-eabi-10.3-2021.10/bin/../lib/gcc/arm-none-eabi/10.3.1/thumb/v7e-m+fp/hard/crti.o
 .data          0x00000000        0x0 c:/renesas/synergy/e2studio_v2022-10_ssp_v2.4.0/toolchains/gcc_arm/gcc-arm-none-eabi-10.3-2021.10/bin/../lib/gcc/arm-none-eabi/10.3.1/thumb/v7e-m+fp/hard/crti.o
 .bss           0x00000000        0x0 c:/renesas/synergy/e2studio_v2022-10_ssp_v2.4.0/toolchains/gcc_arm/gcc-arm-none-eabi-10.3-2021.10/bin/../lib/gcc/arm-none-eabi/10.3.1/thumb/v7e-m+fp/hard/crti.o
 .data          0x00000000        0x4 c:/renesas/synergy/e2studio_v2022-10_ssp_v2.4.0/toolchains/gcc_arm/gcc-arm-none-eabi-10.3-2021.10/bin/../lib/gcc/arm-none-eabi/10.3.1/thumb/v7e-m+fp/hard/crtbegin.o
 .rodata        0x00000000       0x24 c:/renesas/synergy/e2studio_v2022-10_ssp_v2.4.0/toolchains/gcc_arm/gcc-arm-none-eabi-10.3-2021.10/bin/../lib/gcc/arm-none-eabi/10.3.1/thumb/v7e-m+fp/hard/crtbegin.o
 .text          0x00000000       0xf8 c:/renesas/synergy/e2studio_v2022-10_ssp_v2.4.0/toolchains/gcc_arm/gcc-arm-none-eabi-10.3-2021.10/bin/../lib/gcc/arm-none-eabi/10.3.1/../../../../arm-none-eabi/lib/thumb/v7e-m+fp/hard/rdimon-crt0.o
 .data          0x00000000      0x118 c:/renesas/synergy/e2studio_v2022-10_ssp_v2.4.0/toolchains/gcc_arm/gcc-arm-none-eabi-10.3-2021.10/bin/../lib/gcc/arm-none-eabi/10.3.1/../../../../arm-none-eabi/lib/thumb/v7e-m+fp/hard/rdimon-crt0.o
 .bss           0x00000000        0x0 c:/renesas/synergy/e2studio_v2022-10_ssp_v2.4.0/toolchains/gcc_arm/gcc-arm-none-eabi-10.3-2021.10/bin/../lib/gcc/arm-none-eabi/10.3.1/../../../../arm-none-eabi/lib/thumb/v7e-m+fp/hard/rdimon-crt0.o
 .ARM.extab     0x00000000        0x0 c:/renesas/synergy/e2studio_v2022-10_ssp_v2.4.0/toolchains/gcc_arm/gcc-arm-none-eabi-10.3-2021.10/bin/../lib/gcc/arm-none-eabi/10.3.1/../../../../arm-none-eabi/lib/thumb/v7e-m+fp/hard/rdimon-crt0.o
 .ARM.exidx     0x00000000       0x10 c:/renesas/synergy/e2studio_v2022-10_ssp_v2.4.0/toolchains/gcc_arm/gcc-arm-none-eabi-10.3-2021.10/bin/../lib/gcc/arm-none-eabi/10.3.1/../../../../arm-none-eabi/lib/thumb/v7e-m+fp/hard/rdimon-crt0.o
 .ARM.attributes
                0x00000000       0x1c c:/renesas/synergy/e2studio_v2022-10_ssp_v2.4.0/toolchains/gcc_arm/gcc-arm-none-eabi-10.3-2021.10/bin/../lib/gcc/arm-none-eabi/10.3.1/../../../../arm-none-eabi/lib/thumb/v7e-m+fp/hard/rdimon-crt0.o
 .text          0x00000000        0x0 ./synergy/ssp/src/driver/r_sci_i2c/r_sci_i2c.o
 .data          0x00000000        0x0 ./synergy/ssp/src/driver/r_sci_i2c/r_sci_i2c.o
 .bss           0x00000000        0x0 ./synergy/ssp/src/driver/r_sci_i2c/r_sci_i2c.o
 .text.sci_siic_notify
                0x00000000       0x34 ./synergy/ssp/src/driver/r_sci_i2c/r_sci_i2c.o
 .text          0x00000000        0x0 ./synergy/ssp/src/driver/r_ioport/r_ioport.o
 .data          0x00000000        0x0 ./synergy/ssp/src/driver/r_ioport/r_ioport.o
 .bss           0x00000000        0x0 ./synergy/ssp/src/driver/r_ioport/r_ioport.o
 .text          0x00000000        0x0 ./synergy/ssp/src/driver/r_elc/r_elc.o
 .data          0x00000000        0x0 ./synergy/ssp/src/driver/r_elc/r_elc.o
 .bss           0x00000000        0x0 ./synergy/ssp/src/driver/r_elc/r_elc.o
 .text          0x00000000        0x0 ./synergy/ssp/src/driver/r_dtc/r_dtc.o
 .data          0x00000000        0x0 ./synergy/ssp/src/driver/r_dtc/r_dtc.o
 .bss           0x00000000        0x0 ./synergy/ssp/src/driver/r_dtc/r_dtc.o
 .text.elc_software_event_isr
                0x00000000       0x50 ./synergy/ssp/src/driver/r_dtc/r_dtc.o
 .text          0x00000000        0x0 ./synergy/ssp/src/driver/r_cgc/r_cgc.o
 .data          0x00000000        0x0 ./synergy/ssp/src/driver/r_cgc/r_cgc.o
 .bss           0x00000000        0x0 ./synergy/ssp/src/driver/r_cgc/r_cgc.o
 .text.r_cgc_operating_mode_get
                0x00000000       0x14 ./synergy/ssp/src/driver/r_cgc/r_cgc.o
 .text.r_cgc_hoco_wait_control_set
                0x00000000       0x24 ./synergy/ssp/src/driver/r_cgc/r_cgc.o
 .text          0x00000000        0x0 ./synergy/ssp/src/driver/r_can/hw/hw_can.o
 .data          0x00000000        0x0 ./synergy/ssp/src/driver/r_can/hw/hw_can.o
 .bss           0x00000000        0x0 ./synergy/ssp/src/driver/r_can/hw/hw_can.o
 .text.HW_CAN_ReceiveIdGet
                0x00000000       0x10 ./synergy/ssp/src/driver/r_can/hw/hw_can.o
 .text.HW_CAN_ReceiveDataCountGet
                0x00000000       0x14 ./synergy/ssp/src/driver/r_can/hw/hw_can.o
 .text          0x00000000        0x0 ./synergy/ssp/src/driver/r_can/r_can.o
 .data          0x00000000        0x0 ./synergy/ssp/src/driver/r_can/r_can.o
 .bss           0x00000000        0x0 ./synergy/ssp/src/driver/r_can/r_can.o
 .text          0x00000000        0x0 ./synergy/ssp/src/driver/r_adc/r_adc.o
 .data          0x00000000        0x0 ./synergy/ssp/src/driver/r_adc/r_adc.o
 .bss           0x00000000        0x0 ./synergy/ssp/src/driver/r_adc/r_adc.o
 .text.r_adc_open_configure_pga_settings
                0x00000000        0xc ./synergy/ssp/src/driver/r_adc/r_adc.o
 .text.adc_scan_end_isr
                0x00000000       0x5c ./synergy/ssp/src/driver/r_adc/r_adc.o
 .text.adc_scan_end_b_isr
                0x00000000       0x5c ./synergy/ssp/src/driver/r_adc/r_adc.o
 .text          0x00000000        0x0 ./synergy/ssp/src/bsp/mcu/s5d9/bsp_cache.o
 .data          0x00000000        0x0 ./synergy/ssp/src/bsp/mcu/s5d9/bsp_cache.o
 .bss           0x00000000        0x0 ./synergy/ssp/src/bsp/mcu/s5d9/bsp_cache.o
 .text          0x00000000        0x0 ./synergy/ssp/src/bsp/mcu/s5d9/bsp_clocks.o
 .data          0x00000000        0x0 ./synergy/ssp/src/bsp/mcu/s5d9/bsp_clocks.o
 .bss           0x00000000        0x0 ./synergy/ssp/src/bsp/mcu/s5d9/bsp_clocks.o
 .text          0x00000000        0x0 ./synergy/ssp/src/bsp/mcu/s5d9/bsp_feature.o
 .data          0x00000000        0x0 ./synergy/ssp/src/bsp/mcu/s5d9/bsp_feature.o
 .bss           0x00000000        0x0 ./synergy/ssp/src/bsp/mcu/s5d9/bsp_feature.o
 .text.R_BSP_FeatureRspiGet
                0x00000000       0x14 ./synergy/ssp/src/bsp/mcu/s5d9/bsp_feature.o
 .text.R_BSP_FeatureLvdGet
                0x00000000       0x18 ./synergy/ssp/src/bsp/mcu/s5d9/bsp_feature.o
 .text.R_BSP_FeatureAcmphsGet
                0x00000000        0x8 ./synergy/ssp/src/bsp/mcu/s5d9/bsp_feature.o
 .text.R_BSP_FeatureDacGet
                0x00000000        0xc ./synergy/ssp/src/bsp/mcu/s5d9/bsp_feature.o
 .text.R_BSP_FeatureCtsuGet
                0x00000000       0x1c ./synergy/ssp/src/bsp/mcu/s5d9/bsp_feature.o
 .text.R_BSP_FeatureSdhiGet
                0x00000000       0x18 ./synergy/ssp/src/bsp/mcu/s5d9/bsp_feature.o
 .text.R_BSP_FeatureSsiGet
                0x00000000        0x8 ./synergy/ssp/src/bsp/mcu/s5d9/bsp_feature.o
 .text.R_BSP_FeatureICUGet
                0x00000000        0xc ./synergy/ssp/src/bsp/mcu/s5d9/bsp_feature.o
 .text.R_BSP_FeatureLPMV2Get
                0x00000000        0xc ./synergy/ssp/src/bsp/mcu/s5d9/bsp_feature.o
 .text.R_BSP_FeatureRIICGet
                0x00000000        0xc ./synergy/ssp/src/bsp/mcu/s5d9/bsp_feature.o
 .text          0x00000000        0x0 ./synergy/ssp/src/bsp/mcu/s5d9/bsp_group_irq.o
 .data          0x00000000        0x0 ./synergy/ssp/src/bsp/mcu/s5d9/bsp_group_irq.o
 .bss           0x00000000        0x0 ./synergy/ssp/src/bsp/mcu/s5d9/bsp_group_irq.o
 .text.bsp_group_irq_call
                0x00000000       0x18 ./synergy/ssp/src/bsp/mcu/s5d9/bsp_group_irq.o
 .text          0x00000000        0x0 ./synergy/ssp/src/bsp/mcu/s5d9/bsp_hw_locks.o
 .data          0x00000000        0x0 ./synergy/ssp/src/bsp/mcu/s5d9/bsp_hw_locks.o
 .bss           0x00000000        0x0 ./synergy/ssp/src/bsp/mcu/s5d9/bsp_hw_locks.o
 .text          0x00000000        0x0 ./synergy/ssp/src/bsp/mcu/s5d9/bsp_module_stop.o
 .data          0x00000000        0x0 ./synergy/ssp/src/bsp/mcu/s5d9/bsp_module_stop.o
 .bss           0x00000000        0x0 ./synergy/ssp/src/bsp/mcu/s5d9/bsp_module_stop.o
 .text.R_BSP_ModuleStopAlways
                0x00000000       0x84 ./synergy/ssp/src/bsp/mcu/s5d9/bsp_module_stop.o
 .text.R_BSP_ModuleStateGet
                0x00000000       0x80 ./synergy/ssp/src/bsp/mcu/s5d9/bsp_module_stop.o
 .text          0x00000000        0x0 ./synergy/ssp/src/bsp/mcu/s5d9/bsp_rom_registers.o
 .data          0x00000000        0x0 ./synergy/ssp/src/bsp/mcu/s5d9/bsp_rom_registers.o
 .bss           0x00000000        0x0 ./synergy/ssp/src/bsp/mcu/s5d9/bsp_rom_registers.o
 .text          0x00000000        0x0 ./synergy/ssp/src/bsp/mcu/all/bsp_common.o
 .data          0x00000000        0x0 ./synergy/ssp/src/bsp/mcu/all/bsp_common.o
 .bss           0x00000000        0x0 ./synergy/ssp/src/bsp/mcu/all/bsp_common.o
 .text.R_BSP_VersionGet
                0x00000000       0x10 ./synergy/ssp/src/bsp/mcu/all/bsp_common.o
 .text.R_SSP_VersionGet
                0x00000000       0x10 ./synergy/ssp/src/bsp/mcu/all/bsp_common.o
 .text          0x00000000        0x0 ./synergy/ssp/src/bsp/mcu/all/bsp_common_leds.o
 .data          0x00000000        0x0 ./synergy/ssp/src/bsp/mcu/all/bsp_common_leds.o
 .bss           0x00000000        0x0 ./synergy/ssp/src/bsp/mcu/all/bsp_common_leds.o
 .text.R_BSP_LedsGet
                0x00000000       0x24 ./synergy/ssp/src/bsp/mcu/all/bsp_common_leds.o
 .debug_info    0x00000000      0xbcc ./synergy/ssp/src/bsp/mcu/all/bsp_common_leds.o
 .debug_abbrev  0x00000000       0xef ./synergy/ssp/src/bsp/mcu/all/bsp_common_leds.o
 .debug_loc     0x00000000       0x3c ./synergy/ssp/src/bsp/mcu/all/bsp_common_leds.o
 .debug_aranges
                0x00000000       0x20 ./synergy/ssp/src/bsp/mcu/all/bsp_common_leds.o
 .debug_ranges  0x00000000       0x10 ./synergy/ssp/src/bsp/mcu/all/bsp_common_leds.o
 .debug_line    0x00000000      0x2d3 ./synergy/ssp/src/bsp/mcu/all/bsp_common_leds.o
 .debug_str     0x00000000     0x261b ./synergy/ssp/src/bsp/mcu/all/bsp_common_leds.o
 .comment       0x00000000       0x4a ./synergy/ssp/src/bsp/mcu/all/bsp_common_leds.o
 .debug_frame   0x00000000       0x20 ./synergy/ssp/src/bsp/mcu/all/bsp_common_leds.o
 .ARM.attributes
                0x00000000       0x34 ./synergy/ssp/src/bsp/mcu/all/bsp_common_leds.o
 .text          0x00000000        0x0 ./synergy/ssp/src/bsp/mcu/all/bsp_delay.o
 .data          0x00000000        0x0 ./synergy/ssp/src/bsp/mcu/all/bsp_delay.o
 .bss           0x00000000        0x0 ./synergy/ssp/src/bsp/mcu/all/bsp_delay.o
 .text          0x00000000        0x0 ./synergy/ssp/src/bsp/mcu/all/bsp_irq.o
 .data          0x00000000        0x0 ./synergy/ssp/src/bsp/mcu/all/bsp_irq.o
 .bss           0x00000000        0x0 ./synergy/ssp/src/bsp/mcu/all/bsp_irq.o
 .text          0x00000000        0x0 ./synergy/ssp/src/bsp/mcu/all/bsp_locking.o
 .data          0x00000000        0x0 ./synergy/ssp/src/bsp/mcu/all/bsp_locking.o
 .bss           0x00000000        0x0 ./synergy/ssp/src/bsp/mcu/all/bsp_locking.o
 .text.R_BSP_SoftwareLock
                0x00000000       0x20 ./synergy/ssp/src/bsp/mcu/all/bsp_locking.o
 .text.R_BSP_SoftwareUnlock
                0x00000000        0x8 ./synergy/ssp/src/bsp/mcu/all/bsp_locking.o
 .text.R_BSP_SoftwareLockInit
                0x00000000        0x8 ./synergy/ssp/src/bsp/mcu/all/bsp_locking.o
 .text          0x00000000        0x0 ./synergy/ssp/src/bsp/mcu/all/bsp_register_protection.o
 .data          0x00000000        0x0 ./synergy/ssp/src/bsp/mcu/all/bsp_register_protection.o
 .bss           0x00000000        0x0 ./synergy/ssp/src/bsp/mcu/all/bsp_register_protection.o
 .text          0x00000000        0x0 ./synergy/ssp/src/bsp/mcu/all/bsp_sbrk.o
 .data          0x00000000        0x0 ./synergy/ssp/src/bsp/mcu/all/bsp_sbrk.o
 .bss           0x00000000        0x0 ./synergy/ssp/src/bsp/mcu/all/bsp_sbrk.o
 .text          0x00000000        0x0 ./synergy/ssp/src/bsp/cmsis/Device/RENESAS/S5D9/Source/startup_S5D9.o
 .data          0x00000000        0x0 ./synergy/ssp/src/bsp/cmsis/Device/RENESAS/S5D9/Source/startup_S5D9.o
 .bss           0x00000000        0x0 ./synergy/ssp/src/bsp/cmsis/Device/RENESAS/S5D9/Source/startup_S5D9.o
 .text          0x00000000        0x0 ./synergy/ssp/src/bsp/cmsis/Device/RENESAS/S5D9/Source/system_S5D9.o
 .data          0x00000000        0x0 ./synergy/ssp/src/bsp/cmsis/Device/RENESAS/S5D9/Source/system_S5D9.o
 .bss           0x00000000        0x0 ./synergy/ssp/src/bsp/cmsis/Device/RENESAS/S5D9/Source/system_S5D9.o
 .text.SystemCoreClockUpdate
                0x00000000       0x10 ./synergy/ssp/src/bsp/cmsis/Device/RENESAS/S5D9/Source/system_S5D9.o
 .text          0x00000000        0x0 ./src/synergy_gen/adc_thread.o
 .data          0x00000000        0x0 ./src/synergy_gen/adc_thread.o
 .bss           0x00000000        0x0 ./src/synergy_gen/adc_thread.o
 .text          0x00000000        0x0 ./src/synergy_gen/can_thread.o
 .data          0x00000000        0x0 ./src/synergy_gen/can_thread.o
 .bss           0x00000000        0x0 ./src/synergy_gen/can_thread.o
 .text          0x00000000        0x0 ./src/synergy_gen/common_data.o
 .data          0x00000000        0x0 ./src/synergy_gen/common_data.o
 .bss           0x00000000        0x0 ./src/synergy_gen/common_data.o
 .rodata.g_cgc  0x00000000        0x8 ./src/synergy_gen/common_data.o
 .rodata.g_elc  0x00000000        0x8 ./src/synergy_gen/common_data.o
 .rodata.g_fmi  0x00000000        0x4 ./src/synergy_gen/common_data.o
 .text          0x00000000        0x0 ./src/synergy_gen/drv_thread.o
 .data          0x00000000        0x0 ./src/synergy_gen/drv_thread.o
 .bss           0x00000000        0x0 ./src/synergy_gen/drv_thread.o
 .text          0x00000000        0x0 ./src/synergy_gen/hal_data.o
 .data          0x00000000        0x0 ./src/synergy_gen/hal_data.o
 .bss           0x00000000        0x0 ./src/synergy_gen/hal_data.o
 .text          0x00000000        0x0 ./src/synergy_gen/main.o
 .data          0x00000000        0x0 ./src/synergy_gen/main.o
 .bss           0x00000000        0x0 ./src/synergy_gen/main.o
 .text          0x00000000        0x0 ./src/synergy_gen/pin_data.o
 .data          0x00000000        0x0 ./src/synergy_gen/pin_data.o
 .bss           0x00000000        0x0 ./src/synergy_gen/pin_data.o
 .text          0x00000000        0x0 ./src/synergy_gen/status_thread.o
 .data          0x00000000        0x0 ./src/synergy_gen/status_thread.o
 .bss           0x00000000        0x0 ./src/synergy_gen/status_thread.o
 .text          0x00000000        0x0 ./src/adc_thread_entry.o
 .data          0x00000000        0x0 ./src/adc_thread_entry.o
 .bss           0x00000000        0x0 ./src/adc_thread_entry.o
 .text          0x00000000        0x0 ./src/can_thread_entry.o
 .data          0x00000000        0x0 ./src/can_thread_entry.o
 .bss           0x00000000        0x0 ./src/can_thread_entry.o
 .bss.tx_data   0x00000000        0x8 ./src/can_thread_entry.o
 .text          0x00000000        0x0 ./src/drv_thread_entry.o
 .data          0x00000000        0x0 ./src/drv_thread_entry.o
 .bss           0x00000000        0x0 ./src/drv_thread_entry.o
 .text.stoppinglift_down
                0x00000000       0x28 ./src/drv_thread_entry.o
 .text.stoppinglift_up
                0x00000000       0x28 ./src/drv_thread_entry.o
 .text          0x00000000        0x0 ./src/status_thread_entry.o
 .data          0x00000000        0x0 ./src/status_thread_entry.o
 .bss           0x00000000        0x0 ./src/status_thread_entry.o
 .text          0x00000000        0x0 C:\Users\khurr\e2_studio_latest\workspace\VerticalControl\synergy\ssp\src\driver\r_fmi\libs\libfmi_cm4_s5d9_gcc.a(r_fmi.o)
 .data          0x00000000        0x0 C:\Users\khurr\e2_studio_latest\workspace\VerticalControl\synergy\ssp\src\driver\r_fmi\libs\libfmi_cm4_s5d9_gcc.a(r_fmi.o)
 .bss           0x00000000        0x0 C:\Users\khurr\e2_studio_latest\workspace\VerticalControl\synergy\ssp\src\driver\r_fmi\libs\libfmi_cm4_s5d9_gcc.a(r_fmi.o)
 .text          0x00000000        0x0 C:\Users\khurr\e2_studio_latest\workspace\VerticalControl\synergy\ssp\src\framework\el\tx\cm4_gcc\libtx.a(txe_semaphore_create.o)
 .data          0x00000000        0x0 C:\Users\khurr\e2_studio_latest\workspace\VerticalControl\synergy\ssp\src\framework\el\tx\cm4_gcc\libtx.a(txe_semaphore_create.o)
 .bss           0x00000000        0x0 C:\Users\khurr\e2_studio_latest\workspace\VerticalControl\synergy\ssp\src\framework\el\tx\cm4_gcc\libtx.a(txe_semaphore_create.o)
 .text          0x00000000        0x0 C:\Users\khurr\e2_studio_latest\workspace\VerticalControl\synergy\ssp\src\framework\el\tx\cm4_gcc\libtx.a(txe_semaphore_get.o)
 .data          0x00000000        0x0 C:\Users\khurr\e2_studio_latest\workspace\VerticalControl\synergy\ssp\src\framework\el\tx\cm4_gcc\libtx.a(txe_semaphore_get.o)
 .bss           0x00000000        0x0 C:\Users\khurr\e2_studio_latest\workspace\VerticalControl\synergy\ssp\src\framework\el\tx\cm4_gcc\libtx.a(txe_semaphore_get.o)
 .text          0x00000000        0x0 C:\Users\khurr\e2_studio_latest\workspace\VerticalControl\synergy\ssp\src\framework\el\tx\cm4_gcc\libtx.a(txe_semaphore_put.o)
 .data          0x00000000        0x0 C:\Users\khurr\e2_studio_latest\workspace\VerticalControl\synergy\ssp\src\framework\el\tx\cm4_gcc\libtx.a(txe_semaphore_put.o)
 .bss           0x00000000        0x0 C:\Users\khurr\e2_studio_latest\workspace\VerticalControl\synergy\ssp\src\framework\el\tx\cm4_gcc\libtx.a(txe_semaphore_put.o)
 .text          0x00000000        0x0 C:\Users\khurr\e2_studio_latest\workspace\VerticalControl\synergy\ssp\src\framework\el\tx\cm4_gcc\libtx.a(txe_thread_create.o)
 .data          0x00000000        0x0 C:\Users\khurr\e2_studio_latest\workspace\VerticalControl\synergy\ssp\src\framework\el\tx\cm4_gcc\libtx.a(txe_thread_create.o)
 .bss           0x00000000        0x0 C:\Users\khurr\e2_studio_latest\workspace\VerticalControl\synergy\ssp\src\framework\el\tx\cm4_gcc\libtx.a(txe_thread_create.o)
 .text          0x00000000        0x0 C:\Users\khurr\e2_studio_latest\workspace\VerticalControl\synergy\ssp\src\framework\el\tx\cm4_gcc\libtx.a(tx_initialize_high_level.o)
 .data          0x00000000        0x0 C:\Users\khurr\e2_studio_latest\workspace\VerticalControl\synergy\ssp\src\framework\el\tx\cm4_gcc\libtx.a(tx_initialize_high_level.o)
 .bss           0x00000000        0x0 C:\Users\khurr\e2_studio_latest\workspace\VerticalControl\synergy\ssp\src\framework\el\tx\cm4_gcc\libtx.a(tx_initialize_high_level.o)
 .text          0x00000000        0x0 C:\Users\khurr\e2_studio_latest\workspace\VerticalControl\synergy\ssp\src\framework\el\tx\cm4_gcc\libtx.a(tx_initialize_kernel_enter.o)
 .data          0x00000000        0x0 C:\Users\khurr\e2_studio_latest\workspace\VerticalControl\synergy\ssp\src\framework\el\tx\cm4_gcc\libtx.a(tx_initialize_kernel_enter.o)
 .bss           0x00000000        0x0 C:\Users\khurr\e2_studio_latest\workspace\VerticalControl\synergy\ssp\src\framework\el\tx\cm4_gcc\libtx.a(tx_initialize_kernel_enter.o)
 .text          0x00000000        0x0 C:\Users\khurr\e2_studio_latest\workspace\VerticalControl\synergy\ssp\src\framework\el\tx\cm4_gcc\libtx.a(tx_isr_end.o)
 .data          0x00000000        0x0 C:\Users\khurr\e2_studio_latest\workspace\VerticalControl\synergy\ssp\src\framework\el\tx\cm4_gcc\libtx.a(tx_isr_end.o)
 .bss           0x00000000        0x0 C:\Users\khurr\e2_studio_latest\workspace\VerticalControl\synergy\ssp\src\framework\el\tx\cm4_gcc\libtx.a(tx_isr_end.o)
 .text          0x00000000        0x0 C:\Users\khurr\e2_studio_latest\workspace\VerticalControl\synergy\ssp\src\framework\el\tx\cm4_gcc\libtx.a(tx_isr_start.o)
 .data          0x00000000        0x0 C:\Users\khurr\e2_studio_latest\workspace\VerticalControl\synergy\ssp\src\framework\el\tx\cm4_gcc\libtx.a(tx_isr_start.o)
 .bss           0x00000000        0x0 C:\Users\khurr\e2_studio_latest\workspace\VerticalControl\synergy\ssp\src\framework\el\tx\cm4_gcc\libtx.a(tx_isr_start.o)
 .text          0x00000000        0x0 C:\Users\khurr\e2_studio_latest\workspace\VerticalControl\synergy\ssp\src\framework\el\tx\cm4_gcc\libtx.a(tx_semaphore_create.o)
 .data          0x00000000        0x0 C:\Users\khurr\e2_studio_latest\workspace\VerticalControl\synergy\ssp\src\framework\el\tx\cm4_gcc\libtx.a(tx_semaphore_create.o)
 .bss           0x00000000        0x0 C:\Users\khurr\e2_studio_latest\workspace\VerticalControl\synergy\ssp\src\framework\el\tx\cm4_gcc\libtx.a(tx_semaphore_create.o)
 .text          0x00000000        0x0 C:\Users\khurr\e2_studio_latest\workspace\VerticalControl\synergy\ssp\src\framework\el\tx\cm4_gcc\libtx.a(tx_semaphore_get.o)
 .data          0x00000000        0x0 C:\Users\khurr\e2_studio_latest\workspace\VerticalControl\synergy\ssp\src\framework\el\tx\cm4_gcc\libtx.a(tx_semaphore_get.o)
 .bss           0x00000000        0x0 C:\Users\khurr\e2_studio_latest\workspace\VerticalControl\synergy\ssp\src\framework\el\tx\cm4_gcc\libtx.a(tx_semaphore_get.o)
 .text          0x00000000        0x0 C:\Users\khurr\e2_studio_latest\workspace\VerticalControl\synergy\ssp\src\framework\el\tx\cm4_gcc\libtx.a(tx_semaphore_put.o)
 .data          0x00000000        0x0 C:\Users\khurr\e2_studio_latest\workspace\VerticalControl\synergy\ssp\src\framework\el\tx\cm4_gcc\libtx.a(tx_semaphore_put.o)
 .bss           0x00000000        0x0 C:\Users\khurr\e2_studio_latest\workspace\VerticalControl\synergy\ssp\src\framework\el\tx\cm4_gcc\libtx.a(tx_semaphore_put.o)
 .text          0x00000000        0x0 C:\Users\khurr\e2_studio_latest\workspace\VerticalControl\synergy\ssp\src\framework\el\tx\cm4_gcc\libtx.a(tx_thread_create.o)
 .data          0x00000000        0x0 C:\Users\khurr\e2_studio_latest\workspace\VerticalControl\synergy\ssp\src\framework\el\tx\cm4_gcc\libtx.a(tx_thread_create.o)
 .bss           0x00000000        0x0 C:\Users\khurr\e2_studio_latest\workspace\VerticalControl\synergy\ssp\src\framework\el\tx\cm4_gcc\libtx.a(tx_thread_create.o)
 .text          0x00000000        0x0 C:\Users\khurr\e2_studio_latest\workspace\VerticalControl\synergy\ssp\src\framework\el\tx\cm4_gcc\libtx.a(tx_thread_initialize.o)
 .data          0x00000000        0x0 C:\Users\khurr\e2_studio_latest\workspace\VerticalControl\synergy\ssp\src\framework\el\tx\cm4_gcc\libtx.a(tx_thread_initialize.o)
 .bss           0x00000000        0x0 C:\Users\khurr\e2_studio_latest\workspace\VerticalControl\synergy\ssp\src\framework\el\tx\cm4_gcc\libtx.a(tx_thread_initialize.o)
 .data._tx_version_id
                0x00000000       0x65 C:\Users\khurr\e2_studio_latest\workspace\VerticalControl\synergy\ssp\src\framework\el\tx\cm4_gcc\libtx.a(tx_thread_initialize.o)
 .rodata._tx_thread_special_string
                0x00000000       0x57 C:\Users\khurr\e2_studio_latest\workspace\VerticalControl\synergy\ssp\src\framework\el\tx\cm4_gcc\libtx.a(tx_thread_initialize.o)
 .text          0x00000000        0x0 C:\Users\khurr\e2_studio_latest\workspace\VerticalControl\synergy\ssp\src\framework\el\tx\cm4_gcc\libtx.a(tx_thread_shell_entry.o)
 .data          0x00000000        0x0 C:\Users\khurr\e2_studio_latest\workspace\VerticalControl\synergy\ssp\src\framework\el\tx\cm4_gcc\libtx.a(tx_thread_shell_entry.o)
 .bss           0x00000000        0x0 C:\Users\khurr\e2_studio_latest\workspace\VerticalControl\synergy\ssp\src\framework\el\tx\cm4_gcc\libtx.a(tx_thread_shell_entry.o)
 .text          0x00000000        0x0 C:\Users\khurr\e2_studio_latest\workspace\VerticalControl\synergy\ssp\src\framework\el\tx\cm4_gcc\libtx.a(tx_thread_sleep.o)
 .data          0x00000000        0x0 C:\Users\khurr\e2_studio_latest\workspace\VerticalControl\synergy\ssp\src\framework\el\tx\cm4_gcc\libtx.a(tx_thread_sleep.o)
 .bss           0x00000000        0x0 C:\Users\khurr\e2_studio_latest\workspace\VerticalControl\synergy\ssp\src\framework\el\tx\cm4_gcc\libtx.a(tx_thread_sleep.o)
 .text          0x00000000        0x0 C:\Users\khurr\e2_studio_latest\workspace\VerticalControl\synergy\ssp\src\framework\el\tx\cm4_gcc\libtx.a(tx_thread_system_preempt_check.o)
 .data          0x00000000        0x0 C:\Users\khurr\e2_studio_latest\workspace\VerticalControl\synergy\ssp\src\framework\el\tx\cm4_gcc\libtx.a(tx_thread_system_preempt_check.o)
 .bss           0x00000000        0x0 C:\Users\khurr\e2_studio_latest\workspace\VerticalControl\synergy\ssp\src\framework\el\tx\cm4_gcc\libtx.a(tx_thread_system_preempt_check.o)
 .text          0x00000000        0x0 C:\Users\khurr\e2_studio_latest\workspace\VerticalControl\synergy\ssp\src\framework\el\tx\cm4_gcc\libtx.a(tx_thread_system_resume.o)
 .data          0x00000000        0x0 C:\Users\khurr\e2_studio_latest\workspace\VerticalControl\synergy\ssp\src\framework\el\tx\cm4_gcc\libtx.a(tx_thread_system_resume.o)
 .bss           0x00000000        0x0 C:\Users\khurr\e2_studio_latest\workspace\VerticalControl\synergy\ssp\src\framework\el\tx\cm4_gcc\libtx.a(tx_thread_system_resume.o)
 .text          0x00000000        0x0 C:\Users\khurr\e2_studio_latest\workspace\VerticalControl\synergy\ssp\src\framework\el\tx\cm4_gcc\libtx.a(tx_thread_system_suspend.o)
 .data          0x00000000        0x0 C:\Users\khurr\e2_studio_latest\workspace\VerticalControl\synergy\ssp\src\framework\el\tx\cm4_gcc\libtx.a(tx_thread_system_suspend.o)
 .bss           0x00000000        0x0 C:\Users\khurr\e2_studio_latest\workspace\VerticalControl\synergy\ssp\src\framework\el\tx\cm4_gcc\libtx.a(tx_thread_system_suspend.o)
 .text          0x00000000        0x0 C:\Users\khurr\e2_studio_latest\workspace\VerticalControl\synergy\ssp\src\framework\el\tx\cm4_gcc\libtx.a(tx_thread_timeout.o)
 .data          0x00000000        0x0 C:\Users\khurr\e2_studio_latest\workspace\VerticalControl\synergy\ssp\src\framework\el\tx\cm4_gcc\libtx.a(tx_thread_timeout.o)
 .bss           0x00000000        0x0 C:\Users\khurr\e2_studio_latest\workspace\VerticalControl\synergy\ssp\src\framework\el\tx\cm4_gcc\libtx.a(tx_thread_timeout.o)
 .text          0x00000000        0x0 C:\Users\khurr\e2_studio_latest\workspace\VerticalControl\synergy\ssp\src\framework\el\tx\cm4_gcc\libtx.a(tx_timer_initialize.o)
 .data          0x00000000        0x0 C:\Users\khurr\e2_studio_latest\workspace\VerticalControl\synergy\ssp\src\framework\el\tx\cm4_gcc\libtx.a(tx_timer_initialize.o)
 .bss           0x00000000        0x0 C:\Users\khurr\e2_studio_latest\workspace\VerticalControl\synergy\ssp\src\framework\el\tx\cm4_gcc\libtx.a(tx_timer_initialize.o)
 .text          0x00000000        0x0 C:\Users\khurr\e2_studio_latest\workspace\VerticalControl\synergy\ssp\src\framework\el\tx\cm4_gcc\libtx.a(tx_timer_system_activate.o)
 .data          0x00000000        0x0 C:\Users\khurr\e2_studio_latest\workspace\VerticalControl\synergy\ssp\src\framework\el\tx\cm4_gcc\libtx.a(tx_timer_system_activate.o)
 .bss           0x00000000        0x0 C:\Users\khurr\e2_studio_latest\workspace\VerticalControl\synergy\ssp\src\framework\el\tx\cm4_gcc\libtx.a(tx_timer_system_activate.o)
 .text          0x00000000        0x0 C:\Users\khurr\e2_studio_latest\workspace\VerticalControl\synergy\ssp\src\framework\el\tx\cm4_gcc\libtx.a(tx_timer_system_deactivate.o)
 .data          0x00000000        0x0 C:\Users\khurr\e2_studio_latest\workspace\VerticalControl\synergy\ssp\src\framework\el\tx\cm4_gcc\libtx.a(tx_timer_system_deactivate.o)
 .bss           0x00000000        0x0 C:\Users\khurr\e2_studio_latest\workspace\VerticalControl\synergy\ssp\src\framework\el\tx\cm4_gcc\libtx.a(tx_timer_system_deactivate.o)
 .text          0x00000000        0x0 C:\Users\khurr\e2_studio_latest\workspace\VerticalControl\synergy\ssp\src\framework\el\tx\cm4_gcc\libtx.a(tx_initialize_low_level.o)
 .data          0x00000000        0x0 C:\Users\khurr\e2_studio_latest\workspace\VerticalControl\synergy\ssp\src\framework\el\tx\cm4_gcc\libtx.a(tx_initialize_low_level.o)
 .bss           0x00000000        0x0 C:\Users\khurr\e2_studio_latest\workspace\VerticalControl\synergy\ssp\src\framework\el\tx\cm4_gcc\libtx.a(tx_initialize_low_level.o)
 .text          0x00000000        0x0 C:\Users\khurr\e2_studio_latest\workspace\VerticalControl\synergy\ssp\src\framework\el\tx\cm4_gcc\libtx.a(tx_thread_schedule.o)
 .data          0x00000000        0x0 C:\Users\khurr\e2_studio_latest\workspace\VerticalControl\synergy\ssp\src\framework\el\tx\cm4_gcc\libtx.a(tx_thread_schedule.o)
 .bss           0x00000000        0x0 C:\Users\khurr\e2_studio_latest\workspace\VerticalControl\synergy\ssp\src\framework\el\tx\cm4_gcc\libtx.a(tx_thread_schedule.o)
 .text          0x00000000        0x0 C:\Users\khurr\e2_studio_latest\workspace\VerticalControl\synergy\ssp\src\framework\el\tx\cm4_gcc\libtx.a(tx_thread_stack_build.o)
 .data          0x00000000        0x0 C:\Users\khurr\e2_studio_latest\workspace\VerticalControl\synergy\ssp\src\framework\el\tx\cm4_gcc\libtx.a(tx_thread_stack_build.o)
 .bss           0x00000000        0x0 C:\Users\khurr\e2_studio_latest\workspace\VerticalControl\synergy\ssp\src\framework\el\tx\cm4_gcc\libtx.a(tx_thread_stack_build.o)
 .text          0x00000000        0x0 C:\Users\khurr\e2_studio_latest\workspace\VerticalControl\synergy\ssp\src\framework\el\tx\cm4_gcc\libtx.a(tx_timer_interrupt.o)
 .data          0x00000000        0x0 C:\Users\khurr\e2_studio_latest\workspace\VerticalControl\synergy\ssp\src\framework\el\tx\cm4_gcc\libtx.a(tx_timer_interrupt.o)
 .bss           0x00000000        0x0 C:\Users\khurr\e2_studio_latest\workspace\VerticalControl\synergy\ssp\src\framework\el\tx\cm4_gcc\libtx.a(tx_timer_interrupt.o)
 .text          0x00000000        0x0 C:\Users\khurr\e2_studio_latest\workspace\VerticalControl\synergy\ssp\src\framework\el\tx\cm4_gcc\libtx.a(tx_semaphore_cleanup.o)
 .data          0x00000000        0x0 C:\Users\khurr\e2_studio_latest\workspace\VerticalControl\synergy\ssp\src\framework\el\tx\cm4_gcc\libtx.a(tx_semaphore_cleanup.o)
 .bss           0x00000000        0x0 C:\Users\khurr\e2_studio_latest\workspace\VerticalControl\synergy\ssp\src\framework\el\tx\cm4_gcc\libtx.a(tx_semaphore_cleanup.o)
 .text          0x00000000        0x0 C:\Users\khurr\e2_studio_latest\workspace\VerticalControl\synergy\ssp\src\framework\el\tx\cm4_gcc\libtx.a(tx_thread_time_slice.o)
 .data          0x00000000        0x0 C:\Users\khurr\e2_studio_latest\workspace\VerticalControl\synergy\ssp\src\framework\el\tx\cm4_gcc\libtx.a(tx_thread_time_slice.o)
 .bss           0x00000000        0x0 C:\Users\khurr\e2_studio_latest\workspace\VerticalControl\synergy\ssp\src\framework\el\tx\cm4_gcc\libtx.a(tx_thread_time_slice.o)
 .text          0x00000000        0x0 C:\Users\khurr\e2_studio_latest\workspace\VerticalControl\synergy\ssp\src\framework\el\tx\cm4_gcc\libtx.a(tx_timer_expiration_process.o)
 .data          0x00000000        0x0 C:\Users\khurr\e2_studio_latest\workspace\VerticalControl\synergy\ssp\src\framework\el\tx\cm4_gcc\libtx.a(tx_timer_expiration_process.o)
 .bss           0x00000000        0x0 C:\Users\khurr\e2_studio_latest\workspace\VerticalControl\synergy\ssp\src\framework\el\tx\cm4_gcc\libtx.a(tx_timer_expiration_process.o)
 .text          0x00000000        0x0 C:\Users\khurr\e2_studio_latest\workspace\VerticalControl\synergy\ssp\src\bsp\mcu\s5d9\libfmi_R7FS5D97E3A01CFB_gcc.a(bsp_fmi_R7FS5D97E3A01CFB.o)
 .data          0x00000000        0x0 C:\Users\khurr\e2_studio_latest\workspace\VerticalControl\synergy\ssp\src\bsp\mcu\s5d9\libfmi_R7FS5D97E3A01CFB_gcc.a(bsp_fmi_R7FS5D97E3A01CFB.o)
 .bss           0x00000000        0x0 C:\Users\khurr\e2_studio_latest\workspace\VerticalControl\synergy\ssp\src\bsp\mcu\s5d9\libfmi_R7FS5D97E3A01CFB_gcc.a(bsp_fmi_R7FS5D97E3A01CFB.o)
 .text          0x00000000       0xa0 c:/renesas/synergy/e2studio_v2022-10_ssp_v2.4.0/toolchains/gcc_arm/gcc-arm-none-eabi-10.3-2021.10/bin/../lib/gcc/arm-none-eabi/10.3.1/thumb/v7e-m+fp/hard\libgcc.a(_aeabi_ldivmod.o)
 .data          0x00000000        0x0 c:/renesas/synergy/e2studio_v2022-10_ssp_v2.4.0/toolchains/gcc_arm/gcc-arm-none-eabi-10.3-2021.10/bin/../lib/gcc/arm-none-eabi/10.3.1/thumb/v7e-m+fp/hard\libgcc.a(_aeabi_ldivmod.o)
 .bss           0x00000000        0x0 c:/renesas/synergy/e2studio_v2022-10_ssp_v2.4.0/toolchains/gcc_arm/gcc-arm-none-eabi-10.3-2021.10/bin/../lib/gcc/arm-none-eabi/10.3.1/thumb/v7e-m+fp/hard\libgcc.a(_aeabi_ldivmod.o)
 .debug_frame   0x00000000       0x44 c:/renesas/synergy/e2studio_v2022-10_ssp_v2.4.0/toolchains/gcc_arm/gcc-arm-none-eabi-10.3-2021.10/bin/../lib/gcc/arm-none-eabi/10.3.1/thumb/v7e-m+fp/hard\libgcc.a(_aeabi_ldivmod.o)
 .ARM.attributes
                0x00000000       0x1e c:/renesas/synergy/e2studio_v2022-10_ssp_v2.4.0/toolchains/gcc_arm/gcc-arm-none-eabi-10.3-2021.10/bin/../lib/gcc/arm-none-eabi/10.3.1/thumb/v7e-m+fp/hard\libgcc.a(_aeabi_ldivmod.o)
 .data          0x00000000        0x0 c:/renesas/synergy/e2studio_v2022-10_ssp_v2.4.0/toolchains/gcc_arm/gcc-arm-none-eabi-10.3-2021.10/bin/../lib/gcc/arm-none-eabi/10.3.1/thumb/v7e-m+fp/hard\libgcc.a(_aeabi_uldivmod.o)
 .bss           0x00000000        0x0 c:/renesas/synergy/e2studio_v2022-10_ssp_v2.4.0/toolchains/gcc_arm/gcc-arm-none-eabi-10.3-2021.10/bin/../lib/gcc/arm-none-eabi/10.3.1/thumb/v7e-m+fp/hard\libgcc.a(_aeabi_uldivmod.o)
 .data          0x00000000        0x0 c:/renesas/synergy/e2studio_v2022-10_ssp_v2.4.0/toolchains/gcc_arm/gcc-arm-none-eabi-10.3-2021.10/bin/../lib/gcc/arm-none-eabi/10.3.1/thumb/v7e-m+fp/hard\libgcc.a(_udivmoddi4.o)
 .bss           0x00000000        0x0 c:/renesas/synergy/e2studio_v2022-10_ssp_v2.4.0/toolchains/gcc_arm/gcc-arm-none-eabi-10.3-2021.10/bin/../lib/gcc/arm-none-eabi/10.3.1/thumb/v7e-m+fp/hard\libgcc.a(_udivmoddi4.o)
 .ARM.extab     0x00000000        0x0 c:/renesas/synergy/e2studio_v2022-10_ssp_v2.4.0/toolchains/gcc_arm/gcc-arm-none-eabi-10.3-2021.10/bin/../lib/gcc/arm-none-eabi/10.3.1/thumb/v7e-m+fp/hard\libgcc.a(_udivmoddi4.o)
 .data          0x00000000        0x0 c:/renesas/synergy/e2studio_v2022-10_ssp_v2.4.0/toolchains/gcc_arm/gcc-arm-none-eabi-10.3-2021.10/bin/../lib/gcc/arm-none-eabi/10.3.1/thumb/v7e-m+fp/hard\libgcc.a(_dvmd_tls.o)
 .bss           0x00000000        0x0 c:/renesas/synergy/e2studio_v2022-10_ssp_v2.4.0/toolchains/gcc_arm/gcc-arm-none-eabi-10.3-2021.10/bin/../lib/gcc/arm-none-eabi/10.3.1/thumb/v7e-m+fp/hard\libgcc.a(_dvmd_tls.o)
 .text          0x00000000        0x0 c:/renesas/synergy/e2studio_v2022-10_ssp_v2.4.0/toolchains/gcc_arm/gcc-arm-none-eabi-10.3-2021.10/bin/../lib/gcc/arm-none-eabi/10.3.1/../../../../arm-none-eabi/lib/thumb/v7e-m+fp/hard\libg_nano.a(lib_a-errno.o)
 .data          0x00000000        0x0 c:/renesas/synergy/e2studio_v2022-10_ssp_v2.4.0/toolchains/gcc_arm/gcc-arm-none-eabi-10.3-2021.10/bin/../lib/gcc/arm-none-eabi/10.3.1/../../../../arm-none-eabi/lib/thumb/v7e-m+fp/hard\libg_nano.a(lib_a-errno.o)
 .bss           0x00000000        0x0 c:/renesas/synergy/e2studio_v2022-10_ssp_v2.4.0/toolchains/gcc_arm/gcc-arm-none-eabi-10.3-2021.10/bin/../lib/gcc/arm-none-eabi/10.3.1/../../../../arm-none-eabi/lib/thumb/v7e-m+fp/hard\libg_nano.a(lib_a-errno.o)
 .text          0x00000000        0x0 c:/renesas/synergy/e2studio_v2022-10_ssp_v2.4.0/toolchains/gcc_arm/gcc-arm-none-eabi-10.3-2021.10/bin/../lib/gcc/arm-none-eabi/10.3.1/../../../../arm-none-eabi/lib/thumb/v7e-m+fp/hard\libg_nano.a(lib_a-exit.o)
 .data          0x00000000        0x0 c:/renesas/synergy/e2studio_v2022-10_ssp_v2.4.0/toolchains/gcc_arm/gcc-arm-none-eabi-10.3-2021.10/bin/../lib/gcc/arm-none-eabi/10.3.1/../../../../arm-none-eabi/lib/thumb/v7e-m+fp/hard\libg_nano.a(lib_a-exit.o)
 .bss           0x00000000        0x0 c:/renesas/synergy/e2studio_v2022-10_ssp_v2.4.0/toolchains/gcc_arm/gcc-arm-none-eabi-10.3-2021.10/bin/../lib/gcc/arm-none-eabi/10.3.1/../../../../arm-none-eabi/lib/thumb/v7e-m+fp/hard\libg_nano.a(lib_a-exit.o)
 .text.exit     0x00000000       0x28 c:/renesas/synergy/e2studio_v2022-10_ssp_v2.4.0/toolchains/gcc_arm/gcc-arm-none-eabi-10.3-2021.10/bin/../lib/gcc/arm-none-eabi/10.3.1/../../../../arm-none-eabi/lib/thumb/v7e-m+fp/hard\libg_nano.a(lib_a-exit.o)
 .debug_frame   0x00000000       0x28 c:/renesas/synergy/e2studio_v2022-10_ssp_v2.4.0/toolchains/gcc_arm/gcc-arm-none-eabi-10.3-2021.10/bin/../lib/gcc/arm-none-eabi/10.3.1/../../../../arm-none-eabi/lib/thumb/v7e-m+fp/hard\libg_nano.a(lib_a-exit.o)
 .ARM.attributes
                0x00000000       0x34 c:/renesas/synergy/e2studio_v2022-10_ssp_v2.4.0/toolchains/gcc_arm/gcc-arm-none-eabi-10.3-2021.10/bin/../lib/gcc/arm-none-eabi/10.3.1/../../../../arm-none-eabi/lib/thumb/v7e-m+fp/hard\libg_nano.a(lib_a-exit.o)
 .text          0x00000000        0x0 c:/renesas/synergy/e2studio_v2022-10_ssp_v2.4.0/toolchains/gcc_arm/gcc-arm-none-eabi-10.3-2021.10/bin/../lib/gcc/arm-none-eabi/10.3.1/../../../../arm-none-eabi/lib/thumb/v7e-m+fp/hard\libg_nano.a(lib_a-impure.o)
 .data          0x00000000        0x0 c:/renesas/synergy/e2studio_v2022-10_ssp_v2.4.0/toolchains/gcc_arm/gcc-arm-none-eabi-10.3-2021.10/bin/../lib/gcc/arm-none-eabi/10.3.1/../../../../arm-none-eabi/lib/thumb/v7e-m+fp/hard\libg_nano.a(lib_a-impure.o)
 .bss           0x00000000        0x0 c:/renesas/synergy/e2studio_v2022-10_ssp_v2.4.0/toolchains/gcc_arm/gcc-arm-none-eabi-10.3-2021.10/bin/../lib/gcc/arm-none-eabi/10.3.1/../../../../arm-none-eabi/lib/thumb/v7e-m+fp/hard\libg_nano.a(lib_a-impure.o)
 .text          0x00000000        0x0 c:/renesas/synergy/e2studio_v2022-10_ssp_v2.4.0/toolchains/gcc_arm/gcc-arm-none-eabi-10.3-2021.10/bin/../lib/gcc/arm-none-eabi/10.3.1/../../../../arm-none-eabi/lib/thumb/v7e-m+fp/hard\libg_nano.a(lib_a-init.o)
 .data          0x00000000        0x0 c:/renesas/synergy/e2studio_v2022-10_ssp_v2.4.0/toolchains/gcc_arm/gcc-arm-none-eabi-10.3-2021.10/bin/../lib/gcc/arm-none-eabi/10.3.1/../../../../arm-none-eabi/lib/thumb/v7e-m+fp/hard\libg_nano.a(lib_a-init.o)
 .bss           0x00000000        0x0 c:/renesas/synergy/e2studio_v2022-10_ssp_v2.4.0/toolchains/gcc_arm/gcc-arm-none-eabi-10.3-2021.10/bin/../lib/gcc/arm-none-eabi/10.3.1/../../../../arm-none-eabi/lib/thumb/v7e-m+fp/hard\libg_nano.a(lib_a-init.o)
 .text.__libc_init_array
                0x00000000       0x48 c:/renesas/synergy/e2studio_v2022-10_ssp_v2.4.0/toolchains/gcc_arm/gcc-arm-none-eabi-10.3-2021.10/bin/../lib/gcc/arm-none-eabi/10.3.1/../../../../arm-none-eabi/lib/thumb/v7e-m+fp/hard\libg_nano.a(lib_a-init.o)
 .debug_frame   0x00000000       0x2c c:/renesas/synergy/e2studio_v2022-10_ssp_v2.4.0/toolchains/gcc_arm/gcc-arm-none-eabi-10.3-2021.10/bin/../lib/gcc/arm-none-eabi/10.3.1/../../../../arm-none-eabi/lib/thumb/v7e-m+fp/hard\libg_nano.a(lib_a-init.o)
 .ARM.attributes
                0x00000000       0x34 c:/renesas/synergy/e2studio_v2022-10_ssp_v2.4.0/toolchains/gcc_arm/gcc-arm-none-eabi-10.3-2021.10/bin/../lib/gcc/arm-none-eabi/10.3.1/../../../../arm-none-eabi/lib/thumb/v7e-m+fp/hard\libg_nano.a(lib_a-init.o)
 .text          0x00000000        0x0 c:/renesas/synergy/e2studio_v2022-10_ssp_v2.4.0/toolchains/gcc_arm/gcc-arm-none-eabi-10.3-2021.10/bin/../lib/gcc/arm-none-eabi/10.3.1/../../../../arm-none-eabi/lib/thumb/v7e-m+fp/hard\libg_nano.a(lib_a-memcpy-stub.o)
 .data          0x00000000        0x0 c:/renesas/synergy/e2studio_v2022-10_ssp_v2.4.0/toolchains/gcc_arm/gcc-arm-none-eabi-10.3-2021.10/bin/../lib/gcc/arm-none-eabi/10.3.1/../../../../arm-none-eabi/lib/thumb/v7e-m+fp/hard\libg_nano.a(lib_a-memcpy-stub.o)
 .bss           0x00000000        0x0 c:/renesas/synergy/e2studio_v2022-10_ssp_v2.4.0/toolchains/gcc_arm/gcc-arm-none-eabi-10.3-2021.10/bin/../lib/gcc/arm-none-eabi/10.3.1/../../../../arm-none-eabi/lib/thumb/v7e-m+fp/hard\libg_nano.a(lib_a-memcpy-stub.o)
 .text          0x00000000        0x0 c:/renesas/synergy/e2studio_v2022-10_ssp_v2.4.0/toolchains/gcc_arm/gcc-arm-none-eabi-10.3-2021.10/bin/../lib/gcc/arm-none-eabi/10.3.1/../../../../arm-none-eabi/lib/thumb/v7e-m+fp/hard\libg_nano.a(lib_a-memset.o)
 .data          0x00000000        0x0 c:/renesas/synergy/e2studio_v2022-10_ssp_v2.4.0/toolchains/gcc_arm/gcc-arm-none-eabi-10.3-2021.10/bin/../lib/gcc/arm-none-eabi/10.3.1/../../../../arm-none-eabi/lib/thumb/v7e-m+fp/hard\libg_nano.a(lib_a-memset.o)
 .bss           0x00000000        0x0 c:/renesas/synergy/e2studio_v2022-10_ssp_v2.4.0/toolchains/gcc_arm/gcc-arm-none-eabi-10.3-2021.10/bin/../lib/gcc/arm-none-eabi/10.3.1/../../../../arm-none-eabi/lib/thumb/v7e-m+fp/hard\libg_nano.a(lib_a-memset.o)
 .text          0x00000000        0x0 c:/renesas/synergy/e2studio_v2022-10_ssp_v2.4.0/toolchains/gcc_arm/gcc-arm-none-eabi-10.3-2021.10/bin/../lib/gcc/arm-none-eabi/10.3.1/../../../../arm-none-eabi/lib/thumb/v7e-m+fp/hard\libg_nano.a(lib_a-rand.o)
 .data          0x00000000        0x0 c:/renesas/synergy/e2studio_v2022-10_ssp_v2.4.0/toolchains/gcc_arm/gcc-arm-none-eabi-10.3-2021.10/bin/../lib/gcc/arm-none-eabi/10.3.1/../../../../arm-none-eabi/lib/thumb/v7e-m+fp/hard\libg_nano.a(lib_a-rand.o)
 .bss           0x00000000        0x0 c:/renesas/synergy/e2studio_v2022-10_ssp_v2.4.0/toolchains/gcc_arm/gcc-arm-none-eabi-10.3-2021.10/bin/../lib/gcc/arm-none-eabi/10.3.1/../../../../arm-none-eabi/lib/thumb/v7e-m+fp/hard\libg_nano.a(lib_a-rand.o)
 .text.rand     0x00000000       0x7c c:/renesas/synergy/e2studio_v2022-10_ssp_v2.4.0/toolchains/gcc_arm/gcc-arm-none-eabi-10.3-2021.10/bin/../lib/gcc/arm-none-eabi/10.3.1/../../../../arm-none-eabi/lib/thumb/v7e-m+fp/hard\libg_nano.a(lib_a-rand.o)
 .text          0x00000000        0x0 c:/renesas/synergy/e2studio_v2022-10_ssp_v2.4.0/toolchains/gcc_arm/gcc-arm-none-eabi-10.3-2021.10/bin/../lib/gcc/arm-none-eabi/10.3.1/../../../../arm-none-eabi/lib/thumb/v7e-m+fp/hard\libg_nano.a(lib_a-assert.o)
 .data          0x00000000        0x0 c:/renesas/synergy/e2studio_v2022-10_ssp_v2.4.0/toolchains/gcc_arm/gcc-arm-none-eabi-10.3-2021.10/bin/../lib/gcc/arm-none-eabi/10.3.1/../../../../arm-none-eabi/lib/thumb/v7e-m+fp/hard\libg_nano.a(lib_a-assert.o)
 .bss           0x00000000        0x0 c:/renesas/synergy/e2studio_v2022-10_ssp_v2.4.0/toolchains/gcc_arm/gcc-arm-none-eabi-10.3-2021.10/bin/../lib/gcc/arm-none-eabi/10.3.1/../../../../arm-none-eabi/lib/thumb/v7e-m+fp/hard\libg_nano.a(lib_a-assert.o)
 .text.__assert
                0x00000000        0xa c:/renesas/synergy/e2studio_v2022-10_ssp_v2.4.0/toolchains/gcc_arm/gcc-arm-none-eabi-10.3-2021.10/bin/../lib/gcc/arm-none-eabi/10.3.1/../../../../arm-none-eabi/lib/thumb/v7e-m+fp/hard\libg_nano.a(lib_a-assert.o)
 .text          0x00000000        0x0 c:/renesas/synergy/e2studio_v2022-10_ssp_v2.4.0/toolchains/gcc_arm/gcc-arm-none-eabi-10.3-2021.10/bin/../lib/gcc/arm-none-eabi/10.3.1/../../../../arm-none-eabi/lib/thumb/v7e-m+fp/hard\libg_nano.a(lib_a-fprintf.o)
 .data          0x00000000        0x0 c:/renesas/synergy/e2studio_v2022-10_ssp_v2.4.0/toolchains/gcc_arm/gcc-arm-none-eabi-10.3-2021.10/bin/../lib/gcc/arm-none-eabi/10.3.1/../../../../arm-none-eabi/lib/thumb/v7e-m+fp/hard\libg_nano.a(lib_a-fprintf.o)
 .bss           0x00000000        0x0 c:/renesas/synergy/e2studio_v2022-10_ssp_v2.4.0/toolchains/gcc_arm/gcc-arm-none-eabi-10.3-2021.10/bin/../lib/gcc/arm-none-eabi/10.3.1/../../../../arm-none-eabi/lib/thumb/v7e-m+fp/hard\libg_nano.a(lib_a-fprintf.o)
 .text._fprintf_r
                0x00000000       0x1a c:/renesas/synergy/e2studio_v2022-10_ssp_v2.4.0/toolchains/gcc_arm/gcc-arm-none-eabi-10.3-2021.10/bin/../lib/gcc/arm-none-eabi/10.3.1/../../../../arm-none-eabi/lib/thumb/v7e-m+fp/hard\libg_nano.a(lib_a-fprintf.o)
 .text          0x00000000        0x0 c:/renesas/synergy/e2studio_v2022-10_ssp_v2.4.0/toolchains/gcc_arm/gcc-arm-none-eabi-10.3-2021.10/bin/../lib/gcc/arm-none-eabi/10.3.1/../../../../arm-none-eabi/lib/thumb/v7e-m+fp/hard\libg_nano.a(lib_a-malloc.o)
 .data          0x00000000        0x0 c:/renesas/synergy/e2studio_v2022-10_ssp_v2.4.0/toolchains/gcc_arm/gcc-arm-none-eabi-10.3-2021.10/bin/../lib/gcc/arm-none-eabi/10.3.1/../../../../arm-none-eabi/lib/thumb/v7e-m+fp/hard\libg_nano.a(lib_a-malloc.o)
 .bss           0x00000000        0x0 c:/renesas/synergy/e2studio_v2022-10_ssp_v2.4.0/toolchains/gcc_arm/gcc-arm-none-eabi-10.3-2021.10/bin/../lib/gcc/arm-none-eabi/10.3.1/../../../../arm-none-eabi/lib/thumb/v7e-m+fp/hard\libg_nano.a(lib_a-malloc.o)
 .text.free     0x00000000       0x10 c:/renesas/synergy/e2studio_v2022-10_ssp_v2.4.0/toolchains/gcc_arm/gcc-arm-none-eabi-10.3-2021.10/bin/../lib/gcc/arm-none-eabi/10.3.1/../../../../arm-none-eabi/lib/thumb/v7e-m+fp/hard\libg_nano.a(lib_a-malloc.o)
 .text          0x00000000        0x0 c:/renesas/synergy/e2studio_v2022-10_ssp_v2.4.0/toolchains/gcc_arm/gcc-arm-none-eabi-10.3-2021.10/bin/../lib/gcc/arm-none-eabi/10.3.1/../../../../arm-none-eabi/lib/thumb/v7e-m+fp/hard\libg_nano.a(lib_a-nano-freer.o)
 .data          0x00000000        0x0 c:/renesas/synergy/e2studio_v2022-10_ssp_v2.4.0/toolchains/gcc_arm/gcc-arm-none-eabi-10.3-2021.10/bin/../lib/gcc/arm-none-eabi/10.3.1/../../../../arm-none-eabi/lib/thumb/v7e-m+fp/hard\libg_nano.a(lib_a-nano-freer.o)
 .bss           0x00000000        0x0 c:/renesas/synergy/e2studio_v2022-10_ssp_v2.4.0/toolchains/gcc_arm/gcc-arm-none-eabi-10.3-2021.10/bin/../lib/gcc/arm-none-eabi/10.3.1/../../../../arm-none-eabi/lib/thumb/v7e-m+fp/hard\libg_nano.a(lib_a-nano-freer.o)
 .text          0x00000000        0x0 c:/renesas/synergy/e2studio_v2022-10_ssp_v2.4.0/toolchains/gcc_arm/gcc-arm-none-eabi-10.3-2021.10/bin/../lib/gcc/arm-none-eabi/10.3.1/../../../../arm-none-eabi/lib/thumb/v7e-m+fp/hard\libg_nano.a(lib_a-nano-mallocr.o)
 .data          0x00000000        0x0 c:/renesas/synergy/e2studio_v2022-10_ssp_v2.4.0/toolchains/gcc_arm/gcc-arm-none-eabi-10.3-2021.10/bin/../lib/gcc/arm-none-eabi/10.3.1/../../../../arm-none-eabi/lib/thumb/v7e-m+fp/hard\libg_nano.a(lib_a-nano-mallocr.o)
 .bss           0x00000000        0x0 c:/renesas/synergy/e2studio_v2022-10_ssp_v2.4.0/toolchains/gcc_arm/gcc-arm-none-eabi-10.3-2021.10/bin/../lib/gcc/arm-none-eabi/10.3.1/../../../../arm-none-eabi/lib/thumb/v7e-m+fp/hard\libg_nano.a(lib_a-nano-mallocr.o)
 .text          0x00000000        0x0 c:/renesas/synergy/e2studio_v2022-10_ssp_v2.4.0/toolchains/gcc_arm/gcc-arm-none-eabi-10.3-2021.10/bin/../lib/gcc/arm-none-eabi/10.3.1/../../../../arm-none-eabi/lib/thumb/v7e-m+fp/hard\libg_nano.a(lib_a-nano-vfprintf.o)
 .data          0x00000000        0x0 c:/renesas/synergy/e2studio_v2022-10_ssp_v2.4.0/toolchains/gcc_arm/gcc-arm-none-eabi-10.3-2021.10/bin/../lib/gcc/arm-none-eabi/10.3.1/../../../../arm-none-eabi/lib/thumb/v7e-m+fp/hard\libg_nano.a(lib_a-nano-vfprintf.o)
 .bss           0x00000000        0x0 c:/renesas/synergy/e2studio_v2022-10_ssp_v2.4.0/toolchains/gcc_arm/gcc-arm-none-eabi-10.3-2021.10/bin/../lib/gcc/arm-none-eabi/10.3.1/../../../../arm-none-eabi/lib/thumb/v7e-m+fp/hard\libg_nano.a(lib_a-nano-vfprintf.o)
 .text.__sprint_r
                0x00000000       0x1a c:/renesas/synergy/e2studio_v2022-10_ssp_v2.4.0/toolchains/gcc_arm/gcc-arm-none-eabi-10.3-2021.10/bin/../lib/gcc/arm-none-eabi/10.3.1/../../../../arm-none-eabi/lib/thumb/v7e-m+fp/hard\libg_nano.a(lib_a-nano-vfprintf.o)
 .text.vfprintf
                0x00000000       0x14 c:/renesas/synergy/e2studio_v2022-10_ssp_v2.4.0/toolchains/gcc_arm/gcc-arm-none-eabi-10.3-2021.10/bin/../lib/gcc/arm-none-eabi/10.3.1/../../../../arm-none-eabi/lib/thumb/v7e-m+fp/hard\libg_nano.a(lib_a-nano-vfprintf.o)
 .text          0x00000000        0x0 c:/renesas/synergy/e2studio_v2022-10_ssp_v2.4.0/toolchains/gcc_arm/gcc-arm-none-eabi-10.3-2021.10/bin/../lib/gcc/arm-none-eabi/10.3.1/../../../../arm-none-eabi/lib/thumb/v7e-m+fp/hard\libg_nano.a(lib_a-nano-vfprintf_i.o)
 .data          0x00000000        0x0 c:/renesas/synergy/e2studio_v2022-10_ssp_v2.4.0/toolchains/gcc_arm/gcc-arm-none-eabi-10.3-2021.10/bin/../lib/gcc/arm-none-eabi/10.3.1/../../../../arm-none-eabi/lib/thumb/v7e-m+fp/hard\libg_nano.a(lib_a-nano-vfprintf_i.o)
 .bss           0x00000000        0x0 c:/renesas/synergy/e2studio_v2022-10_ssp_v2.4.0/toolchains/gcc_arm/gcc-arm-none-eabi-10.3-2021.10/bin/../lib/gcc/arm-none-eabi/10.3.1/../../../../arm-none-eabi/lib/thumb/v7e-m+fp/hard\libg_nano.a(lib_a-nano-vfprintf_i.o)
 .text          0x00000000        0x0 c:/renesas/synergy/e2studio_v2022-10_ssp_v2.4.0/toolchains/gcc_arm/gcc-arm-none-eabi-10.3-2021.10/bin/../lib/gcc/arm-none-eabi/10.3.1/../../../../arm-none-eabi/lib/thumb/v7e-m+fp/hard\libg_nano.a(lib_a-sbrkr.o)
 .data          0x00000000        0x0 c:/renesas/synergy/e2studio_v2022-10_ssp_v2.4.0/toolchains/gcc_arm/gcc-arm-none-eabi-10.3-2021.10/bin/../lib/gcc/arm-none-eabi/10.3.1/../../../../arm-none-eabi/lib/thumb/v7e-m+fp/hard\libg_nano.a(lib_a-sbrkr.o)
 .bss           0x00000000        0x0 c:/renesas/synergy/e2studio_v2022-10_ssp_v2.4.0/toolchains/gcc_arm/gcc-arm-none-eabi-10.3-2021.10/bin/../lib/gcc/arm-none-eabi/10.3.1/../../../../arm-none-eabi/lib/thumb/v7e-m+fp/hard\libg_nano.a(lib_a-sbrkr.o)
 .text          0x00000000        0x0 c:/renesas/synergy/e2studio_v2022-10_ssp_v2.4.0/toolchains/gcc_arm/gcc-arm-none-eabi-10.3-2021.10/bin/../lib/gcc/arm-none-eabi/10.3.1/../../../../arm-none-eabi/lib/thumb/v7e-m+fp/hard\libg_nano.a(lib_a-wbuf.o)
 .data          0x00000000        0x0 c:/renesas/synergy/e2studio_v2022-10_ssp_v2.4.0/toolchains/gcc_arm/gcc-arm-none-eabi-10.3-2021.10/bin/../lib/gcc/arm-none-eabi/10.3.1/../../../../arm-none-eabi/lib/thumb/v7e-m+fp/hard\libg_nano.a(lib_a-wbuf.o)
 .bss           0x00000000        0x0 c:/renesas/synergy/e2studio_v2022-10_ssp_v2.4.0/toolchains/gcc_arm/gcc-arm-none-eabi-10.3-2021.10/bin/../lib/gcc/arm-none-eabi/10.3.1/../../../../arm-none-eabi/lib/thumb/v7e-m+fp/hard\libg_nano.a(lib_a-wbuf.o)
 .text.__swbuf  0x00000000       0x10 c:/renesas/synergy/e2studio_v2022-10_ssp_v2.4.0/toolchains/gcc_arm/gcc-arm-none-eabi-10.3-2021.10/bin/../lib/gcc/arm-none-eabi/10.3.1/../../../../arm-none-eabi/lib/thumb/v7e-m+fp/hard\libg_nano.a(lib_a-wbuf.o)
 .text          0x00000000        0x0 c:/renesas/synergy/e2studio_v2022-10_ssp_v2.4.0/toolchains/gcc_arm/gcc-arm-none-eabi-10.3-2021.10/bin/../lib/gcc/arm-none-eabi/10.3.1/../../../../arm-none-eabi/lib/thumb/v7e-m+fp/hard\libg_nano.a(lib_a-wsetup.o)
 .data          0x00000000        0x0 c:/renesas/synergy/e2studio_v2022-10_ssp_v2.4.0/toolchains/gcc_arm/gcc-arm-none-eabi-10.3-2021.10/bin/../lib/gcc/arm-none-eabi/10.3.1/../../../../arm-none-eabi/lib/thumb/v7e-m+fp/hard\libg_nano.a(lib_a-wsetup.o)
 .bss           0x00000000        0x0 c:/renesas/synergy/e2studio_v2022-10_ssp_v2.4.0/toolchains/gcc_arm/gcc-arm-none-eabi-10.3-2021.10/bin/../lib/gcc/arm-none-eabi/10.3.1/../../../../arm-none-eabi/lib/thumb/v7e-m+fp/hard\libg_nano.a(lib_a-wsetup.o)
 .text          0x00000000        0x0 c:/renesas/synergy/e2studio_v2022-10_ssp_v2.4.0/toolchains/gcc_arm/gcc-arm-none-eabi-10.3-2021.10/bin/../lib/gcc/arm-none-eabi/10.3.1/../../../../arm-none-eabi/lib/thumb/v7e-m+fp/hard\libg_nano.a(lib_a-abort.o)
 .data          0x00000000        0x0 c:/renesas/synergy/e2studio_v2022-10_ssp_v2.4.0/toolchains/gcc_arm/gcc-arm-none-eabi-10.3-2021.10/bin/../lib/gcc/arm-none-eabi/10.3.1/../../../../arm-none-eabi/lib/thumb/v7e-m+fp/hard\libg_nano.a(lib_a-abort.o)
 .bss           0x00000000        0x0 c:/renesas/synergy/e2studio_v2022-10_ssp_v2.4.0/toolchains/gcc_arm/gcc-arm-none-eabi-10.3-2021.10/bin/../lib/gcc/arm-none-eabi/10.3.1/../../../../arm-none-eabi/lib/thumb/v7e-m+fp/hard\libg_nano.a(lib_a-abort.o)
 .text          0x00000000        0x0 c:/renesas/synergy/e2studio_v2022-10_ssp_v2.4.0/toolchains/gcc_arm/gcc-arm-none-eabi-10.3-2021.10/bin/../lib/gcc/arm-none-eabi/10.3.1/../../../../arm-none-eabi/lib/thumb/v7e-m+fp/hard\libg_nano.a(lib_a-fflush.o)
 .data          0x00000000        0x0 c:/renesas/synergy/e2studio_v2022-10_ssp_v2.4.0/toolchains/gcc_arm/gcc-arm-none-eabi-10.3-2021.10/bin/../lib/gcc/arm-none-eabi/10.3.1/../../../../arm-none-eabi/lib/thumb/v7e-m+fp/hard\libg_nano.a(lib_a-fflush.o)
 .bss           0x00000000        0x0 c:/renesas/synergy/e2studio_v2022-10_ssp_v2.4.0/toolchains/gcc_arm/gcc-arm-none-eabi-10.3-2021.10/bin/../lib/gcc/arm-none-eabi/10.3.1/../../../../arm-none-eabi/lib/thumb/v7e-m+fp/hard\libg_nano.a(lib_a-fflush.o)
 .text.fflush   0x00000000       0x24 c:/renesas/synergy/e2studio_v2022-10_ssp_v2.4.0/toolchains/gcc_arm/gcc-arm-none-eabi-10.3-2021.10/bin/../lib/gcc/arm-none-eabi/10.3.1/../../../../arm-none-eabi/lib/thumb/v7e-m+fp/hard\libg_nano.a(lib_a-fflush.o)
 .text          0x00000000        0x0 c:/renesas/synergy/e2studio_v2022-10_ssp_v2.4.0/toolchains/gcc_arm/gcc-arm-none-eabi-10.3-2021.10/bin/../lib/gcc/arm-none-eabi/10.3.1/../../../../arm-none-eabi/lib/thumb/v7e-m+fp/hard\libg_nano.a(lib_a-findfp.o)
 .data          0x00000000        0x0 c:/renesas/synergy/e2studio_v2022-10_ssp_v2.4.0/toolchains/gcc_arm/gcc-arm-none-eabi-10.3-2021.10/bin/../lib/gcc/arm-none-eabi/10.3.1/../../../../arm-none-eabi/lib/thumb/v7e-m+fp/hard\libg_nano.a(lib_a-findfp.o)
 .bss           0x00000000        0x0 c:/renesas/synergy/e2studio_v2022-10_ssp_v2.4.0/toolchains/gcc_arm/gcc-arm-none-eabi-10.3-2021.10/bin/../lib/gcc/arm-none-eabi/10.3.1/../../../../arm-none-eabi/lib/thumb/v7e-m+fp/hard\libg_nano.a(lib_a-findfp.o)
 .text.__fp_lock
                0x00000000       0x18 c:/renesas/synergy/e2studio_v2022-10_ssp_v2.4.0/toolchains/gcc_arm/gcc-arm-none-eabi-10.3-2021.10/bin/../lib/gcc/arm-none-eabi/10.3.1/../../../../arm-none-eabi/lib/thumb/v7e-m+fp/hard\libg_nano.a(lib_a-findfp.o)
 .text.__fp_unlock
                0x00000000       0x18 c:/renesas/synergy/e2studio_v2022-10_ssp_v2.4.0/toolchains/gcc_arm/gcc-arm-none-eabi-10.3-2021.10/bin/../lib/gcc/arm-none-eabi/10.3.1/../../../../arm-none-eabi/lib/thumb/v7e-m+fp/hard\libg_nano.a(lib_a-findfp.o)
 .text._cleanup
                0x00000000        0xc c:/renesas/synergy/e2studio_v2022-10_ssp_v2.4.0/toolchains/gcc_arm/gcc-arm-none-eabi-10.3-2021.10/bin/../lib/gcc/arm-none-eabi/10.3.1/../../../../arm-none-eabi/lib/thumb/v7e-m+fp/hard\libg_nano.a(lib_a-findfp.o)
 .text.__fp_lock_all
                0x00000000       0x1c c:/renesas/synergy/e2studio_v2022-10_ssp_v2.4.0/toolchains/gcc_arm/gcc-arm-none-eabi-10.3-2021.10/bin/../lib/gcc/arm-none-eabi/10.3.1/../../../../arm-none-eabi/lib/thumb/v7e-m+fp/hard\libg_nano.a(lib_a-findfp.o)
 .text.__fp_unlock_all
                0x00000000       0x1c c:/renesas/synergy/e2studio_v2022-10_ssp_v2.4.0/toolchains/gcc_arm/gcc-arm-none-eabi-10.3-2021.10/bin/../lib/gcc/arm-none-eabi/10.3.1/../../../../arm-none-eabi/lib/thumb/v7e-m+fp/hard\libg_nano.a(lib_a-findfp.o)
 .text          0x00000000        0x0 c:/renesas/synergy/e2studio_v2022-10_ssp_v2.4.0/toolchains/gcc_arm/gcc-arm-none-eabi-10.3-2021.10/bin/../lib/gcc/arm-none-eabi/10.3.1/../../../../arm-none-eabi/lib/thumb/v7e-m+fp/hard\libg_nano.a(lib_a-fvwrite.o)
 .data          0x00000000        0x0 c:/renesas/synergy/e2studio_v2022-10_ssp_v2.4.0/toolchains/gcc_arm/gcc-arm-none-eabi-10.3-2021.10/bin/../lib/gcc/arm-none-eabi/10.3.1/../../../../arm-none-eabi/lib/thumb/v7e-m+fp/hard\libg_nano.a(lib_a-fvwrite.o)
 .bss           0x00000000        0x0 c:/renesas/synergy/e2studio_v2022-10_ssp_v2.4.0/toolchains/gcc_arm/gcc-arm-none-eabi-10.3-2021.10/bin/../lib/gcc/arm-none-eabi/10.3.1/../../../../arm-none-eabi/lib/thumb/v7e-m+fp/hard\libg_nano.a(lib_a-fvwrite.o)
 .text.__sfvwrite_r
                0x00000000      0x294 c:/renesas/synergy/e2studio_v2022-10_ssp_v2.4.0/toolchains/gcc_arm/gcc-arm-none-eabi-10.3-2021.10/bin/../lib/gcc/arm-none-eabi/10.3.1/../../../../arm-none-eabi/lib/thumb/v7e-m+fp/hard\libg_nano.a(lib_a-fvwrite.o)
 .debug_frame   0x00000000       0x3c c:/renesas/synergy/e2studio_v2022-10_ssp_v2.4.0/toolchains/gcc_arm/gcc-arm-none-eabi-10.3-2021.10/bin/../lib/gcc/arm-none-eabi/10.3.1/../../../../arm-none-eabi/lib/thumb/v7e-m+fp/hard\libg_nano.a(lib_a-fvwrite.o)
 .ARM.attributes
                0x00000000       0x34 c:/renesas/synergy/e2studio_v2022-10_ssp_v2.4.0/toolchains/gcc_arm/gcc-arm-none-eabi-10.3-2021.10/bin/../lib/gcc/arm-none-eabi/10.3.1/../../../../arm-none-eabi/lib/thumb/v7e-m+fp/hard\libg_nano.a(lib_a-fvwrite.o)
 .text          0x00000000        0x0 c:/renesas/synergy/e2studio_v2022-10_ssp_v2.4.0/toolchains/gcc_arm/gcc-arm-none-eabi-10.3-2021.10/bin/../lib/gcc/arm-none-eabi/10.3.1/../../../../arm-none-eabi/lib/thumb/v7e-m+fp/hard\libg_nano.a(lib_a-fwalk.o)
 .data          0x00000000        0x0 c:/renesas/synergy/e2studio_v2022-10_ssp_v2.4.0/toolchains/gcc_arm/gcc-arm-none-eabi-10.3-2021.10/bin/../lib/gcc/arm-none-eabi/10.3.1/../../../../arm-none-eabi/lib/thumb/v7e-m+fp/hard\libg_nano.a(lib_a-fwalk.o)
 .bss           0x00000000        0x0 c:/renesas/synergy/e2studio_v2022-10_ssp_v2.4.0/toolchains/gcc_arm/gcc-arm-none-eabi-10.3-2021.10/bin/../lib/gcc/arm-none-eabi/10.3.1/../../../../arm-none-eabi/lib/thumb/v7e-m+fp/hard\libg_nano.a(lib_a-fwalk.o)
 .text._fwalk   0x00000000       0x3a c:/renesas/synergy/e2studio_v2022-10_ssp_v2.4.0/toolchains/gcc_arm/gcc-arm-none-eabi-10.3-2021.10/bin/../lib/gcc/arm-none-eabi/10.3.1/../../../../arm-none-eabi/lib/thumb/v7e-m+fp/hard\libg_nano.a(lib_a-fwalk.o)
 .text          0x00000000        0x0 c:/renesas/synergy/e2studio_v2022-10_ssp_v2.4.0/toolchains/gcc_arm/gcc-arm-none-eabi-10.3-2021.10/bin/../lib/gcc/arm-none-eabi/10.3.1/../../../../arm-none-eabi/lib/thumb/v7e-m+fp/hard\libg_nano.a(lib_a-lock.o)
 .data          0x00000000        0x0 c:/renesas/synergy/e2studio_v2022-10_ssp_v2.4.0/toolchains/gcc_arm/gcc-arm-none-eabi-10.3-2021.10/bin/../lib/gcc/arm-none-eabi/10.3.1/../../../../arm-none-eabi/lib/thumb/v7e-m+fp/hard\libg_nano.a(lib_a-lock.o)
 .bss           0x00000000        0x0 c:/renesas/synergy/e2studio_v2022-10_ssp_v2.4.0/toolchains/gcc_arm/gcc-arm-none-eabi-10.3-2021.10/bin/../lib/gcc/arm-none-eabi/10.3.1/../../../../arm-none-eabi/lib/thumb/v7e-m+fp/hard\libg_nano.a(lib_a-lock.o)
 .text.__retarget_lock_init
                0x00000000        0x2 c:/renesas/synergy/e2studio_v2022-10_ssp_v2.4.0/toolchains/gcc_arm/gcc-arm-none-eabi-10.3-2021.10/bin/../lib/gcc/arm-none-eabi/10.3.1/../../../../arm-none-eabi/lib/thumb/v7e-m+fp/hard\libg_nano.a(lib_a-lock.o)
 .text.__retarget_lock_close
                0x00000000        0x2 c:/renesas/synergy/e2studio_v2022-10_ssp_v2.4.0/toolchains/gcc_arm/gcc-arm-none-eabi-10.3-2021.10/bin/../lib/gcc/arm-none-eabi/10.3.1/../../../../arm-none-eabi/lib/thumb/v7e-m+fp/hard\libg_nano.a(lib_a-lock.o)
 .text.__retarget_lock_close_recursive
                0x00000000        0x2 c:/renesas/synergy/e2studio_v2022-10_ssp_v2.4.0/toolchains/gcc_arm/gcc-arm-none-eabi-10.3-2021.10/bin/../lib/gcc/arm-none-eabi/10.3.1/../../../../arm-none-eabi/lib/thumb/v7e-m+fp/hard\libg_nano.a(lib_a-lock.o)
 .text.__retarget_lock_acquire
                0x00000000        0x2 c:/renesas/synergy/e2studio_v2022-10_ssp_v2.4.0/toolchains/gcc_arm/gcc-arm-none-eabi-10.3-2021.10/bin/../lib/gcc/arm-none-eabi/10.3.1/../../../../arm-none-eabi/lib/thumb/v7e-m+fp/hard\libg_nano.a(lib_a-lock.o)
 .text.__retarget_lock_try_acquire
                0x00000000        0x4 c:/renesas/synergy/e2studio_v2022-10_ssp_v2.4.0/toolchains/gcc_arm/gcc-arm-none-eabi-10.3-2021.10/bin/../lib/gcc/arm-none-eabi/10.3.1/../../../../arm-none-eabi/lib/thumb/v7e-m+fp/hard\libg_nano.a(lib_a-lock.o)
 .text.__retarget_lock_try_acquire_recursive
                0x00000000        0x4 c:/renesas/synergy/e2studio_v2022-10_ssp_v2.4.0/toolchains/gcc_arm/gcc-arm-none-eabi-10.3-2021.10/bin/../lib/gcc/arm-none-eabi/10.3.1/../../../../arm-none-eabi/lib/thumb/v7e-m+fp/hard\libg_nano.a(lib_a-lock.o)
 .text.__retarget_lock_release
                0x00000000        0x2 c:/renesas/synergy/e2studio_v2022-10_ssp_v2.4.0/toolchains/gcc_arm/gcc-arm-none-eabi-10.3-2021.10/bin/../lib/gcc/arm-none-eabi/10.3.1/../../../../arm-none-eabi/lib/thumb/v7e-m+fp/hard\libg_nano.a(lib_a-lock.o)
 .bss.__lock___arc4random_mutex
                0x00000000        0x1 c:/renesas/synergy/e2studio_v2022-10_ssp_v2.4.0/toolchains/gcc_arm/gcc-arm-none-eabi-10.3-2021.10/bin/../lib/gcc/arm-none-eabi/10.3.1/../../../../arm-none-eabi/lib/thumb/v7e-m+fp/hard\libg_nano.a(lib_a-lock.o)
 .bss.__lock___at_quick_exit_mutex
                0x00000000        0x1 c:/renesas/synergy/e2studio_v2022-10_ssp_v2.4.0/toolchains/gcc_arm/gcc-arm-none-eabi-10.3-2021.10/bin/../lib/gcc/arm-none-eabi/10.3.1/../../../../arm-none-eabi/lib/thumb/v7e-m+fp/hard\libg_nano.a(lib_a-lock.o)
 .bss.__lock___atexit_recursive_mutex
                0x00000000        0x1 c:/renesas/synergy/e2studio_v2022-10_ssp_v2.4.0/toolchains/gcc_arm/gcc-arm-none-eabi-10.3-2021.10/bin/../lib/gcc/arm-none-eabi/10.3.1/../../../../arm-none-eabi/lib/thumb/v7e-m+fp/hard\libg_nano.a(lib_a-lock.o)
 .bss.__lock___dd_hash_mutex
                0x00000000        0x1 c:/renesas/synergy/e2studio_v2022-10_ssp_v2.4.0/toolchains/gcc_arm/gcc-arm-none-eabi-10.3-2021.10/bin/../lib/gcc/arm-none-eabi/10.3.1/../../../../arm-none-eabi/lib/thumb/v7e-m+fp/hard\libg_nano.a(lib_a-lock.o)
 .bss.__lock___env_recursive_mutex
                0x00000000        0x1 c:/renesas/synergy/e2studio_v2022-10_ssp_v2.4.0/toolchains/gcc_arm/gcc-arm-none-eabi-10.3-2021.10/bin/../lib/gcc/arm-none-eabi/10.3.1/../../../../arm-none-eabi/lib/thumb/v7e-m+fp/hard\libg_nano.a(lib_a-lock.o)
 .bss.__lock___tz_mutex
                0x00000000        0x1 c:/renesas/synergy/e2studio_v2022-10_ssp_v2.4.0/toolchains/gcc_arm/gcc-arm-none-eabi-10.3-2021.10/bin/../lib/gcc/arm-none-eabi/10.3.1/../../../../arm-none-eabi/lib/thumb/v7e-m+fp/hard\libg_nano.a(lib_a-lock.o)
 .text          0x00000000        0x0 c:/renesas/synergy/e2studio_v2022-10_ssp_v2.4.0/toolchains/gcc_arm/gcc-arm-none-eabi-10.3-2021.10/bin/../lib/gcc/arm-none-eabi/10.3.1/../../../../arm-none-eabi/lib/thumb/v7e-m+fp/hard\libg_nano.a(lib_a-makebuf.o)
 .data          0x00000000        0x0 c:/renesas/synergy/e2studio_v2022-10_ssp_v2.4.0/toolchains/gcc_arm/gcc-arm-none-eabi-10.3-2021.10/bin/../lib/gcc/arm-none-eabi/10.3.1/../../../../arm-none-eabi/lib/thumb/v7e-m+fp/hard\libg_nano.a(lib_a-makebuf.o)
 .bss           0x00000000        0x0 c:/renesas/synergy/e2studio_v2022-10_ssp_v2.4.0/toolchains/gcc_arm/gcc-arm-none-eabi-10.3-2021.10/bin/../lib/gcc/arm-none-eabi/10.3.1/../../../../arm-none-eabi/lib/thumb/v7e-m+fp/hard\libg_nano.a(lib_a-makebuf.o)
 .data          0x00000000        0x0 c:/renesas/synergy/e2studio_v2022-10_ssp_v2.4.0/toolchains/gcc_arm/gcc-arm-none-eabi-10.3-2021.10/bin/../lib/gcc/arm-none-eabi/10.3.1/../../../../arm-none-eabi/lib/thumb/v7e-m+fp/hard\libg_nano.a(lib_a-memchr.o)
 .bss           0x00000000        0x0 c:/renesas/synergy/e2studio_v2022-10_ssp_v2.4.0/toolchains/gcc_arm/gcc-arm-none-eabi-10.3-2021.10/bin/../lib/gcc/arm-none-eabi/10.3.1/../../../../arm-none-eabi/lib/thumb/v7e-m+fp/hard\libg_nano.a(lib_a-memchr.o)
 .text          0x00000000        0x0 c:/renesas/synergy/e2studio_v2022-10_ssp_v2.4.0/toolchains/gcc_arm/gcc-arm-none-eabi-10.3-2021.10/bin/../lib/gcc/arm-none-eabi/10.3.1/../../../../arm-none-eabi/lib/thumb/v7e-m+fp/hard\libg_nano.a(lib_a-memmove.o)
 .data          0x00000000        0x0 c:/renesas/synergy/e2studio_v2022-10_ssp_v2.4.0/toolchains/gcc_arm/gcc-arm-none-eabi-10.3-2021.10/bin/../lib/gcc/arm-none-eabi/10.3.1/../../../../arm-none-eabi/lib/thumb/v7e-m+fp/hard\libg_nano.a(lib_a-memmove.o)
 .bss           0x00000000        0x0 c:/renesas/synergy/e2studio_v2022-10_ssp_v2.4.0/toolchains/gcc_arm/gcc-arm-none-eabi-10.3-2021.10/bin/../lib/gcc/arm-none-eabi/10.3.1/../../../../arm-none-eabi/lib/thumb/v7e-m+fp/hard\libg_nano.a(lib_a-memmove.o)
 .text.memmove  0x00000000       0x34 c:/renesas/synergy/e2studio_v2022-10_ssp_v2.4.0/toolchains/gcc_arm/gcc-arm-none-eabi-10.3-2021.10/bin/../lib/gcc/arm-none-eabi/10.3.1/../../../../arm-none-eabi/lib/thumb/v7e-m+fp/hard\libg_nano.a(lib_a-memmove.o)
 .debug_frame   0x00000000       0x28 c:/renesas/synergy/e2studio_v2022-10_ssp_v2.4.0/toolchains/gcc_arm/gcc-arm-none-eabi-10.3-2021.10/bin/../lib/gcc/arm-none-eabi/10.3.1/../../../../arm-none-eabi/lib/thumb/v7e-m+fp/hard\libg_nano.a(lib_a-memmove.o)
 .ARM.attributes
                0x00000000       0x34 c:/renesas/synergy/e2studio_v2022-10_ssp_v2.4.0/toolchains/gcc_arm/gcc-arm-none-eabi-10.3-2021.10/bin/../lib/gcc/arm-none-eabi/10.3.1/../../../../arm-none-eabi/lib/thumb/v7e-m+fp/hard\libg_nano.a(lib_a-memmove.o)
 .text          0x00000000        0x0 c:/renesas/synergy/e2studio_v2022-10_ssp_v2.4.0/toolchains/gcc_arm/gcc-arm-none-eabi-10.3-2021.10/bin/../lib/gcc/arm-none-eabi/10.3.1/../../../../arm-none-eabi/lib/thumb/v7e-m+fp/hard\libg_nano.a(lib_a-mlock.o)
 .data          0x00000000        0x0 c:/renesas/synergy/e2studio_v2022-10_ssp_v2.4.0/toolchains/gcc_arm/gcc-arm-none-eabi-10.3-2021.10/bin/../lib/gcc/arm-none-eabi/10.3.1/../../../../arm-none-eabi/lib/thumb/v7e-m+fp/hard\libg_nano.a(lib_a-mlock.o)
 .bss           0x00000000        0x0 c:/renesas/synergy/e2studio_v2022-10_ssp_v2.4.0/toolchains/gcc_arm/gcc-arm-none-eabi-10.3-2021.10/bin/../lib/gcc/arm-none-eabi/10.3.1/../../../../arm-none-eabi/lib/thumb/v7e-m+fp/hard\libg_nano.a(lib_a-mlock.o)
 .text          0x00000000        0x0 c:/renesas/synergy/e2studio_v2022-10_ssp_v2.4.0/toolchains/gcc_arm/gcc-arm-none-eabi-10.3-2021.10/bin/../lib/gcc/arm-none-eabi/10.3.1/../../../../arm-none-eabi/lib/thumb/v7e-m+fp/hard\libg_nano.a(lib_a-nano-reallocr.o)
 .data          0x00000000        0x0 c:/renesas/synergy/e2studio_v2022-10_ssp_v2.4.0/toolchains/gcc_arm/gcc-arm-none-eabi-10.3-2021.10/bin/../lib/gcc/arm-none-eabi/10.3.1/../../../../arm-none-eabi/lib/thumb/v7e-m+fp/hard\libg_nano.a(lib_a-nano-reallocr.o)
 .bss           0x00000000        0x0 c:/renesas/synergy/e2studio_v2022-10_ssp_v2.4.0/toolchains/gcc_arm/gcc-arm-none-eabi-10.3-2021.10/bin/../lib/gcc/arm-none-eabi/10.3.1/../../../../arm-none-eabi/lib/thumb/v7e-m+fp/hard\libg_nano.a(lib_a-nano-reallocr.o)
 .text._realloc_r
                0x00000000       0x5e c:/renesas/synergy/e2studio_v2022-10_ssp_v2.4.0/toolchains/gcc_arm/gcc-arm-none-eabi-10.3-2021.10/bin/../lib/gcc/arm-none-eabi/10.3.1/../../../../arm-none-eabi/lib/thumb/v7e-m+fp/hard\libg_nano.a(lib_a-nano-reallocr.o)
 .debug_frame   0x00000000       0x3c c:/renesas/synergy/e2studio_v2022-10_ssp_v2.4.0/toolchains/gcc_arm/gcc-arm-none-eabi-10.3-2021.10/bin/../lib/gcc/arm-none-eabi/10.3.1/../../../../arm-none-eabi/lib/thumb/v7e-m+fp/hard\libg_nano.a(lib_a-nano-reallocr.o)
 .ARM.attributes
                0x00000000       0x34 c:/renesas/synergy/e2studio_v2022-10_ssp_v2.4.0/toolchains/gcc_arm/gcc-arm-none-eabi-10.3-2021.10/bin/../lib/gcc/arm-none-eabi/10.3.1/../../../../arm-none-eabi/lib/thumb/v7e-m+fp/hard\libg_nano.a(lib_a-nano-reallocr.o)
 .text          0x00000000        0x0 c:/renesas/synergy/e2studio_v2022-10_ssp_v2.4.0/toolchains/gcc_arm/gcc-arm-none-eabi-10.3-2021.10/bin/../lib/gcc/arm-none-eabi/10.3.1/../../../../arm-none-eabi/lib/thumb/v7e-m+fp/hard\libg_nano.a(lib_a-reent.o)
 .data          0x00000000        0x0 c:/renesas/synergy/e2studio_v2022-10_ssp_v2.4.0/toolchains/gcc_arm/gcc-arm-none-eabi-10.3-2021.10/bin/../lib/gcc/arm-none-eabi/10.3.1/../../../../arm-none-eabi/lib/thumb/v7e-m+fp/hard\libg_nano.a(lib_a-reent.o)
 .bss           0x00000000        0x0 c:/renesas/synergy/e2studio_v2022-10_ssp_v2.4.0/toolchains/gcc_arm/gcc-arm-none-eabi-10.3-2021.10/bin/../lib/gcc/arm-none-eabi/10.3.1/../../../../arm-none-eabi/lib/thumb/v7e-m+fp/hard\libg_nano.a(lib_a-reent.o)
 .text.cleanup_glue
                0x00000000       0x1a c:/renesas/synergy/e2studio_v2022-10_ssp_v2.4.0/toolchains/gcc_arm/gcc-arm-none-eabi-10.3-2021.10/bin/../lib/gcc/arm-none-eabi/10.3.1/../../../../arm-none-eabi/lib/thumb/v7e-m+fp/hard\libg_nano.a(lib_a-reent.o)
 .text._reclaim_reent
                0x00000000       0xb8 c:/renesas/synergy/e2studio_v2022-10_ssp_v2.4.0/toolchains/gcc_arm/gcc-arm-none-eabi-10.3-2021.10/bin/../lib/gcc/arm-none-eabi/10.3.1/../../../../arm-none-eabi/lib/thumb/v7e-m+fp/hard\libg_nano.a(lib_a-reent.o)
 .text          0x00000000        0x0 c:/renesas/synergy/e2studio_v2022-10_ssp_v2.4.0/toolchains/gcc_arm/gcc-arm-none-eabi-10.3-2021.10/bin/../lib/gcc/arm-none-eabi/10.3.1/../../../../arm-none-eabi/lib/thumb/v7e-m+fp/hard\libg_nano.a(lib_a-signal.o)
 .data          0x00000000        0x0 c:/renesas/synergy/e2studio_v2022-10_ssp_v2.4.0/toolchains/gcc_arm/gcc-arm-none-eabi-10.3-2021.10/bin/../lib/gcc/arm-none-eabi/10.3.1/../../../../arm-none-eabi/lib/thumb/v7e-m+fp/hard\libg_nano.a(lib_a-signal.o)
 .bss           0x00000000        0x0 c:/renesas/synergy/e2studio_v2022-10_ssp_v2.4.0/toolchains/gcc_arm/gcc-arm-none-eabi-10.3-2021.10/bin/../lib/gcc/arm-none-eabi/10.3.1/../../../../arm-none-eabi/lib/thumb/v7e-m+fp/hard\libg_nano.a(lib_a-signal.o)
 .text._init_signal_r
                0x00000000       0x28 c:/renesas/synergy/e2studio_v2022-10_ssp_v2.4.0/toolchains/gcc_arm/gcc-arm-none-eabi-10.3-2021.10/bin/../lib/gcc/arm-none-eabi/10.3.1/../../../../arm-none-eabi/lib/thumb/v7e-m+fp/hard\libg_nano.a(lib_a-signal.o)
 .text._signal_r
                0x00000000       0x30 c:/renesas/synergy/e2studio_v2022-10_ssp_v2.4.0/toolchains/gcc_arm/gcc-arm-none-eabi-10.3-2021.10/bin/../lib/gcc/arm-none-eabi/10.3.1/../../../../arm-none-eabi/lib/thumb/v7e-m+fp/hard\libg_nano.a(lib_a-signal.o)
 .text.__sigtramp_r
                0x00000000       0x48 c:/renesas/synergy/e2studio_v2022-10_ssp_v2.4.0/toolchains/gcc_arm/gcc-arm-none-eabi-10.3-2021.10/bin/../lib/gcc/arm-none-eabi/10.3.1/../../../../arm-none-eabi/lib/thumb/v7e-m+fp/hard\libg_nano.a(lib_a-signal.o)
 .text.signal   0x00000000       0x10 c:/renesas/synergy/e2studio_v2022-10_ssp_v2.4.0/toolchains/gcc_arm/gcc-arm-none-eabi-10.3-2021.10/bin/../lib/gcc/arm-none-eabi/10.3.1/../../../../arm-none-eabi/lib/thumb/v7e-m+fp/hard\libg_nano.a(lib_a-signal.o)
 .text._init_signal
                0x00000000        0xc c:/renesas/synergy/e2studio_v2022-10_ssp_v2.4.0/toolchains/gcc_arm/gcc-arm-none-eabi-10.3-2021.10/bin/../lib/gcc/arm-none-eabi/10.3.1/../../../../arm-none-eabi/lib/thumb/v7e-m+fp/hard\libg_nano.a(lib_a-signal.o)
 .text.__sigtramp
                0x00000000       0x10 c:/renesas/synergy/e2studio_v2022-10_ssp_v2.4.0/toolchains/gcc_arm/gcc-arm-none-eabi-10.3-2021.10/bin/../lib/gcc/arm-none-eabi/10.3.1/../../../../arm-none-eabi/lib/thumb/v7e-m+fp/hard\libg_nano.a(lib_a-signal.o)
 .text          0x00000000        0x0 c:/renesas/synergy/e2studio_v2022-10_ssp_v2.4.0/toolchains/gcc_arm/gcc-arm-none-eabi-10.3-2021.10/bin/../lib/gcc/arm-none-eabi/10.3.1/../../../../arm-none-eabi/lib/thumb/v7e-m+fp/hard\libg_nano.a(lib_a-signalr.o)
 .data          0x00000000        0x0 c:/renesas/synergy/e2studio_v2022-10_ssp_v2.4.0/toolchains/gcc_arm/gcc-arm-none-eabi-10.3-2021.10/bin/../lib/gcc/arm-none-eabi/10.3.1/../../../../arm-none-eabi/lib/thumb/v7e-m+fp/hard\libg_nano.a(lib_a-signalr.o)
 .bss           0x00000000        0x0 c:/renesas/synergy/e2studio_v2022-10_ssp_v2.4.0/toolchains/gcc_arm/gcc-arm-none-eabi-10.3-2021.10/bin/../lib/gcc/arm-none-eabi/10.3.1/../../../../arm-none-eabi/lib/thumb/v7e-m+fp/hard\libg_nano.a(lib_a-signalr.o)
 .text          0x00000000        0x0 c:/renesas/synergy/e2studio_v2022-10_ssp_v2.4.0/toolchains/gcc_arm/gcc-arm-none-eabi-10.3-2021.10/bin/../lib/gcc/arm-none-eabi/10.3.1/../../../../arm-none-eabi/lib/thumb/v7e-m+fp/hard\libg_nano.a(lib_a-stdio.o)
 .data          0x00000000        0x0 c:/renesas/synergy/e2studio_v2022-10_ssp_v2.4.0/toolchains/gcc_arm/gcc-arm-none-eabi-10.3-2021.10/bin/../lib/gcc/arm-none-eabi/10.3.1/../../../../arm-none-eabi/lib/thumb/v7e-m+fp/hard\libg_nano.a(lib_a-stdio.o)
 .bss           0x00000000        0x0 c:/renesas/synergy/e2studio_v2022-10_ssp_v2.4.0/toolchains/gcc_arm/gcc-arm-none-eabi-10.3-2021.10/bin/../lib/gcc/arm-none-eabi/10.3.1/../../../../arm-none-eabi/lib/thumb/v7e-m+fp/hard\libg_nano.a(lib_a-stdio.o)
 .text.__seofread
                0x00000000        0x4 c:/renesas/synergy/e2studio_v2022-10_ssp_v2.4.0/toolchains/gcc_arm/gcc-arm-none-eabi-10.3-2021.10/bin/../lib/gcc/arm-none-eabi/10.3.1/../../../../arm-none-eabi/lib/thumb/v7e-m+fp/hard\libg_nano.a(lib_a-stdio.o)
 .text          0x00000000        0x0 c:/renesas/synergy/e2studio_v2022-10_ssp_v2.4.0/toolchains/gcc_arm/gcc-arm-none-eabi-10.3-2021.10/bin/../lib/gcc/arm-none-eabi/10.3.1/../../../../arm-none-eabi/lib/thumb/v7e-m+fp/hard\libg_nano.a(lib_a-writer.o)
 .data          0x00000000        0x0 c:/renesas/synergy/e2studio_v2022-10_ssp_v2.4.0/toolchains/gcc_arm/gcc-arm-none-eabi-10.3-2021.10/bin/../lib/gcc/arm-none-eabi/10.3.1/../../../../arm-none-eabi/lib/thumb/v7e-m+fp/hard\libg_nano.a(lib_a-writer.o)
 .bss           0x00000000        0x0 c:/renesas/synergy/e2studio_v2022-10_ssp_v2.4.0/toolchains/gcc_arm/gcc-arm-none-eabi-10.3-2021.10/bin/../lib/gcc/arm-none-eabi/10.3.1/../../../../arm-none-eabi/lib/thumb/v7e-m+fp/hard\libg_nano.a(lib_a-writer.o)
 .text          0x00000000        0x0 c:/renesas/synergy/e2studio_v2022-10_ssp_v2.4.0/toolchains/gcc_arm/gcc-arm-none-eabi-10.3-2021.10/bin/../lib/gcc/arm-none-eabi/10.3.1/../../../../arm-none-eabi/lib/thumb/v7e-m+fp/hard\libg_nano.a(lib_a-closer.o)
 .data          0x00000000        0x0 c:/renesas/synergy/e2studio_v2022-10_ssp_v2.4.0/toolchains/gcc_arm/gcc-arm-none-eabi-10.3-2021.10/bin/../lib/gcc/arm-none-eabi/10.3.1/../../../../arm-none-eabi/lib/thumb/v7e-m+fp/hard\libg_nano.a(lib_a-closer.o)
 .bss           0x00000000        0x0 c:/renesas/synergy/e2studio_v2022-10_ssp_v2.4.0/toolchains/gcc_arm/gcc-arm-none-eabi-10.3-2021.10/bin/../lib/gcc/arm-none-eabi/10.3.1/../../../../arm-none-eabi/lib/thumb/v7e-m+fp/hard\libg_nano.a(lib_a-closer.o)
 .text          0x00000000        0x0 c:/renesas/synergy/e2studio_v2022-10_ssp_v2.4.0/toolchains/gcc_arm/gcc-arm-none-eabi-10.3-2021.10/bin/../lib/gcc/arm-none-eabi/10.3.1/../../../../arm-none-eabi/lib/thumb/v7e-m+fp/hard\libg_nano.a(lib_a-fstatr.o)
 .data          0x00000000        0x0 c:/renesas/synergy/e2studio_v2022-10_ssp_v2.4.0/toolchains/gcc_arm/gcc-arm-none-eabi-10.3-2021.10/bin/../lib/gcc/arm-none-eabi/10.3.1/../../../../arm-none-eabi/lib/thumb/v7e-m+fp/hard\libg_nano.a(lib_a-fstatr.o)
 .bss           0x00000000        0x0 c:/renesas/synergy/e2studio_v2022-10_ssp_v2.4.0/toolchains/gcc_arm/gcc-arm-none-eabi-10.3-2021.10/bin/../lib/gcc/arm-none-eabi/10.3.1/../../../../arm-none-eabi/lib/thumb/v7e-m+fp/hard\libg_nano.a(lib_a-fstatr.o)
 .text          0x00000000        0x0 c:/renesas/synergy/e2studio_v2022-10_ssp_v2.4.0/toolchains/gcc_arm/gcc-arm-none-eabi-10.3-2021.10/bin/../lib/gcc/arm-none-eabi/10.3.1/../../../../arm-none-eabi/lib/thumb/v7e-m+fp/hard\libg_nano.a(lib_a-isattyr.o)
 .data          0x00000000        0x0 c:/renesas/synergy/e2studio_v2022-10_ssp_v2.4.0/toolchains/gcc_arm/gcc-arm-none-eabi-10.3-2021.10/bin/../lib/gcc/arm-none-eabi/10.3.1/../../../../arm-none-eabi/lib/thumb/v7e-m+fp/hard\libg_nano.a(lib_a-isattyr.o)
 .bss           0x00000000        0x0 c:/renesas/synergy/e2studio_v2022-10_ssp_v2.4.0/toolchains/gcc_arm/gcc-arm-none-eabi-10.3-2021.10/bin/../lib/gcc/arm-none-eabi/10.3.1/../../../../arm-none-eabi/lib/thumb/v7e-m+fp/hard\libg_nano.a(lib_a-isattyr.o)
 .text          0x00000000        0x0 c:/renesas/synergy/e2studio_v2022-10_ssp_v2.4.0/toolchains/gcc_arm/gcc-arm-none-eabi-10.3-2021.10/bin/../lib/gcc/arm-none-eabi/10.3.1/../../../../arm-none-eabi/lib/thumb/v7e-m+fp/hard\libg_nano.a(lib_a-lseekr.o)
 .data          0x00000000        0x0 c:/renesas/synergy/e2studio_v2022-10_ssp_v2.4.0/toolchains/gcc_arm/gcc-arm-none-eabi-10.3-2021.10/bin/../lib/gcc/arm-none-eabi/10.3.1/../../../../arm-none-eabi/lib/thumb/v7e-m+fp/hard\libg_nano.a(lib_a-lseekr.o)
 .bss           0x00000000        0x0 c:/renesas/synergy/e2studio_v2022-10_ssp_v2.4.0/toolchains/gcc_arm/gcc-arm-none-eabi-10.3-2021.10/bin/../lib/gcc/arm-none-eabi/10.3.1/../../../../arm-none-eabi/lib/thumb/v7e-m+fp/hard\libg_nano.a(lib_a-lseekr.o)
 .text          0x00000000        0x0 c:/renesas/synergy/e2studio_v2022-10_ssp_v2.4.0/toolchains/gcc_arm/gcc-arm-none-eabi-10.3-2021.10/bin/../lib/gcc/arm-none-eabi/10.3.1/../../../../arm-none-eabi/lib/thumb/v7e-m+fp/hard\libg_nano.a(lib_a-nano-msizer.o)
 .data          0x00000000        0x0 c:/renesas/synergy/e2studio_v2022-10_ssp_v2.4.0/toolchains/gcc_arm/gcc-arm-none-eabi-10.3-2021.10/bin/../lib/gcc/arm-none-eabi/10.3.1/../../../../arm-none-eabi/lib/thumb/v7e-m+fp/hard\libg_nano.a(lib_a-nano-msizer.o)
 .bss           0x00000000        0x0 c:/renesas/synergy/e2studio_v2022-10_ssp_v2.4.0/toolchains/gcc_arm/gcc-arm-none-eabi-10.3-2021.10/bin/../lib/gcc/arm-none-eabi/10.3.1/../../../../arm-none-eabi/lib/thumb/v7e-m+fp/hard\libg_nano.a(lib_a-nano-msizer.o)
 .text._malloc_usable_size_r
                0x00000000       0x10 c:/renesas/synergy/e2studio_v2022-10_ssp_v2.4.0/toolchains/gcc_arm/gcc-arm-none-eabi-10.3-2021.10/bin/../lib/gcc/arm-none-eabi/10.3.1/../../../../arm-none-eabi/lib/thumb/v7e-m+fp/hard\libg_nano.a(lib_a-nano-msizer.o)
 .debug_frame   0x00000000       0x20 c:/renesas/synergy/e2studio_v2022-10_ssp_v2.4.0/toolchains/gcc_arm/gcc-arm-none-eabi-10.3-2021.10/bin/../lib/gcc/arm-none-eabi/10.3.1/../../../../arm-none-eabi/lib/thumb/v7e-m+fp/hard\libg_nano.a(lib_a-nano-msizer.o)
 .ARM.attributes
                0x00000000       0x34 c:/renesas/synergy/e2studio_v2022-10_ssp_v2.4.0/toolchains/gcc_arm/gcc-arm-none-eabi-10.3-2021.10/bin/../lib/gcc/arm-none-eabi/10.3.1/../../../../arm-none-eabi/lib/thumb/v7e-m+fp/hard\libg_nano.a(lib_a-nano-msizer.o)
 .text          0x00000000        0x0 c:/renesas/synergy/e2studio_v2022-10_ssp_v2.4.0/toolchains/gcc_arm/gcc-arm-none-eabi-10.3-2021.10/bin/../lib/gcc/arm-none-eabi/10.3.1/../../../../arm-none-eabi/lib/thumb/v7e-m+fp/hard\libg_nano.a(lib_a-readr.o)
 .data          0x00000000        0x0 c:/renesas/synergy/e2studio_v2022-10_ssp_v2.4.0/toolchains/gcc_arm/gcc-arm-none-eabi-10.3-2021.10/bin/../lib/gcc/arm-none-eabi/10.3.1/../../../../arm-none-eabi/lib/thumb/v7e-m+fp/hard\libg_nano.a(lib_a-readr.o)
 .bss           0x00000000        0x0 c:/renesas/synergy/e2studio_v2022-10_ssp_v2.4.0/toolchains/gcc_arm/gcc-arm-none-eabi-10.3-2021.10/bin/../lib/gcc/arm-none-eabi/10.3.1/../../../../arm-none-eabi/lib/thumb/v7e-m+fp/hard\libg_nano.a(lib_a-readr.o)
 .text          0x00000000        0x0 c:/renesas/synergy/e2studio_v2022-10_ssp_v2.4.0/toolchains/gcc_arm/gcc-arm-none-eabi-10.3-2021.10/bin/../lib/gcc/arm-none-eabi/10.3.1/../../../../arm-none-eabi/lib/thumb/v7e-m+fp/hard\librdimon_nano.a(rdimon-syscalls.o)
 .data          0x00000000        0x0 c:/renesas/synergy/e2studio_v2022-10_ssp_v2.4.0/toolchains/gcc_arm/gcc-arm-none-eabi-10.3-2021.10/bin/../lib/gcc/arm-none-eabi/10.3.1/../../../../arm-none-eabi/lib/thumb/v7e-m+fp/hard\librdimon_nano.a(rdimon-syscalls.o)
 .bss           0x00000000        0x0 c:/renesas/synergy/e2studio_v2022-10_ssp_v2.4.0/toolchains/gcc_arm/gcc-arm-none-eabi-10.3-2021.10/bin/../lib/gcc/arm-none-eabi/10.3.1/../../../../arm-none-eabi/lib/thumb/v7e-m+fp/hard\librdimon_nano.a(rdimon-syscalls.o)
 .text._sbrk    0x00000000       0x48 c:/renesas/synergy/e2studio_v2022-10_ssp_v2.4.0/toolchains/gcc_arm/gcc-arm-none-eabi-10.3-2021.10/bin/../lib/gcc/arm-none-eabi/10.3.1/../../../../arm-none-eabi/lib/thumb/v7e-m+fp/hard\librdimon_nano.a(rdimon-syscalls.o)
 .text._open    0x00000000       0x12 c:/renesas/synergy/e2studio_v2022-10_ssp_v2.4.0/toolchains/gcc_arm/gcc-arm-none-eabi-10.3-2021.10/bin/../lib/gcc/arm-none-eabi/10.3.1/../../../../arm-none-eabi/lib/thumb/v7e-m+fp/hard\librdimon_nano.a(rdimon-syscalls.o)
 .text._has_ext_stdout_stderr
                0x00000000       0x18 c:/renesas/synergy/e2studio_v2022-10_ssp_v2.4.0/toolchains/gcc_arm/gcc-arm-none-eabi-10.3-2021.10/bin/../lib/gcc/arm-none-eabi/10.3.1/../../../../arm-none-eabi/lib/thumb/v7e-m+fp/hard\librdimon_nano.a(rdimon-syscalls.o)
 .rodata.initialise_monitor_handles.str1.1
                0x00000000        0x4 c:/renesas/synergy/e2studio_v2022-10_ssp_v2.4.0/toolchains/gcc_arm/gcc-arm-none-eabi-10.3-2021.10/bin/../lib/gcc/arm-none-eabi/10.3.1/../../../../arm-none-eabi/lib/thumb/v7e-m+fp/hard\librdimon_nano.a(rdimon-syscalls.o)
 .text.initialise_monitor_handles
                0x00000000       0xc0 c:/renesas/synergy/e2studio_v2022-10_ssp_v2.4.0/toolchains/gcc_arm/gcc-arm-none-eabi-10.3-2021.10/bin/../lib/gcc/arm-none-eabi/10.3.1/../../../../arm-none-eabi/lib/thumb/v7e-m+fp/hard\librdimon_nano.a(rdimon-syscalls.o)
 .text._link    0x00000000       0x10 c:/renesas/synergy/e2studio_v2022-10_ssp_v2.4.0/toolchains/gcc_arm/gcc-arm-none-eabi-10.3-2021.10/bin/../lib/gcc/arm-none-eabi/10.3.1/../../../../arm-none-eabi/lib/thumb/v7e-m+fp/hard\librdimon_nano.a(rdimon-syscalls.o)
 .text._unlink  0x00000000       0x28 c:/renesas/synergy/e2studio_v2022-10_ssp_v2.4.0/toolchains/gcc_arm/gcc-arm-none-eabi-10.3-2021.10/bin/../lib/gcc/arm-none-eabi/10.3.1/../../../../arm-none-eabi/lib/thumb/v7e-m+fp/hard\librdimon_nano.a(rdimon-syscalls.o)
 .text._gettimeofday
                0x00000000       0x28 c:/renesas/synergy/e2studio_v2022-10_ssp_v2.4.0/toolchains/gcc_arm/gcc-arm-none-eabi-10.3-2021.10/bin/../lib/gcc/arm-none-eabi/10.3.1/../../../../arm-none-eabi/lib/thumb/v7e-m+fp/hard\librdimon_nano.a(rdimon-syscalls.o)
 .text._clock   0x00000000       0x12 c:/renesas/synergy/e2studio_v2022-10_ssp_v2.4.0/toolchains/gcc_arm/gcc-arm-none-eabi-10.3-2021.10/bin/../lib/gcc/arm-none-eabi/10.3.1/../../../../arm-none-eabi/lib/thumb/v7e-m+fp/hard\librdimon_nano.a(rdimon-syscalls.o)
 .text._times   0x00000000       0x16 c:/renesas/synergy/e2studio_v2022-10_ssp_v2.4.0/toolchains/gcc_arm/gcc-arm-none-eabi-10.3-2021.10/bin/../lib/gcc/arm-none-eabi/10.3.1/../../../../arm-none-eabi/lib/thumb/v7e-m+fp/hard\librdimon_nano.a(rdimon-syscalls.o)
 .text._system  0x00000000       0x3c c:/renesas/synergy/e2studio_v2022-10_ssp_v2.4.0/toolchains/gcc_arm/gcc-arm-none-eabi-10.3-2021.10/bin/../lib/gcc/arm-none-eabi/10.3.1/../../../../arm-none-eabi/lib/thumb/v7e-m+fp/hard\librdimon_nano.a(rdimon-syscalls.o)
 .text._rename  0x00000000       0x36 c:/renesas/synergy/e2studio_v2022-10_ssp_v2.4.0/toolchains/gcc_arm/gcc-arm-none-eabi-10.3-2021.10/bin/../lib/gcc/arm-none-eabi/10.3.1/../../../../arm-none-eabi/lib/thumb/v7e-m+fp/hard\librdimon_nano.a(rdimon-syscalls.o)
 .bss.heap_end.0
                0x00000000        0x4 c:/renesas/synergy/e2studio_v2022-10_ssp_v2.4.0/toolchains/gcc_arm/gcc-arm-none-eabi-10.3-2021.10/bin/../lib/gcc/arm-none-eabi/10.3.1/../../../../arm-none-eabi/lib/thumb/v7e-m+fp/hard\librdimon_nano.a(rdimon-syscalls.o)
 .bss.monitor_stderr
                0x00000000        0x4 c:/renesas/synergy/e2studio_v2022-10_ssp_v2.4.0/toolchains/gcc_arm/gcc-arm-none-eabi-10.3-2021.10/bin/../lib/gcc/arm-none-eabi/10.3.1/../../../../arm-none-eabi/lib/thumb/v7e-m+fp/hard\librdimon_nano.a(rdimon-syscalls.o)
 .bss.monitor_stdin
                0x00000000        0x4 c:/renesas/synergy/e2studio_v2022-10_ssp_v2.4.0/toolchains/gcc_arm/gcc-arm-none-eabi-10.3-2021.10/bin/../lib/gcc/arm-none-eabi/10.3.1/../../../../arm-none-eabi/lib/thumb/v7e-m+fp/hard\librdimon_nano.a(rdimon-syscalls.o)
 .bss.monitor_stdout
                0x00000000        0x4 c:/renesas/synergy/e2studio_v2022-10_ssp_v2.4.0/toolchains/gcc_arm/gcc-arm-none-eabi-10.3-2021.10/bin/../lib/gcc/arm-none-eabi/10.3.1/../../../../arm-none-eabi/lib/thumb/v7e-m+fp/hard\librdimon_nano.a(rdimon-syscalls.o)
 .data.__heap_limit
                0x00000000        0x4 c:/renesas/synergy/e2studio_v2022-10_ssp_v2.4.0/toolchains/gcc_arm/gcc-arm-none-eabi-10.3-2021.10/bin/../lib/gcc/arm-none-eabi/10.3.1/../../../../arm-none-eabi/lib/thumb/v7e-m+fp/hard\librdimon_nano.a(rdimon-syscalls.o)
 .text          0x00000000        0x0 c:/renesas/synergy/e2studio_v2022-10_ssp_v2.4.0/toolchains/gcc_arm/gcc-arm-none-eabi-10.3-2021.10/bin/../lib/gcc/arm-none-eabi/10.3.1/../../../../arm-none-eabi/lib/thumb/v7e-m+fp/hard\librdimon_nano.a(rdimon-_exit.o)
 .data          0x00000000        0x0 c:/renesas/synergy/e2studio_v2022-10_ssp_v2.4.0/toolchains/gcc_arm/gcc-arm-none-eabi-10.3-2021.10/bin/../lib/gcc/arm-none-eabi/10.3.1/../../../../arm-none-eabi/lib/thumb/v7e-m+fp/hard\librdimon_nano.a(rdimon-_exit.o)
 .bss           0x00000000        0x0 c:/renesas/synergy/e2studio_v2022-10_ssp_v2.4.0/toolchains/gcc_arm/gcc-arm-none-eabi-10.3-2021.10/bin/../lib/gcc/arm-none-eabi/10.3.1/../../../../arm-none-eabi/lib/thumb/v7e-m+fp/hard\librdimon_nano.a(rdimon-_exit.o)
 .text          0x00000000        0x0 c:/renesas/synergy/e2studio_v2022-10_ssp_v2.4.0/toolchains/gcc_arm/gcc-arm-none-eabi-10.3-2021.10/bin/../lib/gcc/arm-none-eabi/10.3.1/../../../../arm-none-eabi/lib/thumb/v7e-m+fp/hard\librdimon_nano.a(rdimon-_kill.o)
 .data          0x00000000        0x0 c:/renesas/synergy/e2studio_v2022-10_ssp_v2.4.0/toolchains/gcc_arm/gcc-arm-none-eabi-10.3-2021.10/bin/../lib/gcc/arm-none-eabi/10.3.1/../../../../arm-none-eabi/lib/thumb/v7e-m+fp/hard\librdimon_nano.a(rdimon-_kill.o)
 .bss           0x00000000        0x0 c:/renesas/synergy/e2studio_v2022-10_ssp_v2.4.0/toolchains/gcc_arm/gcc-arm-none-eabi-10.3-2021.10/bin/../lib/gcc/arm-none-eabi/10.3.1/../../../../arm-none-eabi/lib/thumb/v7e-m+fp/hard\librdimon_nano.a(rdimon-_kill.o)
 .data          0x00000000        0x0 c:/renesas/synergy/e2studio_v2022-10_ssp_v2.4.0/toolchains/gcc_arm/gcc-arm-none-eabi-10.3-2021.10/bin/../lib/gcc/arm-none-eabi/10.3.1/../../../../arm-none-eabi/lib/thumb/v7e-m+fp/hard\libc_nano.a(lib_a-strlen.o)
 .bss           0x00000000        0x0 c:/renesas/synergy/e2studio_v2022-10_ssp_v2.4.0/toolchains/gcc_arm/gcc-arm-none-eabi-10.3-2021.10/bin/../lib/gcc/arm-none-eabi/10.3.1/../../../../arm-none-eabi/lib/thumb/v7e-m+fp/hard\libc_nano.a(lib_a-strlen.o)
 .text          0x00000000        0x0 c:/renesas/synergy/e2studio_v2022-10_ssp_v2.4.0/toolchains/gcc_arm/gcc-arm-none-eabi-10.3-2021.10/bin/../lib/gcc/arm-none-eabi/10.3.1/thumb/v7e-m+fp/hard/crtend.o
 .data          0x00000000        0x0 c:/renesas/synergy/e2studio_v2022-10_ssp_v2.4.0/toolchains/gcc_arm/gcc-arm-none-eabi-10.3-2021.10/bin/../lib/gcc/arm-none-eabi/10.3.1/thumb/v7e-m+fp/hard/crtend.o
 .bss           0x00000000        0x0 c:/renesas/synergy/e2studio_v2022-10_ssp_v2.4.0/toolchains/gcc_arm/gcc-arm-none-eabi-10.3-2021.10/bin/../lib/gcc/arm-none-eabi/10.3.1/thumb/v7e-m+fp/hard/crtend.o
 .rodata        0x00000000       0x24 c:/renesas/synergy/e2studio_v2022-10_ssp_v2.4.0/toolchains/gcc_arm/gcc-arm-none-eabi-10.3-2021.10/bin/../lib/gcc/arm-none-eabi/10.3.1/thumb/v7e-m+fp/hard/crtend.o
 .text          0x00000000        0x0 c:/renesas/synergy/e2studio_v2022-10_ssp_v2.4.0/toolchains/gcc_arm/gcc-arm-none-eabi-10.3-2021.10/bin/../lib/gcc/arm-none-eabi/10.3.1/thumb/v7e-m+fp/hard/crtn.o
 .data          0x00000000        0x0 c:/renesas/synergy/e2studio_v2022-10_ssp_v2.4.0/toolchains/gcc_arm/gcc-arm-none-eabi-10.3-2021.10/bin/../lib/gcc/arm-none-eabi/10.3.1/thumb/v7e-m+fp/hard/crtn.o
 .bss           0x00000000        0x0 c:/renesas/synergy/e2studio_v2022-10_ssp_v2.4.0/toolchains/gcc_arm/gcc-arm-none-eabi-10.3-2021.10/bin/../lib/gcc/arm-none-eabi/10.3.1/thumb/v7e-m+fp/hard/crtn.o

Memory Configuration

Name             Origin             Length             Attributes
FLASH            0x00000000         0x00200000         xr
RAM              0x1ffe0000         0x000a0000         xrw
DATA_FLASH       0x40100000         0x00010000         xr
QSPI_FLASH       0x60000000         0x04000000         xr
SDRAM            0x90000000         0x02000000         xrw
ID_CODES         0x0100a150         0x00000010         xr
*default*        0x00000000         0xffffffff

Linker script and memory map

LOAD c:/renesas/synergy/e2studio_v2022-10_ssp_v2.4.0/toolchains/gcc_arm/gcc-arm-none-eabi-10.3-2021.10/bin/../lib/gcc/arm-none-eabi/10.3.1/thumb/v7e-m+fp/hard/crti.o
LOAD c:/renesas/synergy/e2studio_v2022-10_ssp_v2.4.0/toolchains/gcc_arm/gcc-arm-none-eabi-10.3-2021.10/bin/../lib/gcc/arm-none-eabi/10.3.1/thumb/v7e-m+fp/hard/crtbegin.o
LOAD c:/renesas/synergy/e2studio_v2022-10_ssp_v2.4.0/toolchains/gcc_arm/gcc-arm-none-eabi-10.3-2021.10/bin/../lib/gcc/arm-none-eabi/10.3.1/../../../../arm-none-eabi/lib/thumb/v7e-m+fp/hard/rdimon-crt0.o
START GROUP
LOAD ./synergy/ssp/src/driver/r_sci_i2c/r_sci_i2c.o
LOAD ./synergy/ssp/src/driver/r_ioport/r_ioport.o
LOAD ./synergy/ssp/src/driver/r_elc/r_elc.o
LOAD ./synergy/ssp/src/driver/r_dtc/r_dtc.o
LOAD ./synergy/ssp/src/driver/r_cgc/r_cgc.o
LOAD ./synergy/ssp/src/driver/r_can/hw/hw_can.o
LOAD ./synergy/ssp/src/driver/r_can/r_can.o
LOAD ./synergy/ssp/src/driver/r_adc/r_adc.o
LOAD ./synergy/ssp/src/bsp/mcu/s5d9/bsp_cache.o
LOAD ./synergy/ssp/src/bsp/mcu/s5d9/bsp_clocks.o
LOAD ./synergy/ssp/src/bsp/mcu/s5d9/bsp_feature.o
LOAD ./synergy/ssp/src/bsp/mcu/s5d9/bsp_group_irq.o
LOAD ./synergy/ssp/src/bsp/mcu/s5d9/bsp_hw_locks.o
LOAD ./synergy/ssp/src/bsp/mcu/s5d9/bsp_module_stop.o
LOAD ./synergy/ssp/src/bsp/mcu/s5d9/bsp_rom_registers.o
LOAD ./synergy/ssp/src/bsp/mcu/all/bsp_common.o
LOAD ./synergy/ssp/src/bsp/mcu/all/bsp_common_leds.o
LOAD ./synergy/ssp/src/bsp/mcu/all/bsp_delay.o
LOAD ./synergy/ssp/src/bsp/mcu/all/bsp_irq.o
LOAD ./synergy/ssp/src/bsp/mcu/all/bsp_locking.o
LOAD ./synergy/ssp/src/bsp/mcu/all/bsp_register_protection.o
LOAD ./synergy/ssp/src/bsp/mcu/all/bsp_sbrk.o
LOAD ./synergy/ssp/src/bsp/cmsis/Device/RENESAS/S5D9/Source/startup_S5D9.o
LOAD ./synergy/ssp/src/bsp/cmsis/Device/RENESAS/S5D9/Source/system_S5D9.o
LOAD ./src/synergy_gen/adc_thread.o
LOAD ./src/synergy_gen/can_thread.o
LOAD ./src/synergy_gen/common_data.o
LOAD ./src/synergy_gen/drv_thread.o
LOAD ./src/synergy_gen/hal_data.o
LOAD ./src/synergy_gen/main.o
LOAD ./src/synergy_gen/pin_data.o
LOAD ./src/synergy_gen/status_thread.o
LOAD ./src/adc_thread_entry.o
LOAD ./src/can_thread_entry.o
LOAD ./src/drv_thread_entry.o
LOAD ./src/status_thread_entry.o
LOAD C:\Users\khurr\e2_studio_latest\workspace\VerticalControl\synergy\ssp\src\bsp\cmsis\DSP_Lib\cm4_gcc\libDSP_Lib.a
LOAD C:\Users\khurr\e2_studio_latest\workspace\VerticalControl\synergy\ssp\src\bsp\cmsis\NN_Lib\cm4_gcc\libNN_Lib.a
LOAD C:\Users\khurr\e2_studio_latest\workspace\VerticalControl\synergy\ssp\src\driver\r_fmi\libs\libfmi_cm4_s5d9_gcc.a
LOAD C:\Users\khurr\e2_studio_latest\workspace\VerticalControl\synergy\ssp\src\framework\el\tx\cm4_gcc\libtx.a
LOAD C:\Users\khurr\e2_studio_latest\workspace\VerticalControl\synergy\ssp\src\bsp\mcu\s5d9\libfmi_R7FS5D97E3A01CFB_gcc.a
END GROUP
START GROUP
LOAD c:/renesas/synergy/e2studio_v2022-10_ssp_v2.4.0/toolchains/gcc_arm/gcc-arm-none-eabi-10.3-2021.10/bin/../lib/gcc/arm-none-eabi/10.3.1/thumb/v7e-m+fp/hard\libgcc.a
LOAD c:/renesas/synergy/e2studio_v2022-10_ssp_v2.4.0/toolchains/gcc_arm/gcc-arm-none-eabi-10.3-2021.10/bin/../lib/gcc/arm-none-eabi/10.3.1/../../../../arm-none-eabi/lib/thumb/v7e-m+fp/hard\libg_nano.a
LOAD c:/renesas/synergy/e2studio_v2022-10_ssp_v2.4.0/toolchains/gcc_arm/gcc-arm-none-eabi-10.3-2021.10/bin/../lib/gcc/arm-none-eabi/10.3.1/../../../../arm-none-eabi/lib/thumb/v7e-m+fp/hard\libc_nano.a
END GROUP
START GROUP
LOAD c:/renesas/synergy/e2studio_v2022-10_ssp_v2.4.0/toolchains/gcc_arm/gcc-arm-none-eabi-10.3-2021.10/bin/../lib/gcc/arm-none-eabi/10.3.1/thumb/v7e-m+fp/hard\libgcc.a
LOAD c:/renesas/synergy/e2studio_v2022-10_ssp_v2.4.0/toolchains/gcc_arm/gcc-arm-none-eabi-10.3-2021.10/bin/../lib/gcc/arm-none-eabi/10.3.1/../../../../arm-none-eabi/lib/thumb/v7e-m+fp/hard\libc_nano.a
LOAD c:/renesas/synergy/e2studio_v2022-10_ssp_v2.4.0/toolchains/gcc_arm/gcc-arm-none-eabi-10.3-2021.10/bin/../lib/gcc/arm-none-eabi/10.3.1/../../../../arm-none-eabi/lib/thumb/v7e-m+fp/hard\librdimon_nano.a
END GROUP
START GROUP
LOAD c:/renesas/synergy/e2studio_v2022-10_ssp_v2.4.0/toolchains/gcc_arm/gcc-arm-none-eabi-10.3-2021.10/bin/../lib/gcc/arm-none-eabi/10.3.1/thumb/v7e-m+fp/hard\libgcc.a
LOAD c:/renesas/synergy/e2studio_v2022-10_ssp_v2.4.0/toolchains/gcc_arm/gcc-arm-none-eabi-10.3-2021.10/bin/../lib/gcc/arm-none-eabi/10.3.1/../../../../arm-none-eabi/lib/thumb/v7e-m+fp/hard\libc_nano.a
LOAD c:/renesas/synergy/e2studio_v2022-10_ssp_v2.4.0/toolchains/gcc_arm/gcc-arm-none-eabi-10.3-2021.10/bin/../lib/gcc/arm-none-eabi/10.3.1/../../../../arm-none-eabi/lib/thumb/v7e-m+fp/hard\librdimon_nano.a
END GROUP
LOAD c:/renesas/synergy/e2studio_v2022-10_ssp_v2.4.0/toolchains/gcc_arm/gcc-arm-none-eabi-10.3-2021.10/bin/../lib/gcc/arm-none-eabi/10.3.1/thumb/v7e-m+fp/hard/crtend.o
LOAD c:/renesas/synergy/e2studio_v2022-10_ssp_v2.4.0/toolchains/gcc_arm/gcc-arm-none-eabi-10.3-2021.10/bin/../lib/gcc/arm-none-eabi/10.3.1/thumb/v7e-m+fp/hard/crtn.o
START GROUP
LOAD c:/renesas/synergy/e2studio_v2022-10_ssp_v2.4.0/toolchains/gcc_arm/gcc-arm-none-eabi-10.3-2021.10/bin/../lib/gcc/arm-none-eabi/10.3.1/thumb/v7e-m+fp/hard\libgcc.a
LOAD c:/renesas/synergy/e2studio_v2022-10_ssp_v2.4.0/toolchains/gcc_arm/gcc-arm-none-eabi-10.3-2021.10/bin/../lib/gcc/arm-none-eabi/10.3.1/../../../../arm-none-eabi/lib/thumb/v7e-m+fp/hard\libc.a
LOAD c:/renesas/synergy/e2studio_v2022-10_ssp_v2.4.0/toolchains/gcc_arm/gcc-arm-none-eabi-10.3-2021.10/bin/../lib/gcc/arm-none-eabi/10.3.1/../../../../arm-none-eabi/lib/thumb/v7e-m+fp/hard\libm.a
LOAD c:/renesas/synergy/e2studio_v2022-10_ssp_v2.4.0/toolchains/gcc_arm/gcc-arm-none-eabi-10.3-2021.10/bin/../lib/gcc/arm-none-eabi/10.3.1/../../../../arm-none-eabi/lib/thumb/v7e-m+fp/hard\libnosys.a
END GROUP

.text           0x00000000     0xbe88
                0x00000000                __ROM_Start = .
 *(.vectors)
 .vectors       0x00000000       0x40 ./synergy/ssp/src/bsp/cmsis/Device/RENESAS/S5D9/Source/startup_S5D9.o
                0x00000000                __Vectors
 *(SORT_BY_NAME(.vector.*))
 .vector.CAN_0_ERROR
                0x00000040        0x4 ./src/synergy_gen/can_thread.o
                0x00000040                g_vector_CAN_0_ERROR
 .vector.CAN_0_MAILBOX_RX
                0x00000044        0x4 ./src/synergy_gen/can_thread.o
                0x00000044                g_vector_CAN_0_MAILBOX_RX
 .vector.CAN_0_MAILBOX_TX
                0x00000048        0x4 ./src/synergy_gen/can_thread.o
                0x00000048                g_vector_CAN_0_MAILBOX_TX
 .vector.SCI_0_RXI
                0x0000004c        0x4 ./src/synergy_gen/drv_thread.o
                0x0000004c                g_vector_SCI_0_RXI
 .vector.SCI_0_TEI
                0x00000050        0x4 ./src/synergy_gen/drv_thread.o
                0x00000050                g_vector_SCI_0_TEI
 .vector.SCI_0_TXI
                0x00000054        0x4 ./src/synergy_gen/drv_thread.o
                0x00000054                g_vector_SCI_0_TXI
                0x00000058                __Vectors_End = .
                0x1ffe0c88                __end__ = .
                0x00000400                . = (__ROM_Start + 0x400)
 *fill*         0x00000058      0x3a8 ff
 *(.rom_registers*)
 .rom_registers
                0x00000400       0x3c ./synergy/ssp/src/bsp/mcu/s5d9/bsp_rom_registers.o
                0x00000500                . = (__ROM_Start + 0x500)
 *fill*         0x0000043c       0xc4 ff
                0x00000500                __Vector_Info_Start = .
 *(SORT_BY_NAME(.vector_info.*))
 .vector_info.CAN_0_ERROR
                0x00000500        0x8 ./src/synergy_gen/can_thread.o
                0x00000500                g_vector_info_CAN_0_ERROR
 .vector_info.CAN_0_MAILBOX_RX
                0x00000508        0x8 ./src/synergy_gen/can_thread.o
                0x00000508                g_vector_info_CAN_0_MAILBOX_RX
 .vector_info.CAN_0_MAILBOX_TX
                0x00000510        0x8 ./src/synergy_gen/can_thread.o
                0x00000510                g_vector_info_CAN_0_MAILBOX_TX
 .vector_info.SCI_0_RXI
                0x00000518        0x8 ./src/synergy_gen/drv_thread.o
                0x00000518                g_vector_info_SCI_0_RXI
 .vector_info.SCI_0_TEI
                0x00000520        0x8 ./src/synergy_gen/drv_thread.o
                0x00000520                g_vector_info_SCI_0_TEI
 .vector_info.SCI_0_TXI
                0x00000528        0x8 ./src/synergy_gen/drv_thread.o
                0x00000528                g_vector_info_SCI_0_TXI
                0x00000530                __Vector_Info_End = .
                0x00000530                __Lock_Lookup_Start = .
 *(SORT_BY_NAME(.hw_lock_lookup.*))
 .hw_lock_lookup.ADC_0U_0U
                0x00000530        0x4 ./synergy/ssp/src/bsp/mcu/s5d9/bsp_hw_locks.o
                0x00000530                g_lock_lookup_ADC_0U_0U
 .hw_lock_lookup.ADC_0U_1U
                0x00000534        0x4 ./synergy/ssp/src/bsp/mcu/s5d9/bsp_hw_locks.o
                0x00000534                g_lock_lookup_ADC_0U_1U
 .hw_lock_lookup.AGT_0U_0U
                0x00000538        0x4 ./synergy/ssp/src/bsp/mcu/s5d9/bsp_hw_locks.o
                0x00000538                g_lock_lookup_AGT_0U_0U
 .hw_lock_lookup.AGT_0U_1U
                0x0000053c        0x4 ./synergy/ssp/src/bsp/mcu/s5d9/bsp_hw_locks.o
                0x0000053c                g_lock_lookup_AGT_0U_1U
 .hw_lock_lookup.BSC_0U_1U
                0x00000540        0x4 ./synergy/ssp/src/bsp/mcu/s5d9/bsp_hw_locks.o
                0x00000540                g_lock_lookup_BSC_0U_1U
 .hw_lock_lookup.CAC_0U_0U
                0x00000544        0x4 ./synergy/ssp/src/bsp/mcu/s5d9/bsp_hw_locks.o
                0x00000544                g_lock_lookup_CAC_0U_0U
 .hw_lock_lookup.CAN_0U_0U
                0x00000548        0x4 ./synergy/ssp/src/bsp/mcu/s5d9/bsp_hw_locks.o
                0x00000548                g_lock_lookup_CAN_0U_0U
 .hw_lock_lookup.CAN_0U_1U
                0x0000054c        0x4 ./synergy/ssp/src/bsp/mcu/s5d9/bsp_hw_locks.o
                0x0000054c                g_lock_lookup_CAN_0U_1U
 .hw_lock_lookup.COMP_HS_0U_0U
                0x00000550        0x4 ./synergy/ssp/src/bsp/mcu/s5d9/bsp_hw_locks.o
                0x00000550                g_lock_lookup_COMP_HS_0U_0U
 .hw_lock_lookup.COMP_HS_0U_1U
                0x00000554        0x4 ./synergy/ssp/src/bsp/mcu/s5d9/bsp_hw_locks.o
                0x00000554                g_lock_lookup_COMP_HS_0U_1U
 .hw_lock_lookup.COMP_HS_0U_2U
                0x00000558        0x4 ./synergy/ssp/src/bsp/mcu/s5d9/bsp_hw_locks.o
                0x00000558                g_lock_lookup_COMP_HS_0U_2U
 .hw_lock_lookup.COMP_HS_0U_3U
                0x0000055c        0x4 ./synergy/ssp/src/bsp/mcu/s5d9/bsp_hw_locks.o
                0x0000055c                g_lock_lookup_COMP_HS_0U_3U
 .hw_lock_lookup.COMP_HS_0U_4U
                0x00000560        0x4 ./synergy/ssp/src/bsp/mcu/s5d9/bsp_hw_locks.o
                0x00000560                g_lock_lookup_COMP_HS_0U_4U
 .hw_lock_lookup.COMP_HS_0U_5U
                0x00000564        0x4 ./synergy/ssp/src/bsp/mcu/s5d9/bsp_hw_locks.o
                0x00000564                g_lock_lookup_COMP_HS_0U_5U
 .hw_lock_lookup.CRC_0U_0U
                0x00000568        0x4 ./synergy/ssp/src/bsp/mcu/s5d9/bsp_hw_locks.o
                0x00000568                g_lock_lookup_CRC_0U_0U
 .hw_lock_lookup.CTSU_0U_0U
                0x0000056c        0x4 ./synergy/ssp/src/bsp/mcu/s5d9/bsp_hw_locks.o
                0x0000056c                g_lock_lookup_CTSU_0U_0U
 .hw_lock_lookup.DAAD_0U_0U
                0x00000570        0x4 ./synergy/ssp/src/bsp/mcu/s5d9/bsp_hw_locks.o
                0x00000570                g_lock_lookup_DAAD_0U_0U
 .hw_lock_lookup.DAC_0U_0U
                0x00000574        0x4 ./synergy/ssp/src/bsp/mcu/s5d9/bsp_hw_locks.o
                0x00000574                g_lock_lookup_DAC_0U_0U
 .hw_lock_lookup.DAC_0U_1U
                0x00000578        0x4 ./synergy/ssp/src/bsp/mcu/s5d9/bsp_hw_locks.o
                0x00000578                g_lock_lookup_DAC_0U_1U
 .hw_lock_lookup.DMAC_0U_0U
                0x0000057c        0x4 ./synergy/ssp/src/bsp/mcu/s5d9/bsp_hw_locks.o
                0x0000057c                g_lock_lookup_DMAC_0U_0U
 .hw_lock_lookup.DMAC_0U_1U
                0x00000580        0x4 ./synergy/ssp/src/bsp/mcu/s5d9/bsp_hw_locks.o
                0x00000580                g_lock_lookup_DMAC_0U_1U
 .hw_lock_lookup.DMAC_0U_2U
                0x00000584        0x4 ./synergy/ssp/src/bsp/mcu/s5d9/bsp_hw_locks.o
                0x00000584                g_lock_lookup_DMAC_0U_2U
 .hw_lock_lookup.DMAC_0U_3U
                0x00000588        0x4 ./synergy/ssp/src/bsp/mcu/s5d9/bsp_hw_locks.o
                0x00000588                g_lock_lookup_DMAC_0U_3U
 .hw_lock_lookup.DMAC_0U_4U
                0x0000058c        0x4 ./synergy/ssp/src/bsp/mcu/s5d9/bsp_hw_locks.o
                0x0000058c                g_lock_lookup_DMAC_0U_4U
 .hw_lock_lookup.DMAC_0U_5U
                0x00000590        0x4 ./synergy/ssp/src/bsp/mcu/s5d9/bsp_hw_locks.o
                0x00000590                g_lock_lookup_DMAC_0U_5U
 .hw_lock_lookup.DMAC_0U_6U
                0x00000594        0x4 ./synergy/ssp/src/bsp/mcu/s5d9/bsp_hw_locks.o
                0x00000594                g_lock_lookup_DMAC_0U_6U
 .hw_lock_lookup.DMAC_0U_7U
                0x00000598        0x4 ./synergy/ssp/src/bsp/mcu/s5d9/bsp_hw_locks.o
                0x00000598                g_lock_lookup_DMAC_0U_7U
 .hw_lock_lookup.DOC_0U_0U
                0x0000059c        0x4 ./synergy/ssp/src/bsp/mcu/s5d9/bsp_hw_locks.o
                0x0000059c                g_lock_lookup_DOC_0U_0U
 .hw_lock_lookup.DRW_0U_0U
                0x000005a0        0x4 ./synergy/ssp/src/bsp/mcu/s5d9/bsp_hw_locks.o
                0x000005a0                g_lock_lookup_DRW_0U_0U
 .hw_lock_lookup.DTC_0U_0U
                0x000005a4        0x4 ./synergy/ssp/src/bsp/mcu/s5d9/bsp_hw_locks.o
                0x000005a4                g_lock_lookup_DTC_0U_0U
 .hw_lock_lookup.ELC_0U_0U
                0x000005a8        0x4 ./synergy/ssp/src/bsp/mcu/s5d9/bsp_hw_locks.o
                0x000005a8                g_lock_lookup_ELC_0U_0U
 .hw_lock_lookup.EPTPC_0U_0U
                0x000005ac        0x4 ./synergy/ssp/src/bsp/mcu/s5d9/bsp_hw_locks.o
                0x000005ac                g_lock_lookup_EPTPC_0U_0U
 .hw_lock_lookup.ETHER_0U_0U
                0x000005b0        0x4 ./synergy/ssp/src/bsp/mcu/s5d9/bsp_hw_locks.o
                0x000005b0                g_lock_lookup_ETHER_0U_0U
 .hw_lock_lookup.ETHER_0U_1U
                0x000005b4        0x4 ./synergy/ssp/src/bsp/mcu/s5d9/bsp_hw_locks.o
                0x000005b4                g_lock_lookup_ETHER_0U_1U
 .hw_lock_lookup.FCU_0U_0U
                0x000005b8        0x4 ./synergy/ssp/src/bsp/mcu/s5d9/bsp_hw_locks.o
                0x000005b8                g_lock_lookup_FCU_0U_0U
 .hw_lock_lookup.GLCDC_0U_0U
                0x000005bc        0x4 ./synergy/ssp/src/bsp/mcu/s5d9/bsp_hw_locks.o
                0x000005bc                g_lock_lookup_GLCDC_0U_0U
 .hw_lock_lookup.GPT_0U_0U
                0x000005c0        0x4 ./synergy/ssp/src/bsp/mcu/s5d9/bsp_hw_locks.o
                0x000005c0                g_lock_lookup_GPT_0U_0U
 .hw_lock_lookup.GPT_0U_10U
                0x000005c4        0x4 ./synergy/ssp/src/bsp/mcu/s5d9/bsp_hw_locks.o
                0x000005c4                g_lock_lookup_GPT_0U_10U
 .hw_lock_lookup.GPT_0U_11U
                0x000005c8        0x4 ./synergy/ssp/src/bsp/mcu/s5d9/bsp_hw_locks.o
                0x000005c8                g_lock_lookup_GPT_0U_11U
 .hw_lock_lookup.GPT_0U_12U
                0x000005cc        0x4 ./synergy/ssp/src/bsp/mcu/s5d9/bsp_hw_locks.o
                0x000005cc                g_lock_lookup_GPT_0U_12U
 .hw_lock_lookup.GPT_0U_13U
                0x000005d0        0x4 ./synergy/ssp/src/bsp/mcu/s5d9/bsp_hw_locks.o
                0x000005d0                g_lock_lookup_GPT_0U_13U
 .hw_lock_lookup.GPT_0U_1U
                0x000005d4        0x4 ./synergy/ssp/src/bsp/mcu/s5d9/bsp_hw_locks.o
                0x000005d4                g_lock_lookup_GPT_0U_1U
 .hw_lock_lookup.GPT_0U_2U
                0x000005d8        0x4 ./synergy/ssp/src/bsp/mcu/s5d9/bsp_hw_locks.o
                0x000005d8                g_lock_lookup_GPT_0U_2U
 .hw_lock_lookup.GPT_0U_3U
                0x000005dc        0x4 ./synergy/ssp/src/bsp/mcu/s5d9/bsp_hw_locks.o
                0x000005dc                g_lock_lookup_GPT_0U_3U
 .hw_lock_lookup.GPT_0U_4U
                0x000005e0        0x4 ./synergy/ssp/src/bsp/mcu/s5d9/bsp_hw_locks.o
                0x000005e0                g_lock_lookup_GPT_0U_4U
 .hw_lock_lookup.GPT_0U_5U
                0x000005e4        0x4 ./synergy/ssp/src/bsp/mcu/s5d9/bsp_hw_locks.o
                0x000005e4                g_lock_lookup_GPT_0U_5U
 .hw_lock_lookup.GPT_0U_6U
                0x000005e8        0x4 ./synergy/ssp/src/bsp/mcu/s5d9/bsp_hw_locks.o
                0x000005e8                g_lock_lookup_GPT_0U_6U
 .hw_lock_lookup.GPT_0U_7U
                0x000005ec        0x4 ./synergy/ssp/src/bsp/mcu/s5d9/bsp_hw_locks.o
                0x000005ec                g_lock_lookup_GPT_0U_7U
 .hw_lock_lookup.GPT_0U_8U
                0x000005f0        0x4 ./synergy/ssp/src/bsp/mcu/s5d9/bsp_hw_locks.o
                0x000005f0                g_lock_lookup_GPT_0U_8U
 .hw_lock_lookup.GPT_0U_9U
                0x000005f4        0x4 ./synergy/ssp/src/bsp/mcu/s5d9/bsp_hw_locks.o
                0x000005f4                g_lock_lookup_GPT_0U_9U
 .hw_lock_lookup.ICU_0U_0U
                0x000005f8        0x4 ./synergy/ssp/src/bsp/mcu/s5d9/bsp_hw_locks.o
                0x000005f8                g_lock_lookup_ICU_0U_0U
 .hw_lock_lookup.ICU_0U_10U
                0x000005fc        0x4 ./synergy/ssp/src/bsp/mcu/s5d9/bsp_hw_locks.o
                0x000005fc                g_lock_lookup_ICU_0U_10U
 .hw_lock_lookup.ICU_0U_11U
                0x00000600        0x4 ./synergy/ssp/src/bsp/mcu/s5d9/bsp_hw_locks.o
                0x00000600                g_lock_lookup_ICU_0U_11U
 .hw_lock_lookup.ICU_0U_12U
                0x00000604        0x4 ./synergy/ssp/src/bsp/mcu/s5d9/bsp_hw_locks.o
                0x00000604                g_lock_lookup_ICU_0U_12U
 .hw_lock_lookup.ICU_0U_13U
                0x00000608        0x4 ./synergy/ssp/src/bsp/mcu/s5d9/bsp_hw_locks.o
                0x00000608                g_lock_lookup_ICU_0U_13U
 .hw_lock_lookup.ICU_0U_14U
                0x0000060c        0x4 ./synergy/ssp/src/bsp/mcu/s5d9/bsp_hw_locks.o
                0x0000060c                g_lock_lookup_ICU_0U_14U
 .hw_lock_lookup.ICU_0U_15U
                0x00000610        0x4 ./synergy/ssp/src/bsp/mcu/s5d9/bsp_hw_locks.o
                0x00000610                g_lock_lookup_ICU_0U_15U
 .hw_lock_lookup.ICU_0U_1U
                0x00000614        0x4 ./synergy/ssp/src/bsp/mcu/s5d9/bsp_hw_locks.o
                0x00000614                g_lock_lookup_ICU_0U_1U
 .hw_lock_lookup.ICU_0U_2U
                0x00000618        0x4 ./synergy/ssp/src/bsp/mcu/s5d9/bsp_hw_locks.o
                0x00000618                g_lock_lookup_ICU_0U_2U
 .hw_lock_lookup.ICU_0U_3U
                0x0000061c        0x4 ./synergy/ssp/src/bsp/mcu/s5d9/bsp_hw_locks.o
                0x0000061c                g_lock_lookup_ICU_0U_3U
 .hw_lock_lookup.ICU_0U_4U
                0x00000620        0x4 ./synergy/ssp/src/bsp/mcu/s5d9/bsp_hw_locks.o
                0x00000620                g_lock_lookup_ICU_0U_4U
 .hw_lock_lookup.ICU_0U_5U
                0x00000624        0x4 ./synergy/ssp/src/bsp/mcu/s5d9/bsp_hw_locks.o
                0x00000624                g_lock_lookup_ICU_0U_5U
 .hw_lock_lookup.ICU_0U_6U
                0x00000628        0x4 ./synergy/ssp/src/bsp/mcu/s5d9/bsp_hw_locks.o
                0x00000628                g_lock_lookup_ICU_0U_6U
 .hw_lock_lookup.ICU_0U_7U
                0x0000062c        0x4 ./synergy/ssp/src/bsp/mcu/s5d9/bsp_hw_locks.o
                0x0000062c                g_lock_lookup_ICU_0U_7U
 .hw_lock_lookup.ICU_0U_8U
                0x00000630        0x4 ./synergy/ssp/src/bsp/mcu/s5d9/bsp_hw_locks.o
                0x00000630                g_lock_lookup_ICU_0U_8U
 .hw_lock_lookup.ICU_0U_9U
                0x00000634        0x4 ./synergy/ssp/src/bsp/mcu/s5d9/bsp_hw_locks.o
                0x00000634                g_lock_lookup_ICU_0U_9U
 .hw_lock_lookup.IIC_0U_0U
                0x00000638        0x4 ./synergy/ssp/src/bsp/mcu/s5d9/bsp_hw_locks.o
                0x00000638                g_lock_lookup_IIC_0U_0U
 .hw_lock_lookup.IIC_0U_1U
                0x0000063c        0x4 ./synergy/ssp/src/bsp/mcu/s5d9/bsp_hw_locks.o
                0x0000063c                g_lock_lookup_IIC_0U_1U
 .hw_lock_lookup.IIC_0U_2U
                0x00000640        0x4 ./synergy/ssp/src/bsp/mcu/s5d9/bsp_hw_locks.o
                0x00000640                g_lock_lookup_IIC_0U_2U
 .hw_lock_lookup.IRDA_0U_0U
                0x00000644        0x4 ./synergy/ssp/src/bsp/mcu/s5d9/bsp_hw_locks.o
                0x00000644                g_lock_lookup_IRDA_0U_0U
 .hw_lock_lookup.IWDT_0U_0U
                0x00000648        0x4 ./synergy/ssp/src/bsp/mcu/s5d9/bsp_hw_locks.o
                0x00000648                g_lock_lookup_IWDT_0U_0U
 .hw_lock_lookup.JPEG_0U_0U
                0x0000064c        0x4 ./synergy/ssp/src/bsp/mcu/s5d9/bsp_hw_locks.o
                0x0000064c                g_lock_lookup_JPEG_0U_0U
 .hw_lock_lookup.KEY_0U_0U
                0x00000650        0x4 ./synergy/ssp/src/bsp/mcu/s5d9/bsp_hw_locks.o
                0x00000650                g_lock_lookup_KEY_0U_0U
 .hw_lock_lookup.LPM_1U_0U
                0x00000654        0x4 ./synergy/ssp/src/bsp/mcu/s5d9/bsp_hw_locks.o
                0x00000654                g_lock_lookup_LPM_1U_0U
 .hw_lock_lookup.LVD_0U_0U
                0x00000658        0x4 ./synergy/ssp/src/bsp/mcu/s5d9/bsp_hw_locks.o
                0x00000658                g_lock_lookup_LVD_0U_0U
 .hw_lock_lookup.LVD_0U_1U
                0x0000065c        0x4 ./synergy/ssp/src/bsp/mcu/s5d9/bsp_hw_locks.o
                0x0000065c                g_lock_lookup_LVD_0U_1U
 .hw_lock_lookup.MMF_0U_0U
                0x00000660        0x4 ./synergy/ssp/src/bsp/mcu/s5d9/bsp_hw_locks.o
                0x00000660                g_lock_lookup_MMF_0U_0U
 .hw_lock_lookup.MPU_0U_0U
                0x00000664        0x4 ./synergy/ssp/src/bsp/mcu/s5d9/bsp_hw_locks.o
                0x00000664                g_lock_lookup_MPU_0U_0U
 .hw_lock_lookup.OPS_0U_0U
                0x00000668        0x4 ./synergy/ssp/src/bsp/mcu/s5d9/bsp_hw_locks.o
                0x00000668                g_lock_lookup_OPS_0U_0U
 .hw_lock_lookup.PDC_0U_0U
                0x0000066c        0x4 ./synergy/ssp/src/bsp/mcu/s5d9/bsp_hw_locks.o
                0x0000066c                g_lock_lookup_PDC_0U_0U
 .hw_lock_lookup.POEG_0U_0U
                0x00000670        0x4 ./synergy/ssp/src/bsp/mcu/s5d9/bsp_hw_locks.o
                0x00000670                g_lock_lookup_POEG_0U_0U
 .hw_lock_lookup.POEG_0U_1U
                0x00000674        0x4 ./synergy/ssp/src/bsp/mcu/s5d9/bsp_hw_locks.o
                0x00000674                g_lock_lookup_POEG_0U_1U
 .hw_lock_lookup.POEG_0U_2U
                0x00000678        0x4 ./synergy/ssp/src/bsp/mcu/s5d9/bsp_hw_locks.o
                0x00000678                g_lock_lookup_POEG_0U_2U
 .hw_lock_lookup.POEG_0U_3U
                0x0000067c        0x4 ./synergy/ssp/src/bsp/mcu/s5d9/bsp_hw_locks.o
                0x0000067c                g_lock_lookup_POEG_0U_3U
 .hw_lock_lookup.QSPI_0U_0U
                0x00000680        0x4 ./synergy/ssp/src/bsp/mcu/s5d9/bsp_hw_locks.o
                0x00000680                g_lock_lookup_QSPI_0U_0U
 .hw_lock_lookup.RTC_0U_0U
                0x00000684        0x4 ./synergy/ssp/src/bsp/mcu/s5d9/bsp_hw_locks.o
                0x00000684                g_lock_lookup_RTC_0U_0U
 .hw_lock_lookup.SCE_0U_0U
                0x00000688        0x4 ./synergy/ssp/src/bsp/mcu/s5d9/bsp_hw_locks.o
                0x00000688                g_lock_lookup_SCE_0U_0U
 .hw_lock_lookup.SCI_0U_0U
                0x0000068c        0x4 ./synergy/ssp/src/bsp/mcu/s5d9/bsp_hw_locks.o
                0x0000068c                g_lock_lookup_SCI_0U_0U
 .hw_lock_lookup.SCI_0U_1U
                0x00000690        0x4 ./synergy/ssp/src/bsp/mcu/s5d9/bsp_hw_locks.o
                0x00000690                g_lock_lookup_SCI_0U_1U
 .hw_lock_lookup.SCI_0U_2U
                0x00000694        0x4 ./synergy/ssp/src/bsp/mcu/s5d9/bsp_hw_locks.o
                0x00000694                g_lock_lookup_SCI_0U_2U
 .hw_lock_lookup.SCI_0U_3U
                0x00000698        0x4 ./synergy/ssp/src/bsp/mcu/s5d9/bsp_hw_locks.o
                0x00000698                g_lock_lookup_SCI_0U_3U
 .hw_lock_lookup.SCI_0U_4U
                0x0000069c        0x4 ./synergy/ssp/src/bsp/mcu/s5d9/bsp_hw_locks.o
                0x0000069c                g_lock_lookup_SCI_0U_4U
 .hw_lock_lookup.SCI_0U_5U
                0x000006a0        0x4 ./synergy/ssp/src/bsp/mcu/s5d9/bsp_hw_locks.o
                0x000006a0                g_lock_lookup_SCI_0U_5U
 .hw_lock_lookup.SCI_0U_6U
                0x000006a4        0x4 ./synergy/ssp/src/bsp/mcu/s5d9/bsp_hw_locks.o
                0x000006a4                g_lock_lookup_SCI_0U_6U
 .hw_lock_lookup.SCI_0U_7U
                0x000006a8        0x4 ./synergy/ssp/src/bsp/mcu/s5d9/bsp_hw_locks.o
                0x000006a8                g_lock_lookup_SCI_0U_7U
 .hw_lock_lookup.SCI_0U_8U
                0x000006ac        0x4 ./synergy/ssp/src/bsp/mcu/s5d9/bsp_hw_locks.o
                0x000006ac                g_lock_lookup_SCI_0U_8U
 .hw_lock_lookup.SCI_0U_9U
                0x000006b0        0x4 ./synergy/ssp/src/bsp/mcu/s5d9/bsp_hw_locks.o
                0x000006b0                g_lock_lookup_SCI_0U_9U
 .hw_lock_lookup.SDHIMMC_0U_0U
                0x000006b4        0x4 ./synergy/ssp/src/bsp/mcu/s5d9/bsp_hw_locks.o
                0x000006b4                g_lock_lookup_SDHIMMC_0U_0U
 .hw_lock_lookup.SDHIMMC_0U_1U
                0x000006b8        0x4 ./synergy/ssp/src/bsp/mcu/s5d9/bsp_hw_locks.o
                0x000006b8                g_lock_lookup_SDHIMMC_0U_1U
 .hw_lock_lookup.SPI_0U_0U
                0x000006bc        0x4 ./synergy/ssp/src/bsp/mcu/s5d9/bsp_hw_locks.o
                0x000006bc                g_lock_lookup_SPI_0U_0U
 .hw_lock_lookup.SPI_0U_1U
                0x000006c0        0x4 ./synergy/ssp/src/bsp/mcu/s5d9/bsp_hw_locks.o
                0x000006c0                g_lock_lookup_SPI_0U_1U
 .hw_lock_lookup.SRC_0U_0U
                0x000006c4        0x4 ./synergy/ssp/src/bsp/mcu/s5d9/bsp_hw_locks.o
                0x000006c4                g_lock_lookup_SRC_0U_0U
 .hw_lock_lookup.SSI_0U_0U
                0x000006c8        0x4 ./synergy/ssp/src/bsp/mcu/s5d9/bsp_hw_locks.o
                0x000006c8                g_lock_lookup_SSI_0U_0U
 .hw_lock_lookup.SSI_0U_1U
                0x000006cc        0x4 ./synergy/ssp/src/bsp/mcu/s5d9/bsp_hw_locks.o
                0x000006cc                g_lock_lookup_SSI_0U_1U
 .hw_lock_lookup.TSN_0U_0U
                0x000006d0        0x4 ./synergy/ssp/src/bsp/mcu/s5d9/bsp_hw_locks.o
                0x000006d0                g_lock_lookup_TSN_0U_0U
 .hw_lock_lookup.USB_0U_0U
                0x000006d4        0x4 ./synergy/ssp/src/bsp/mcu/s5d9/bsp_hw_locks.o
                0x000006d4                g_lock_lookup_USB_0U_0U
 .hw_lock_lookup.USB_1U_0U
                0x000006d8        0x4 ./synergy/ssp/src/bsp/mcu/s5d9/bsp_hw_locks.o
                0x000006d8                g_lock_lookup_USB_1U_0U
 .hw_lock_lookup.WDT_0U_0U
                0x000006dc        0x4 ./synergy/ssp/src/bsp/mcu/s5d9/bsp_hw_locks.o
                0x000006dc                g_lock_lookup_WDT_0U_0U
                0x000006e0                __Lock_Lookup_End = .
 *(.text*)
 .text          0x000006e0       0x40 c:/renesas/synergy/e2studio_v2022-10_ssp_v2.4.0/toolchains/gcc_arm/gcc-arm-none-eabi-10.3-2021.10/bin/../lib/gcc/arm-none-eabi/10.3.1/thumb/v7e-m+fp/hard/crtbegin.o
 .text.R_SCI_SIIC_MasterVersionGet
                0x00000720       0x10 ./synergy/ssp/src/driver/r_sci_i2c/r_sci_i2c.o
                0x00000720                R_SCI_SIIC_MasterVersionGet
 .text.R_SCI_SIIC_MasterSlaveAddressSet
                0x00000730       0x38 ./synergy/ssp/src/driver/r_sci_i2c/r_sci_i2c.o
                0x00000730                R_SCI_SIIC_MasterSlaveAddressSet
 .text.sci_siic_stop_transfer_interface
                0x00000768       0x50 ./synergy/ssp/src/driver/r_sci_i2c/r_sci_i2c.o
 .text.sci_siic_enable_transfer_support_tx
                0x000007b8       0x34 ./synergy/ssp/src/driver/r_sci_i2c/r_sci_i2c.o
 .text.R_SCI_SIIC_MasterOpen
                0x000007ec      0x728 ./synergy/ssp/src/driver/r_sci_i2c/r_sci_i2c.o
                0x000007ec                R_SCI_SIIC_MasterOpen
 .text.sci_siic_abort_hw_master
                0x00000f14      0x130 ./synergy/ssp/src/driver/r_sci_i2c/r_sci_i2c.o
 .text.sci_siic_run_hw_master
                0x00001044      0x254 ./synergy/ssp/src/driver/r_sci_i2c/r_sci_i2c.o
 .text.R_SCI_SIIC_MasterRead
                0x00001298       0xb4 ./synergy/ssp/src/driver/r_sci_i2c/r_sci_i2c.o
                0x00001298                R_SCI_SIIC_MasterRead
 .text.R_SCI_SIIC_MasterWrite
                0x0000134c       0xc4 ./synergy/ssp/src/driver/r_sci_i2c/r_sci_i2c.o
                0x0000134c                R_SCI_SIIC_MasterWrite
 .text.R_SCI_SIIC_MasterReset
                0x00001410       0x74 ./synergy/ssp/src/driver/r_sci_i2c/r_sci_i2c.o
                0x00001410                R_SCI_SIIC_MasterReset
 .text.R_SCI_SIIC_MasterClose
                0x00001484      0x1a8 ./synergy/ssp/src/driver/r_sci_i2c/r_sci_i2c.o
                0x00001484                R_SCI_SIIC_MasterClose
 .text.sci_i2c_rxi_isr
                0x0000162c      0x144 ./synergy/ssp/src/driver/r_sci_i2c/r_sci_i2c.o
                0x0000162c                sci_i2c_rxi_isr
 .text.sci_i2c_txi_isr
                0x00001770      0x220 ./synergy/ssp/src/driver/r_sci_i2c/r_sci_i2c.o
                0x00001770                sci_i2c_txi_isr
 .text.sci_i2c_tei_isr
                0x00001990      0x170 ./synergy/ssp/src/driver/r_sci_i2c/r_sci_i2c.o
                0x00001990                sci_i2c_tei_isr
 .text.R_IOPORT_PortRead
                0x00001b00       0x34 ./synergy/ssp/src/driver/r_ioport/r_ioport.o
                0x00001b00                R_IOPORT_PortRead
 .text.R_IOPORT_PortWrite
                0x00001b34       0x40 ./synergy/ssp/src/driver/r_ioport/r_ioport.o
                0x00001b34                R_IOPORT_PortWrite
 .text.R_IOPORT_PortDirectionSet
                0x00001b74       0x50 ./synergy/ssp/src/driver/r_ioport/r_ioport.o
                0x00001b74                R_IOPORT_PortDirectionSet
 .text.R_IOPORT_PortEventInputRead
                0x00001bc4       0x34 ./synergy/ssp/src/driver/r_ioport/r_ioport.o
                0x00001bc4                R_IOPORT_PortEventInputRead
 .text.R_IOPORT_PortEventOutputWrite
                0x00001bf8       0x3c ./synergy/ssp/src/driver/r_ioport/r_ioport.o
                0x00001bf8                R_IOPORT_PortEventOutputWrite
 .text.R_IOPORT_VersionGet
                0x00001c34       0x10 ./synergy/ssp/src/driver/r_ioport/r_ioport.o
                0x00001c34                R_IOPORT_VersionGet
 .text.bsp_vbatt_init
                0x00001c44       0xac ./synergy/ssp/src/driver/r_ioport/r_ioport.o
 .text.R_IOPORT_PinDirectionSet
                0x00001cf0       0xd0 ./synergy/ssp/src/driver/r_ioport/r_ioport.o
                0x00001cf0                R_IOPORT_PinDirectionSet
 .text.R_IOPORT_EthernetModeCfg
                0x00001dc0       0x50 ./synergy/ssp/src/driver/r_ioport/r_ioport.o
                0x00001dc0                R_IOPORT_EthernetModeCfg
 .text.R_IOPORT_PinsCfg
                0x00001e10       0xd4 ./synergy/ssp/src/driver/r_ioport/r_ioport.o
                0x00001e10                R_IOPORT_PinsCfg
 .text.R_IOPORT_Init
                0x00001ee4       0x74 ./synergy/ssp/src/driver/r_ioport/r_ioport.o
                0x00001ee4                R_IOPORT_Init
 .text.R_IOPORT_PinRead
                0x00001f58       0x50 ./synergy/ssp/src/driver/r_ioport/r_ioport.o
                0x00001f58                R_IOPORT_PinRead
 .text.R_IOPORT_PinEventInputRead
                0x00001fa8       0x5c ./synergy/ssp/src/driver/r_ioport/r_ioport.o
                0x00001fa8                R_IOPORT_PinEventInputRead
 .text.R_IOPORT_PinEventOutputWrite
                0x00002004       0x64 ./synergy/ssp/src/driver/r_ioport/r_ioport.o
                0x00002004                R_IOPORT_PinEventOutputWrite
 .text.R_IOPORT_PinWrite
                0x00002068       0x54 ./synergy/ssp/src/driver/r_ioport/r_ioport.o
                0x00002068                R_IOPORT_PinWrite
 .text.R_IOPORT_PinCfg
                0x000020bc       0xc8 ./synergy/ssp/src/driver/r_ioport/r_ioport.o
                0x000020bc                R_IOPORT_PinCfg
 .text.R_ELC_LinkSet
                0x00002184       0x14 ./synergy/ssp/src/driver/r_elc/r_elc.o
                0x00002184                R_ELC_LinkSet
 .text.R_ELC_LinkBreak
                0x00002198       0x14 ./synergy/ssp/src/driver/r_elc/r_elc.o
                0x00002198                R_ELC_LinkBreak
 .text.R_ELC_Enable
                0x000021ac       0x14 ./synergy/ssp/src/driver/r_elc/r_elc.o
                0x000021ac                R_ELC_Enable
 .text.R_ELC_Disable
                0x000021c0       0x14 ./synergy/ssp/src/driver/r_elc/r_elc.o
                0x000021c0                R_ELC_Disable
 .text.R_ELC_VersionGet
                0x000021d4       0x10 ./synergy/ssp/src/driver/r_elc/r_elc.o
                0x000021d4                R_ELC_VersionGet
 .text.R_ELC_Init
                0x000021e4       0x7c ./synergy/ssp/src/driver/r_elc/r_elc.o
                0x000021e4                R_ELC_Init
 .text.R_ELC_SoftwareEventGenerate
                0x00002260       0x30 ./synergy/ssp/src/driver/r_elc/r_elc.o
                0x00002260                R_ELC_SoftwareEventGenerate
 .text.R_DTC_Start
                0x00002290        0x4 ./synergy/ssp/src/driver/r_dtc/r_dtc.o
                0x00002290                R_DTC_Start
 .text.R_DTC_Stop
                0x00002294        0x4 ./synergy/ssp/src/driver/r_dtc/r_dtc.o
                0x00002294                R_DTC_Stop
 .text.R_DTC_Disable
                0x00002298       0x34 ./synergy/ssp/src/driver/r_dtc/r_dtc.o
                0x00002298                R_DTC_Disable
 .text.R_DTC_VersionGet
                0x000022cc       0x10 ./synergy/ssp/src/driver/r_dtc/r_dtc.o
                0x000022cc                R_DTC_VersionGet
 .text.R_DTC_InfoGet
                0x000022dc       0x78 ./synergy/ssp/src/driver/r_dtc/r_dtc.o
                0x000022dc                R_DTC_InfoGet
 .text.R_DTC_Close
                0x00002354       0x58 ./synergy/ssp/src/driver/r_dtc/r_dtc.o
                0x00002354                R_DTC_Close
 .text.R_DTC_Enable
                0x000023ac       0x8c ./synergy/ssp/src/driver/r_dtc/r_dtc.o
                0x000023ac                R_DTC_Enable
 .text.R_DTC_Reset
                0x00002438       0xac ./synergy/ssp/src/driver/r_dtc/r_dtc.o
                0x00002438                R_DTC_Reset
 .text.R_DTC_BlockReset
                0x000024e4       0xbc ./synergy/ssp/src/driver/r_dtc/r_dtc.o
                0x000024e4                R_DTC_BlockReset
 .text.R_DTC_Open
                0x000025a0      0x17c ./synergy/ssp/src/driver/r_dtc/r_dtc.o
                0x000025a0                R_DTC_Open
 .text.R_DTC_Stop_ActivationRequest
                0x0000271c        0x4 ./synergy/ssp/src/driver/r_dtc/r_dtc.o
                0x0000271c                R_DTC_Stop_ActivationRequest
 .text.R_CGC_LCDClockCfg
                0x00002720        0x4 ./synergy/ssp/src/driver/r_cgc/r_cgc.o
                0x00002720                R_CGC_LCDClockCfg
 .text.R_CGC_LCDClockEnable
                0x00002724        0x4 ./synergy/ssp/src/driver/r_cgc/r_cgc.o
                0x00002724                R_CGC_LCDClockEnable
 .text.R_CGC_VersionGet
                0x00002728       0x10 ./synergy/ssp/src/driver/r_cgc/r_cgc.o
                0x00002728                R_CGC_VersionGet
 .text.r_cgc_init_pllfreq
                0x00002738       0xd8 ./synergy/ssp/src/driver/r_cgc/r_cgc.o
 .text.R_CGC_SystemClockFreqGet
                0x00002810       0xb0 ./synergy/ssp/src/driver/r_cgc/r_cgc.o
                0x00002810                R_CGC_SystemClockFreqGet
 .text.R_CGC_BusClockOutCfg
                0x000028c0       0x28 ./synergy/ssp/src/driver/r_cgc/r_cgc.o
                0x000028c0                R_CGC_BusClockOutCfg
 .text.R_CGC_BusClockOutEnable
                0x000028e8       0x28 ./synergy/ssp/src/driver/r_cgc/r_cgc.o
                0x000028e8                R_CGC_BusClockOutEnable
 .text.R_CGC_BusClockOutDisable
                0x00002910       0x28 ./synergy/ssp/src/driver/r_cgc/r_cgc.o
                0x00002910                R_CGC_BusClockOutDisable
 .text.R_CGC_ClockOutEnable
                0x00002938       0x28 ./synergy/ssp/src/driver/r_cgc/r_cgc.o
                0x00002938                R_CGC_ClockOutEnable
 .text.R_CGC_ClockOutDisable
                0x00002960       0x28 ./synergy/ssp/src/driver/r_cgc/r_cgc.o
                0x00002960                R_CGC_ClockOutDisable
 .text.R_CGC_SDRAMClockOutEnable
                0x00002988       0x28 ./synergy/ssp/src/driver/r_cgc/r_cgc.o
                0x00002988                R_CGC_SDRAMClockOutEnable
 .text.R_CGC_SDRAMClockOutDisable
                0x000029b0       0x28 ./synergy/ssp/src/driver/r_cgc/r_cgc.o
                0x000029b0                R_CGC_SDRAMClockOutDisable
 .text.R_CGC_USBClockCfg
                0x000029d8       0x28 ./synergy/ssp/src/driver/r_cgc/r_cgc.o
                0x000029d8                R_CGC_USBClockCfg
 .text.R_CGC_SystickUpdate.part.0
                0x00002a00       0x84 ./synergy/ssp/src/driver/r_cgc/r_cgc.o
 .text.R_CGC_SystickUpdate
                0x00002a84        0xc ./synergy/ssp/src/driver/r_cgc/r_cgc.o
                0x00002a84                R_CGC_SystickUpdate
 .text.R_CGC_ClockOutCfg
                0x00002a90       0x5c ./synergy/ssp/src/driver/r_cgc/r_cgc.o
                0x00002a90                R_CGC_ClockOutCfg
 .text.r_cgc_system_dividers_set.isra.0
                0x00002aec       0x5c ./synergy/ssp/src/driver/r_cgc/r_cgc.o
 .text.R_CGC_OscStopStatusClear
                0x00002b48       0x64 ./synergy/ssp/src/driver/r_cgc/r_cgc.o
                0x00002b48                R_CGC_OscStopStatusClear
 .text.R_CGC_SDADCClockCfg
                0x00002bac        0x4 ./synergy/ssp/src/driver/r_cgc/r_cgc.o
                0x00002bac                R_CGC_SDADCClockCfg
 .text.R_CGC_SDADCClockEnable
                0x00002bb0        0x4 ./synergy/ssp/src/driver/r_cgc/r_cgc.o
                0x00002bb0                R_CGC_SDADCClockEnable
 .text.R_CGC_SDADCClockDisable
                0x00002bb4        0x4 ./synergy/ssp/src/driver/r_cgc/r_cgc.o
                0x00002bb4                R_CGC_SDADCClockDisable
 .text.R_CGC_LCDClockDisable
                0x00002bb8        0x4 ./synergy/ssp/src/driver/r_cgc/r_cgc.o
                0x00002bb8                R_CGC_LCDClockDisable
 .text.R_CGC_SystemClockGet
                0x00002bbc       0x5c ./synergy/ssp/src/driver/r_cgc/r_cgc.o
                0x00002bbc                R_CGC_SystemClockGet
 .text.R_CGC_OscStopDetect
                0x00002c18      0x108 ./synergy/ssp/src/driver/r_cgc/r_cgc.o
                0x00002c18                R_CGC_OscStopDetect
 .text.R_CGC_Init
                0x00002d20      0x11c ./synergy/ssp/src/driver/r_cgc/r_cgc.o
                0x00002d20                R_CGC_Init
 .text.r_cgc_clock_run_state_get
                0x00002e3c       0x68 ./synergy/ssp/src/driver/r_cgc/r_cgc.o
                0x00002e3c                r_cgc_clock_run_state_get
 .text.R_CGC_ClockStop
                0x00002ea4      0x160 ./synergy/ssp/src/driver/r_cgc/r_cgc.o
                0x00002ea4                R_CGC_ClockStop
 .text.R_CGC_ClockCheck
                0x00003004       0x8c ./synergy/ssp/src/driver/r_cgc/r_cgc.o
                0x00003004                R_CGC_ClockCheck
 .text.r_cgc_operating_hw_modeset
                0x00003090      0x100 ./synergy/ssp/src/driver/r_cgc/r_cgc.o
                0x00003090                r_cgc_operating_hw_modeset
 .text.r_cgc_operating_mode_set
                0x00003190       0x50 ./synergy/ssp/src/driver/r_cgc/r_cgc.o
 .text.R_CGC_SystemClockSet
                0x000031e0      0x1e0 ./synergy/ssp/src/driver/r_cgc/r_cgc.o
                0x000031e0                R_CGC_SystemClockSet
 .text.R_CGC_ClockStart.part.0
                0x000033c0      0x3e4 ./synergy/ssp/src/driver/r_cgc/r_cgc.o
 .text.R_CGC_ClockStart
                0x000037a4       0x70 ./synergy/ssp/src/driver/r_cgc/r_cgc.o
                0x000037a4                R_CGC_ClockStart
 .text.r_cgc_clock_start_stop
                0x00003814       0xc8 ./synergy/ssp/src/driver/r_cgc/r_cgc.o
 .text.R_CGC_ClocksCfg
                0x000038dc      0x16c ./synergy/ssp/src/driver/r_cgc/r_cgc.o
                0x000038dc                R_CGC_ClocksCfg
 .text.HW_CAN_Control
                0x00003a48      0x42c ./synergy/ssp/src/driver/r_can/hw/hw_can.o
                0x00003a48                HW_CAN_Control
 .text.HW_CAN_MailboxIdSet
                0x00003e74       0xc8 ./synergy/ssp/src/driver/r_can/hw/hw_can.o
                0x00003e74                HW_CAN_MailboxIdSet
 .text.HW_CAN_MailboxMaskSet
                0x00003f3c       0x68 ./synergy/ssp/src/driver/r_can/hw/hw_can.o
                0x00003f3c                HW_CAN_MailboxMaskSet
 .text.HW_CAN_TimeStampReset
                0x00003fa4       0x40 ./synergy/ssp/src/driver/r_can/hw/hw_can.o
                0x00003fa4                HW_CAN_TimeStampReset
 .text.HW_CAN_BitRateGet
                0x00003fe4       0x60 ./synergy/ssp/src/driver/r_can/hw/hw_can.o
                0x00003fe4                HW_CAN_BitRateGet
 .text.HW_CAN_MailboxesClear
                0x00004044       0x50 ./synergy/ssp/src/driver/r_can/hw/hw_can.o
                0x00004044                HW_CAN_MailboxesClear
 .text.HW_CAN_MailboxTypeGet
                0x00004094       0x10 ./synergy/ssp/src/driver/r_can/hw/hw_can.o
                0x00004094                HW_CAN_MailboxTypeGet
 .text.HW_CAN_ReceiveDataGet
                0x000040a4       0x68 ./synergy/ssp/src/driver/r_can/hw/hw_can.o
                0x000040a4                HW_CAN_ReceiveDataGet
 .text.HW_CAN_TransmitFrameSend
                0x0000410c       0x78 ./synergy/ssp/src/driver/r_can/hw/hw_can.o
                0x0000410c                HW_CAN_TransmitFrameSend
 .text.HW_CAN_InterruptErrorGet
                0x00004184       0x14 ./synergy/ssp/src/driver/r_can/hw/hw_can.o
                0x00004184                HW_CAN_InterruptErrorGet
 .text.HW_CAN_StatusGet
                0x00004198       0xc0 ./synergy/ssp/src/driver/r_can/hw/hw_can.o
                0x00004198                HW_CAN_StatusGet
 .text.HW_CAN_ErrorsGet
                0x00004258       0x2c ./synergy/ssp/src/driver/r_can/hw/hw_can.o
                0x00004258                HW_CAN_ErrorsGet
 .text.R_CAN_VersionGet
                0x00004284       0x10 ./synergy/ssp/src/driver/r_can/r_can.o
                0x00004284                R_CAN_VersionGet
 .text.R_CAN_Control
                0x00004294       0x34 ./synergy/ssp/src/driver/r_can/r_can.o
                0x00004294                R_CAN_Control
 .text.R_CAN_Write
                0x000042c8       0x74 ./synergy/ssp/src/driver/r_can/r_can.o
                0x000042c8                R_CAN_Write
 .text.R_CAN_InfoGet
                0x0000433c       0x38 ./synergy/ssp/src/driver/r_can/r_can.o
                0x0000433c                R_CAN_InfoGet
 .text.R_CAN_Read
                0x00004374       0xbc ./synergy/ssp/src/driver/r_can/r_can.o
                0x00004374                R_CAN_Read
 .text.can_irq_disable
                0x00004430      0x100 ./synergy/ssp/src/driver/r_can/r_can.o
 .text.R_CAN_Close
                0x00004530       0x40 ./synergy/ssp/src/driver/r_can/r_can.o
                0x00004530                R_CAN_Close
 .text.R_CAN_Open
                0x00004570      0x440 ./synergy/ssp/src/driver/r_can/r_can.o
                0x00004570                R_CAN_Open
 .text.can_error_isr
                0x000049b0       0xe0 ./synergy/ssp/src/driver/r_can/r_can.o
                0x000049b0                can_error_isr
 .text.can_mailbox_rx_isr
                0x00004a90       0x7c ./synergy/ssp/src/driver/r_can/r_can.o
                0x00004a90                can_mailbox_rx_isr
 .text.can_mailbox_tx_isr
                0x00004b0c       0xb0 ./synergy/ssp/src/driver/r_can/r_can.o
                0x00004b0c                can_mailbox_tx_isr
 .text.R_ADC_VersionGet
                0x00004bbc       0x10 ./synergy/ssp/src/driver/r_adc/r_adc.o
                0x00004bbc                R_ADC_VersionGet
 .text.R_ADC_OffsetSet
                0x00004bcc        0x4 ./synergy/ssp/src/driver/r_adc/r_adc.o
                0x00004bcc                R_ADC_OffsetSet
 .text.R_ADC_ScanStart
                0x00004bd0       0x44 ./synergy/ssp/src/driver/r_adc/r_adc.o
                0x00004bd0                R_ADC_ScanStart
 .text.R_ADC_ScanStop
                0x00004c14       0x34 ./synergy/ssp/src/driver/r_adc/r_adc.o
                0x00004c14                R_ADC_ScanStop
 .text.R_ADC_CheckScanDone
                0x00004c48       0x28 ./synergy/ssp/src/driver/r_adc/r_adc.o
                0x00004c48                R_ADC_CheckScanDone
 .text.R_ADC_Read
                0x00004c70       0x64 ./synergy/ssp/src/driver/r_adc/r_adc.o
                0x00004c70                R_ADC_Read
 .text.R_ADC_SetSampleStateCount
                0x00004cd4       0x7c ./synergy/ssp/src/driver/r_adc/r_adc.o
                0x00004cd4                R_ADC_SetSampleStateCount
 .text.R_ADC_InfoGet
                0x00004d50      0x100 ./synergy/ssp/src/driver/r_adc/r_adc.o
                0x00004d50                R_ADC_InfoGet
 .text.R_ADC_Calibrate
                0x00004e50       0x48 ./synergy/ssp/src/driver/r_adc/r_adc.o
                0x00004e50                R_ADC_Calibrate
 .text.r_adc_close_sub
                0x00004e98       0x60 ./synergy/ssp/src/driver/r_adc/r_adc.o
 .text.r_adc_open_configure_pga_settings.part.0
                0x00004ef8      0x214 ./synergy/ssp/src/driver/r_adc/r_adc.o
 .text.R_ADC_Close
                0x0000510c      0x104 ./synergy/ssp/src/driver/r_adc/r_adc.o
                0x0000510c                R_ADC_Close
 .text.R_ADC_Read32
                0x00005210       0x90 ./synergy/ssp/src/driver/r_adc/r_adc.o
                0x00005210                R_ADC_Read32
 .text.R_ADC_Open
                0x000052a0      0x4cc ./synergy/ssp/src/driver/r_adc/r_adc.o
                0x000052a0                R_ADC_Open
 .text.R_ADC_ScanConfigure
                0x0000576c      0x454 ./synergy/ssp/src/driver/r_adc/r_adc.o
                0x0000576c                R_ADC_ScanConfigure
 .text.R_BSP_CacheOff
                0x00005bc0       0x28 ./synergy/ssp/src/bsp/mcu/s5d9/bsp_cache.o
                0x00005bc0                R_BSP_CacheOff
 .text.R_BSP_CacheSet
                0x00005be8       0x48 ./synergy/ssp/src/bsp/mcu/s5d9/bsp_cache.o
                0x00005be8                R_BSP_CacheSet
 .text.bsp_clock_init
                0x00005c30       0xa8 ./synergy/ssp/src/bsp/mcu/s5d9/bsp_clocks.o
                0x00005c30                bsp_clock_init
 .text.bsp_cpu_clock_get
                0x00005cd8       0x20 ./synergy/ssp/src/bsp/mcu/s5d9/bsp_clocks.o
                0x00005cd8                bsp_cpu_clock_get
 .text.bsp_clock_set_callback
                0x00005cf8      0x10c ./synergy/ssp/src/bsp/mcu/s5d9/bsp_clocks.o
                0x00005cf8                bsp_clock_set_callback
 .text.R_BSP_FeatureSciGet
                0x00005e04        0x8 ./synergy/ssp/src/bsp/mcu/s5d9/bsp_feature.o
                0x00005e04                R_BSP_FeatureSciGet
 .text.R_BSP_FeatureAdcGet
                0x00005e0c       0x2c ./synergy/ssp/src/bsp/mcu/s5d9/bsp_feature.o
                0x00005e0c                R_BSP_FeatureAdcGet
 .text.R_BSP_FeatureCanGet
                0x00005e38       0x10 ./synergy/ssp/src/bsp/mcu/s5d9/bsp_feature.o
                0x00005e38                R_BSP_FeatureCanGet
 .text.R_BSP_FeatureIoportGet
                0x00005e48       0x10 ./synergy/ssp/src/bsp/mcu/s5d9/bsp_feature.o
                0x00005e48                R_BSP_FeatureIoportGet
 .text.R_BSP_FeatureCgcGet
                0x00005e58        0xc ./synergy/ssp/src/bsp/mcu/s5d9/bsp_feature.o
                0x00005e58                R_BSP_FeatureCgcGet
 .text.bsp_group_interrupt_open
                0x00005e64       0x10 ./synergy/ssp/src/bsp/mcu/s5d9/bsp_group_irq.o
                0x00005e64                bsp_group_interrupt_open
 .text.R_BSP_GroupIrqWrite
                0x00005e74       0x10 ./synergy/ssp/src/bsp/mcu/s5d9/bsp_group_irq.o
                0x00005e74                R_BSP_GroupIrqWrite
 .text.NMI_Handler
                0x00005e84      0x1c8 ./synergy/ssp/src/bsp/mcu/s5d9/bsp_group_irq.o
                0x00005e84                NMI_Handler
 .text.R_BSP_ModuleStop
                0x0000604c       0x54 ./synergy/ssp/src/bsp/mcu/s5d9/bsp_module_stop.o
                0x0000604c                R_BSP_ModuleStop
 .text.R_BSP_ModuleStart
                0x000060a0       0x88 ./synergy/ssp/src/bsp/mcu/s5d9/bsp_module_stop.o
                0x000060a0                R_BSP_ModuleStart
 .text.bsp_init_internal
                0x00006128        0x4 ./synergy/ssp/src/bsp/mcu/all/bsp_common.o
                0x00006128                bsp_init_internal
                0x00006128                bsp_init
 .text.software_delay_loop
                0x0000612c        0xc ./synergy/ssp/src/bsp/mcu/all/bsp_delay.o
 .text.R_BSP_SoftwareDelay
                0x00006138       0x60 ./synergy/ssp/src/bsp/mcu/all/bsp_delay.o
                0x00006138                R_BSP_SoftwareDelay
 .text.R_BSP_IrqStatusClear
                0x00006198       0x18 ./synergy/ssp/src/bsp/mcu/all/bsp_irq.o
                0x00006198                R_BSP_IrqStatusClear
 .text.bsp_irq_cfg
                0x000061b0       0x40 ./synergy/ssp/src/bsp/mcu/all/bsp_irq.o
                0x000061b0                bsp_irq_cfg
 .text.R_BSP_HardwareLock
                0x000061f0       0x5c ./synergy/ssp/src/bsp/mcu/all/bsp_locking.o
                0x000061f0                R_BSP_HardwareLock
 .text.R_BSP_HardwareUnlock
                0x0000624c       0x3c ./synergy/ssp/src/bsp/mcu/all/bsp_locking.o
                0x0000624c                R_BSP_HardwareUnlock
 .text.bsp_init_hardware_locks
                0x00006288       0x60 ./synergy/ssp/src/bsp/mcu/all/bsp_locking.o
                0x00006288                bsp_init_hardware_locks
 .text.R_BSP_RegisterProtectEnable
                0x000062e8       0x60 ./synergy/ssp/src/bsp/mcu/all/bsp_register_protection.o
                0x000062e8                R_BSP_RegisterProtectEnable
 .text.R_BSP_RegisterProtectDisable
                0x00006348       0x54 ./synergy/ssp/src/bsp/mcu/all/bsp_register_protection.o
                0x00006348                R_BSP_RegisterProtectDisable
 .text.bsp_register_protect_open
                0x0000639c       0x10 ./synergy/ssp/src/bsp/mcu/all/bsp_register_protection.o
                0x0000639c                bsp_register_protect_open
 .text._sbrk    0x000063ac       0x3c ./synergy/ssp/src/bsp/mcu/all/bsp_sbrk.o
                0x000063ac                _sbrk
 .text.Default_Handler
                0x000063e8        0x4 ./synergy/ssp/src/bsp/cmsis/Device/RENESAS/S5D9/Source/startup_S5D9.o
                0x000063e8                HardFault_Handler
                0x000063e8                UsageFault_Handler
                0x000063e8                Default_Handler
                0x000063e8                MemManage_Handler
                0x000063e8                SVC_Handler
                0x000063e8                BusFault_Handler
                0x000063e8                DebugMon_Handler
 .text.Reset_Handler
                0x000063ec        0xc ./synergy/ssp/src/bsp/cmsis/Device/RENESAS/S5D9/Source/startup_S5D9.o
                0x000063ec                Reset_Handler
 .text.R_BSP_WarmStart
                0x000063f8        0x4 ./synergy/ssp/src/bsp/cmsis/Device/RENESAS/S5D9/Source/system_S5D9.o
                0x000063f8                R_BSP_WarmStart
 .text.SystemInit
                0x000063fc      0x160 ./synergy/ssp/src/bsp/cmsis/Device/RENESAS/S5D9/Source/system_S5D9.o
                0x000063fc                SystemInit
 .text.adc_thread_func
                0x0000655c       0x10 ./src/synergy_gen/adc_thread.o
 .text.adc_thread_create
                0x0000656c       0x5c ./src/synergy_gen/adc_thread.o
                0x0000656c                adc_thread_create
 .text.can_thread_func
                0x000065c8       0x10 ./src/synergy_gen/can_thread.o
 .text.can_thread_create
                0x000065d8       0x5c ./src/synergy_gen/can_thread.o
                0x000065d8                can_thread_create
 .text.g_common_init
                0x00006634        0x4 ./src/synergy_gen/common_data.o
                0x00006634                g_common_init
 .text.drv_thread_func
                0x00006638       0x10 ./src/synergy_gen/drv_thread.o
 .text.drv_thread_create
                0x00006648       0x58 ./src/synergy_gen/drv_thread.o
                0x00006648                drv_thread_create
 .text.g_hal_init
                0x000066a0        0x4 ./src/synergy_gen/hal_data.o
                0x000066a0                g_hal_init
 .text.tx_application_define_internal
                0x000066a4        0x4 ./src/synergy_gen/main.o
                0x000066a4                tx_application_define_user
                0x000066a4                tx_application_define_internal
 .text.tx_startup_err_callback_internal
                0x000066a8        0x4 ./src/synergy_gen/main.o
                0x000066a8                tx_startup_err_callback_internal
                0x000066a8                tx_startup_err_callback
 .text.tx_application_define
                0x000066ac       0x50 ./src/synergy_gen/main.o
                0x000066ac                tx_application_define
 .text.tx_startup_common_init
                0x000066fc       0x64 ./src/synergy_gen/main.o
                0x000066fc                tx_startup_common_init
 .text.startup.main
                0x00006760        0xc ./src/synergy_gen/main.o
                0x00006760                main
 .text.status_thread_func
                0x0000676c       0x10 ./src/synergy_gen/status_thread.o
 .text.status_thread_create
                0x0000677c       0x5c ./src/synergy_gen/status_thread.o
                0x0000677c                status_thread_create
 .text.scanADC  0x000067d8      0x11c ./src/adc_thread_entry.o
                0x000067d8                scanADC
 .text.setMux   0x000068f4       0xa0 ./src/adc_thread_entry.o
                0x000068f4                setMux
 .text.adc_thread_entry
                0x00006994       0x44 ./src/adc_thread_entry.o
                0x00006994                adc_thread_entry
 .text.can_thread_entry
                0x000069d8       0xa4 ./src/can_thread_entry.o
                0x000069d8                can_thread_entry
 .text.CanCallback
                0x00006a7c       0x78 ./src/can_thread_entry.o
                0x00006a7c                CanCallback
 .text.i2cWriteOutputBuffer
                0x00006af4       0x58 ./src/drv_thread_entry.o
                0x00006af4                i2cWriteOutputBuffer
 .text.LiftDown
                0x00006b4c       0x70 ./src/drv_thread_entry.o
                0x00006b4c                LiftDown
 .text.LiftUp   0x00006bbc       0x9c ./src/drv_thread_entry.o
                0x00006bbc                LiftUp
 .text.LiftStop
                0x00006c58       0x70 ./src/drv_thread_entry.o
                0x00006c58                LiftStop
 .text.callfloor0
                0x00006cc8       0x80 ./src/drv_thread_entry.o
                0x00006cc8                callfloor0
 .text.callfloor1
                0x00006d48       0xbc ./src/drv_thread_entry.o
                0x00006d48                callfloor1
 .text.callfloor_1
                0x00006e04       0xc4 ./src/drv_thread_entry.o
                0x00006e04                callfloor_1
 .text.callfloor2
                0x00006ec8      0x134 ./src/drv_thread_entry.o
                0x00006ec8                callfloor2
 .text.callfloor_2
                0x00006ffc      0x13c ./src/drv_thread_entry.o
                0x00006ffc                callfloor_2
 .text.callfloor3
                0x00007138      0x178 ./src/drv_thread_entry.o
                0x00007138                callfloor3
 .text.callfloor_3
                0x000072b0      0x180 ./src/drv_thread_entry.o
                0x000072b0                callfloor_3
 .text.callfloor4
                0x00007430       0x74 ./src/drv_thread_entry.o
                0x00007430                callfloor4
 .text.callfloor_4
                0x000074a4       0x80 ./src/drv_thread_entry.o
                0x000074a4                callfloor_4
 .text.callfloor01
                0x00007524       0x40 ./src/drv_thread_entry.o
                0x00007524                callfloor01
 .text.stoppinglift
                0x00007564      0x26c ./src/drv_thread_entry.o
                0x00007564                stoppinglift
 .text.dooropen
                0x000077d0       0xd0 ./src/drv_thread_entry.o
                0x000077d0                dooropen
 .text.dooropen1
                0x000078a0       0xdc ./src/drv_thread_entry.o
                0x000078a0                dooropen1
 .text.dooroperate
                0x0000797c       0xd0 ./src/drv_thread_entry.o
                0x0000797c                dooroperate
 .text.dooroperate1
                0x00007a4c       0xdc ./src/drv_thread_entry.o
                0x00007a4c                dooroperate1
 .text.stoppinglift_1
                0x00007b28      0x208 ./src/drv_thread_entry.o
                0x00007b28                stoppinglift_1
 .text.drv_thread_entry
                0x00007d30      0x808 ./src/drv_thread_entry.o
                0x00007d30                drv_thread_entry
 .text.status_thread_entry
                0x00008538       0x2c ./src/status_thread_entry.o
                0x00008538                status_thread_entry
 .text.R_FMI_ProductInfoGet
                0x00008564       0x34 C:\Users\khurr\e2_studio_latest\workspace\VerticalControl\synergy\ssp\src\driver\r_fmi\libs\libfmi_cm4_s5d9_gcc.a(r_fmi.o)
 .text.R_FMI_VersionGet
                0x00008598       0x10 C:\Users\khurr\e2_studio_latest\workspace\VerticalControl\synergy\ssp\src\driver\r_fmi\libs\libfmi_cm4_s5d9_gcc.a(r_fmi.o)
 .text.R_FMI_UniqueIdGet
                0x000085a8       0x40 C:\Users\khurr\e2_studio_latest\workspace\VerticalControl\synergy\ssp\src\driver\r_fmi\libs\libfmi_cm4_s5d9_gcc.a(r_fmi.o)
 .text.R_FMI_EventInfoGet
                0x000085e8       0x8c C:\Users\khurr\e2_studio_latest\workspace\VerticalControl\synergy\ssp\src\driver\r_fmi\libs\libfmi_cm4_s5d9_gcc.a(r_fmi.o)
 .text.R_FMI_Init
                0x00008674       0x90 C:\Users\khurr\e2_studio_latest\workspace\VerticalControl\synergy\ssp\src\driver\r_fmi\libs\libfmi_cm4_s5d9_gcc.a(r_fmi.o)
 .text.R_FMI_FeatureGet
                0x00008704      0x238 C:\Users\khurr\e2_studio_latest\workspace\VerticalControl\synergy\ssp\src\driver\r_fmi\libs\libfmi_cm4_s5d9_gcc.a(r_fmi.o)
 .text._txe_semaphore_create
                0x0000893c       0xa0 C:\Users\khurr\e2_studio_latest\workspace\VerticalControl\synergy\ssp\src\framework\el\tx\cm4_gcc\libtx.a(txe_semaphore_create.o)
                0x0000893c                _txe_semaphore_create
 .text._txe_semaphore_get
                0x000089dc       0x2c C:\Users\khurr\e2_studio_latest\workspace\VerticalControl\synergy\ssp\src\framework\el\tx\cm4_gcc\libtx.a(txe_semaphore_get.o)
                0x000089dc                _txe_semaphore_get
 .text._txe_semaphore_put
                0x00008a08       0x18 C:\Users\khurr\e2_studio_latest\workspace\VerticalControl\synergy\ssp\src\framework\el\tx\cm4_gcc\libtx.a(txe_semaphore_put.o)
                0x00008a08                _txe_semaphore_put
 .text._txe_thread_create
                0x00008a20      0x14c C:\Users\khurr\e2_studio_latest\workspace\VerticalControl\synergy\ssp\src\framework\el\tx\cm4_gcc\libtx.a(txe_thread_create.o)
                0x00008a20                _txe_thread_create
 .text._tx_initialize_high_level
                0x00008b6c       0x70 C:\Users\khurr\e2_studio_latest\workspace\VerticalControl\synergy\ssp\src\framework\el\tx\cm4_gcc\libtx.a(tx_initialize_high_level.o)
                0x00008b6c                _tx_initialize_high_level
 .text._tx_initialize_kernel_enter
                0x00008bdc       0x48 C:\Users\khurr\e2_studio_latest\workspace\VerticalControl\synergy\ssp\src\framework\el\tx\cm4_gcc\libtx.a(tx_initialize_kernel_enter.o)
                0x00008bdc                _tx_initialize_kernel_enter
 .text.tx_isr_end
                0x00008c24        0x4 C:\Users\khurr\e2_studio_latest\workspace\VerticalControl\synergy\ssp\src\framework\el\tx\cm4_gcc\libtx.a(tx_isr_end.o)
                0x00008c24                tx_isr_end
 .text.tx_isr_start
                0x00008c28        0x4 C:\Users\khurr\e2_studio_latest\workspace\VerticalControl\synergy\ssp\src\framework\el\tx\cm4_gcc\libtx.a(tx_isr_start.o)
                0x00008c28                tx_isr_start
 .text._tx_semaphore_create
                0x00008c2c       0x54 C:\Users\khurr\e2_studio_latest\workspace\VerticalControl\synergy\ssp\src\framework\el\tx\cm4_gcc\libtx.a(tx_semaphore_create.o)
                0x00008c2c                _tx_semaphore_create
 .text._tx_semaphore_get
                0x00008c80       0x84 C:\Users\khurr\e2_studio_latest\workspace\VerticalControl\synergy\ssp\src\framework\el\tx\cm4_gcc\libtx.a(tx_semaphore_get.o)
                0x00008c80                _tx_semaphore_get
 .text._tx_semaphore_put
                0x00008d04       0x54 C:\Users\khurr\e2_studio_latest\workspace\VerticalControl\synergy\ssp\src\framework\el\tx\cm4_gcc\libtx.a(tx_semaphore_put.o)
                0x00008d04                _tx_semaphore_put
 .text._tx_thread_create
                0x00008d58      0x134 C:\Users\khurr\e2_studio_latest\workspace\VerticalControl\synergy\ssp\src\framework\el\tx\cm4_gcc\libtx.a(tx_thread_create.o)
                0x00008d58                _tx_thread_create
 .text._tx_thread_initialize
                0x00008e8c       0x64 C:\Users\khurr\e2_studio_latest\workspace\VerticalControl\synergy\ssp\src\framework\el\tx\cm4_gcc\libtx.a(tx_thread_initialize.o)
                0x00008e8c                _tx_thread_initialize
 .text._tx_thread_shell_entry
                0x00008ef0       0x54 C:\Users\khurr\e2_studio_latest\workspace\VerticalControl\synergy\ssp\src\framework\el\tx\cm4_gcc\libtx.a(tx_thread_shell_entry.o)
                0x00008ef0                _tx_thread_shell_entry
 .text._tx_thread_sleep
                0x00008f44       0x60 C:\Users\khurr\e2_studio_latest\workspace\VerticalControl\synergy\ssp\src\framework\el\tx\cm4_gcc\libtx.a(tx_thread_sleep.o)
                0x00008f44                _tx_thread_sleep
 .text._tx_thread_system_preempt_check
                0x00008fa4       0x3c C:\Users\khurr\e2_studio_latest\workspace\VerticalControl\synergy\ssp\src\framework\el\tx\cm4_gcc\libtx.a(tx_thread_system_preempt_check.o)
                0x00008fa4                _tx_thread_system_preempt_check
 .text._tx_thread_system_resume
                0x00008fe0       0xec C:\Users\khurr\e2_studio_latest\workspace\VerticalControl\synergy\ssp\src\framework\el\tx\cm4_gcc\libtx.a(tx_thread_system_resume.o)
                0x00008fe0                _tx_thread_system_resume
 .text._tx_thread_system_suspend
                0x000090cc      0x100 C:\Users\khurr\e2_studio_latest\workspace\VerticalControl\synergy\ssp\src\framework\el\tx\cm4_gcc\libtx.a(tx_thread_system_suspend.o)
                0x000090cc                _tx_thread_system_suspend
 .text._tx_thread_timeout
                0x000091cc       0x30 C:\Users\khurr\e2_studio_latest\workspace\VerticalControl\synergy\ssp\src\framework\el\tx\cm4_gcc\libtx.a(tx_thread_timeout.o)
                0x000091cc                _tx_thread_timeout
 .text._tx_timer_initialize
                0x000091fc       0x74 C:\Users\khurr\e2_studio_latest\workspace\VerticalControl\synergy\ssp\src\framework\el\tx\cm4_gcc\libtx.a(tx_timer_initialize.o)
                0x000091fc                _tx_timer_initialize
 .text._tx_timer_system_activate
                0x00009270       0x54 C:\Users\khurr\e2_studio_latest\workspace\VerticalControl\synergy\ssp\src\framework\el\tx\cm4_gcc\libtx.a(tx_timer_system_activate.o)
                0x00009270                _tx_timer_system_activate
 .text._tx_timer_system_deactivate
                0x000092c4       0x2c C:\Users\khurr\e2_studio_latest\workspace\VerticalControl\synergy\ssp\src\framework\el\tx\cm4_gcc\libtx.a(tx_timer_system_deactivate.o)
                0x000092c4                _tx_timer_system_deactivate
 .text._tx_initialize_low_level
                0x000092f0       0x88 C:\Users\khurr\e2_studio_latest\workspace\VerticalControl\synergy\ssp\src\framework\el\tx\cm4_gcc\libtx.a(tx_initialize_low_level.o)
                0x000092f0                _tx_initialize_low_level
 .text._tx_thread_schedule
                0x00009378       0x60 C:\Users\khurr\e2_studio_latest\workspace\VerticalControl\synergy\ssp\src\framework\el\tx\cm4_gcc\libtx.a(tx_thread_schedule.o)
                0x00009378                _tx_thread_schedule
 .text._tx_port_wait_thread_ready
                0x000093d8       0xa8 C:\Users\khurr\e2_studio_latest\workspace\VerticalControl\synergy\ssp\src\framework\el\tx\cm4_gcc\libtx.a(tx_thread_schedule.o)
                0x000093d8                _tx_port_wait_thread_ready
 .text.PendSV_Handler
                0x00009480       0xa8 C:\Users\khurr\e2_studio_latest\workspace\VerticalControl\synergy\ssp\src\framework\el\tx\cm4_gcc\libtx.a(tx_thread_schedule.o)
                0x00009480                PendSV_Handler
 .text.SysTick_Handler
                0x00009528        0x4 C:\Users\khurr\e2_studio_latest\workspace\VerticalControl\synergy\ssp\src\framework\el\tx\cm4_gcc\libtx.a(tx_thread_schedule.o)
                0x00009528                SysTick_Handler
 .text._tx_thread_stack_build
                0x0000952c       0x50 C:\Users\khurr\e2_studio_latest\workspace\VerticalControl\synergy\ssp\src\framework\el\tx\cm4_gcc\libtx.a(tx_thread_stack_build.o)
                0x0000952c                _tx_thread_stack_build
 .text._tx_timer_interrupt
                0x0000957c       0xc0 C:\Users\khurr\e2_studio_latest\workspace\VerticalControl\synergy\ssp\src\framework\el\tx\cm4_gcc\libtx.a(tx_timer_interrupt.o)
                0x0000957c                _tx_timer_interrupt
 .text._tx_semaphore_cleanup
                0x0000963c       0x80 C:\Users\khurr\e2_studio_latest\workspace\VerticalControl\synergy\ssp\src\framework\el\tx\cm4_gcc\libtx.a(tx_semaphore_cleanup.o)
                0x0000963c                _tx_semaphore_cleanup
 .text._tx_thread_time_slice
                0x000096bc       0x6c C:\Users\khurr\e2_studio_latest\workspace\VerticalControl\synergy\ssp\src\framework\el\tx\cm4_gcc\libtx.a(tx_thread_time_slice.o)
                0x000096bc                _tx_thread_time_slice
 .text._tx_timer_expiration_process
                0x00009728      0x104 C:\Users\khurr\e2_studio_latest\workspace\VerticalControl\synergy\ssp\src\framework\el\tx\cm4_gcc\libtx.a(tx_timer_expiration_process.o)
                0x00009728                _tx_timer_expiration_process
 .text          0x0000982c       0x30 c:/renesas/synergy/e2studio_v2022-10_ssp_v2.4.0/toolchains/gcc_arm/gcc-arm-none-eabi-10.3-2021.10/bin/../lib/gcc/arm-none-eabi/10.3.1/thumb/v7e-m+fp/hard\libgcc.a(_aeabi_uldivmod.o)
                0x0000982c                __aeabi_uldivmod
 .text          0x0000985c      0x2d0 c:/renesas/synergy/e2studio_v2022-10_ssp_v2.4.0/toolchains/gcc_arm/gcc-arm-none-eabi-10.3-2021.10/bin/../lib/gcc/arm-none-eabi/10.3.1/thumb/v7e-m+fp/hard\libgcc.a(_udivmoddi4.o)
                0x0000985c                __udivmoddi4
 .text          0x00009b2c        0x4 c:/renesas/synergy/e2studio_v2022-10_ssp_v2.4.0/toolchains/gcc_arm/gcc-arm-none-eabi-10.3-2021.10/bin/../lib/gcc/arm-none-eabi/10.3.1/thumb/v7e-m+fp/hard\libgcc.a(_dvmd_tls.o)
                0x00009b2c                __aeabi_idiv0
                0x00009b2c                __aeabi_ldiv0
 .text.__errno  0x00009b30        0xc c:/renesas/synergy/e2studio_v2022-10_ssp_v2.4.0/toolchains/gcc_arm/gcc-arm-none-eabi-10.3-2021.10/bin/../lib/gcc/arm-none-eabi/10.3.1/../../../../arm-none-eabi/lib/thumb/v7e-m+fp/hard\libg_nano.a(lib_a-errno.o)
                0x00009b30                __errno
 .text.memcpy   0x00009b3c       0x1c c:/renesas/synergy/e2studio_v2022-10_ssp_v2.4.0/toolchains/gcc_arm/gcc-arm-none-eabi-10.3-2021.10/bin/../lib/gcc/arm-none-eabi/10.3.1/../../../../arm-none-eabi/lib/thumb/v7e-m+fp/hard\libg_nano.a(lib_a-memcpy-stub.o)
                0x00009b3c                memcpy
 .text.memset   0x00009b58       0x10 c:/renesas/synergy/e2studio_v2022-10_ssp_v2.4.0/toolchains/gcc_arm/gcc-arm-none-eabi-10.3-2021.10/bin/../lib/gcc/arm-none-eabi/10.3.1/../../../../arm-none-eabi/lib/thumb/v7e-m+fp/hard\libg_nano.a(lib_a-memset.o)
                0x00009b58                memset
 .text.srand    0x00009b68       0x5c c:/renesas/synergy/e2studio_v2022-10_ssp_v2.4.0/toolchains/gcc_arm/gcc-arm-none-eabi-10.3-2021.10/bin/../lib/gcc/arm-none-eabi/10.3.1/../../../../arm-none-eabi/lib/thumb/v7e-m+fp/hard\libg_nano.a(lib_a-rand.o)
                0x00009b68                srand
 .text.__assert_func
                0x00009bc4       0x3c c:/renesas/synergy/e2studio_v2022-10_ssp_v2.4.0/toolchains/gcc_arm/gcc-arm-none-eabi-10.3-2021.10/bin/../lib/gcc/arm-none-eabi/10.3.1/../../../../arm-none-eabi/lib/thumb/v7e-m+fp/hard\libg_nano.a(lib_a-assert.o)
                0x00009bc4                __assert_func
 .text.fprintf  0x00009c00       0x24 c:/renesas/synergy/e2studio_v2022-10_ssp_v2.4.0/toolchains/gcc_arm/gcc-arm-none-eabi-10.3-2021.10/bin/../lib/gcc/arm-none-eabi/10.3.1/../../../../arm-none-eabi/lib/thumb/v7e-m+fp/hard\libg_nano.a(lib_a-fprintf.o)
                0x00009c00                fiprintf
                0x00009c00                fprintf
 .text.malloc   0x00009c24       0x10 c:/renesas/synergy/e2studio_v2022-10_ssp_v2.4.0/toolchains/gcc_arm/gcc-arm-none-eabi-10.3-2021.10/bin/../lib/gcc/arm-none-eabi/10.3.1/../../../../arm-none-eabi/lib/thumb/v7e-m+fp/hard\libg_nano.a(lib_a-malloc.o)
                0x00009c24                malloc
 .text._free_r  0x00009c34       0x98 c:/renesas/synergy/e2studio_v2022-10_ssp_v2.4.0/toolchains/gcc_arm/gcc-arm-none-eabi-10.3-2021.10/bin/../lib/gcc/arm-none-eabi/10.3.1/../../../../arm-none-eabi/lib/thumb/v7e-m+fp/hard\libg_nano.a(lib_a-nano-freer.o)
                0x00009c34                _free_r
 .text.sbrk_aligned
                0x00009ccc       0x40 c:/renesas/synergy/e2studio_v2022-10_ssp_v2.4.0/toolchains/gcc_arm/gcc-arm-none-eabi-10.3-2021.10/bin/../lib/gcc/arm-none-eabi/10.3.1/../../../../arm-none-eabi/lib/thumb/v7e-m+fp/hard\libg_nano.a(lib_a-nano-mallocr.o)
 .text._malloc_r
                0x00009d0c       0xe8 c:/renesas/synergy/e2studio_v2022-10_ssp_v2.4.0/toolchains/gcc_arm/gcc-arm-none-eabi-10.3-2021.10/bin/../lib/gcc/arm-none-eabi/10.3.1/../../../../arm-none-eabi/lib/thumb/v7e-m+fp/hard\libg_nano.a(lib_a-nano-mallocr.o)
                0x00009d0c                _malloc_r
 .text.__sfputc_r
                0x00009df4       0x2e c:/renesas/synergy/e2studio_v2022-10_ssp_v2.4.0/toolchains/gcc_arm/gcc-arm-none-eabi-10.3-2021.10/bin/../lib/gcc/arm-none-eabi/10.3.1/../../../../arm-none-eabi/lib/thumb/v7e-m+fp/hard\libg_nano.a(lib_a-nano-vfprintf.o)
 .text.__sfputs_r
                0x00009e22       0x24 c:/renesas/synergy/e2studio_v2022-10_ssp_v2.4.0/toolchains/gcc_arm/gcc-arm-none-eabi-10.3-2021.10/bin/../lib/gcc/arm-none-eabi/10.3.1/../../../../arm-none-eabi/lib/thumb/v7e-m+fp/hard\libg_nano.a(lib_a-nano-vfprintf.o)
                0x00009e22                __sfputs_r
 *fill*         0x00009e46        0x2 ff
 .text._vfprintf_r
                0x00009e48      0x260 c:/renesas/synergy/e2studio_v2022-10_ssp_v2.4.0/toolchains/gcc_arm/gcc-arm-none-eabi-10.3-2021.10/bin/../lib/gcc/arm-none-eabi/10.3.1/../../../../arm-none-eabi/lib/thumb/v7e-m+fp/hard\libg_nano.a(lib_a-nano-vfprintf.o)
                0x00009e48                _vfprintf_r
                0x00009e48                _vfiprintf_r
 .text._printf_common
                0x0000a0a8       0xda c:/renesas/synergy/e2studio_v2022-10_ssp_v2.4.0/toolchains/gcc_arm/gcc-arm-none-eabi-10.3-2021.10/bin/../lib/gcc/arm-none-eabi/10.3.1/../../../../arm-none-eabi/lib/thumb/v7e-m+fp/hard\libg_nano.a(lib_a-nano-vfprintf_i.o)
                0x0000a0a8                _printf_common
 *fill*         0x0000a182        0x2 ff
 .text._printf_i
                0x0000a184      0x24c c:/renesas/synergy/e2studio_v2022-10_ssp_v2.4.0/toolchains/gcc_arm/gcc-arm-none-eabi-10.3-2021.10/bin/../lib/gcc/arm-none-eabi/10.3.1/../../../../arm-none-eabi/lib/thumb/v7e-m+fp/hard\libg_nano.a(lib_a-nano-vfprintf_i.o)
                0x0000a184                _printf_i
 .text._sbrk_r  0x0000a3d0       0x20 c:/renesas/synergy/e2studio_v2022-10_ssp_v2.4.0/toolchains/gcc_arm/gcc-arm-none-eabi-10.3-2021.10/bin/../lib/gcc/arm-none-eabi/10.3.1/../../../../arm-none-eabi/lib/thumb/v7e-m+fp/hard\libg_nano.a(lib_a-sbrkr.o)
                0x0000a3d0                _sbrk_r
 .text.__swbuf_r
                0x0000a3f0       0xa4 c:/renesas/synergy/e2studio_v2022-10_ssp_v2.4.0/toolchains/gcc_arm/gcc-arm-none-eabi-10.3-2021.10/bin/../lib/gcc/arm-none-eabi/10.3.1/../../../../arm-none-eabi/lib/thumb/v7e-m+fp/hard\libg_nano.a(lib_a-wbuf.o)
                0x0000a3f0                __swbuf_r
 .text.__swsetup_r
                0x0000a494       0xdc c:/renesas/synergy/e2studio_v2022-10_ssp_v2.4.0/toolchains/gcc_arm/gcc-arm-none-eabi-10.3-2021.10/bin/../lib/gcc/arm-none-eabi/10.3.1/../../../../arm-none-eabi/lib/thumb/v7e-m+fp/hard\libg_nano.a(lib_a-wsetup.o)
                0x0000a494                __swsetup_r
 .text.abort    0x0000a570        0xe c:/renesas/synergy/e2studio_v2022-10_ssp_v2.4.0/toolchains/gcc_arm/gcc-arm-none-eabi-10.3-2021.10/bin/../lib/gcc/arm-none-eabi/10.3.1/../../../../arm-none-eabi/lib/thumb/v7e-m+fp/hard\libg_nano.a(lib_a-abort.o)
                0x0000a570                abort
 *fill*         0x0000a57e        0x2 ff
 .text.__sflush_r
                0x0000a580      0x10c c:/renesas/synergy/e2studio_v2022-10_ssp_v2.4.0/toolchains/gcc_arm/gcc-arm-none-eabi-10.3-2021.10/bin/../lib/gcc/arm-none-eabi/10.3.1/../../../../arm-none-eabi/lib/thumb/v7e-m+fp/hard\libg_nano.a(lib_a-fflush.o)
                0x0000a580                __sflush_r
 .text._fflush_r
                0x0000a68c       0x78 c:/renesas/synergy/e2studio_v2022-10_ssp_v2.4.0/toolchains/gcc_arm/gcc-arm-none-eabi-10.3-2021.10/bin/../lib/gcc/arm-none-eabi/10.3.1/../../../../arm-none-eabi/lib/thumb/v7e-m+fp/hard\libg_nano.a(lib_a-fflush.o)
                0x0000a68c                _fflush_r
 .text.std      0x0000a704       0x48 c:/renesas/synergy/e2studio_v2022-10_ssp_v2.4.0/toolchains/gcc_arm/gcc-arm-none-eabi-10.3-2021.10/bin/../lib/gcc/arm-none-eabi/10.3.1/../../../../arm-none-eabi/lib/thumb/v7e-m+fp/hard\libg_nano.a(lib_a-findfp.o)
 .text._cleanup_r
                0x0000a74c        0xc c:/renesas/synergy/e2studio_v2022-10_ssp_v2.4.0/toolchains/gcc_arm/gcc-arm-none-eabi-10.3-2021.10/bin/../lib/gcc/arm-none-eabi/10.3.1/../../../../arm-none-eabi/lib/thumb/v7e-m+fp/hard\libg_nano.a(lib_a-findfp.o)
                0x0000a74c                _cleanup_r
 .text.__sfmoreglue
                0x0000a758       0x2c c:/renesas/synergy/e2studio_v2022-10_ssp_v2.4.0/toolchains/gcc_arm/gcc-arm-none-eabi-10.3-2021.10/bin/../lib/gcc/arm-none-eabi/10.3.1/../../../../arm-none-eabi/lib/thumb/v7e-m+fp/hard\libg_nano.a(lib_a-findfp.o)
                0x0000a758                __sfmoreglue
 .text.__sfp_lock_acquire
                0x0000a784        0xc c:/renesas/synergy/e2studio_v2022-10_ssp_v2.4.0/toolchains/gcc_arm/gcc-arm-none-eabi-10.3-2021.10/bin/../lib/gcc/arm-none-eabi/10.3.1/../../../../arm-none-eabi/lib/thumb/v7e-m+fp/hard\libg_nano.a(lib_a-findfp.o)
                0x0000a784                __sfp_lock_acquire
 .text.__sfp_lock_release
                0x0000a790        0xc c:/renesas/synergy/e2studio_v2022-10_ssp_v2.4.0/toolchains/gcc_arm/gcc-arm-none-eabi-10.3-2021.10/bin/../lib/gcc/arm-none-eabi/10.3.1/../../../../arm-none-eabi/lib/thumb/v7e-m+fp/hard\libg_nano.a(lib_a-findfp.o)
                0x0000a790                __sfp_lock_release
 .text.__sinit_lock_acquire
                0x0000a79c        0xc c:/renesas/synergy/e2studio_v2022-10_ssp_v2.4.0/toolchains/gcc_arm/gcc-arm-none-eabi-10.3-2021.10/bin/../lib/gcc/arm-none-eabi/10.3.1/../../../../arm-none-eabi/lib/thumb/v7e-m+fp/hard\libg_nano.a(lib_a-findfp.o)
                0x0000a79c                __sinit_lock_acquire
 .text.__sinit_lock_release
                0x0000a7a8        0xc c:/renesas/synergy/e2studio_v2022-10_ssp_v2.4.0/toolchains/gcc_arm/gcc-arm-none-eabi-10.3-2021.10/bin/../lib/gcc/arm-none-eabi/10.3.1/../../../../arm-none-eabi/lib/thumb/v7e-m+fp/hard\libg_nano.a(lib_a-findfp.o)
                0x0000a7a8                __sinit_lock_release
 .text.__sinit  0x0000a7b4       0x70 c:/renesas/synergy/e2studio_v2022-10_ssp_v2.4.0/toolchains/gcc_arm/gcc-arm-none-eabi-10.3-2021.10/bin/../lib/gcc/arm-none-eabi/10.3.1/../../../../arm-none-eabi/lib/thumb/v7e-m+fp/hard\libg_nano.a(lib_a-findfp.o)
                0x0000a7b4                __sinit
 .text.__sfp    0x0000a824       0x8c c:/renesas/synergy/e2studio_v2022-10_ssp_v2.4.0/toolchains/gcc_arm/gcc-arm-none-eabi-10.3-2021.10/bin/../lib/gcc/arm-none-eabi/10.3.1/../../../../arm-none-eabi/lib/thumb/v7e-m+fp/hard\libg_nano.a(lib_a-findfp.o)
                0x0000a824                __sfp
 .text._fwalk_reent
                0x0000a8b0       0x3e c:/renesas/synergy/e2studio_v2022-10_ssp_v2.4.0/toolchains/gcc_arm/gcc-arm-none-eabi-10.3-2021.10/bin/../lib/gcc/arm-none-eabi/10.3.1/../../../../arm-none-eabi/lib/thumb/v7e-m+fp/hard\libg_nano.a(lib_a-fwalk.o)
                0x0000a8b0                _fwalk_reent
 .text.__retarget_lock_init_recursive
                0x0000a8ee        0x2 c:/renesas/synergy/e2studio_v2022-10_ssp_v2.4.0/toolchains/gcc_arm/gcc-arm-none-eabi-10.3-2021.10/bin/../lib/gcc/arm-none-eabi/10.3.1/../../../../arm-none-eabi/lib/thumb/v7e-m+fp/hard\libg_nano.a(lib_a-lock.o)
                0x0000a8ee                __retarget_lock_init_recursive
 .text.__retarget_lock_acquire_recursive
                0x0000a8f0        0x2 c:/renesas/synergy/e2studio_v2022-10_ssp_v2.4.0/toolchains/gcc_arm/gcc-arm-none-eabi-10.3-2021.10/bin/../lib/gcc/arm-none-eabi/10.3.1/../../../../arm-none-eabi/lib/thumb/v7e-m+fp/hard\libg_nano.a(lib_a-lock.o)
                0x0000a8f0                __retarget_lock_acquire_recursive
 .text.__retarget_lock_release_recursive
                0x0000a8f2        0x2 c:/renesas/synergy/e2studio_v2022-10_ssp_v2.4.0/toolchains/gcc_arm/gcc-arm-none-eabi-10.3-2021.10/bin/../lib/gcc/arm-none-eabi/10.3.1/../../../../arm-none-eabi/lib/thumb/v7e-m+fp/hard\libg_nano.a(lib_a-lock.o)
                0x0000a8f2                __retarget_lock_release_recursive
 .text.__swhatbuf_r
                0x0000a8f4       0x4a c:/renesas/synergy/e2studio_v2022-10_ssp_v2.4.0/toolchains/gcc_arm/gcc-arm-none-eabi-10.3-2021.10/bin/../lib/gcc/arm-none-eabi/10.3.1/../../../../arm-none-eabi/lib/thumb/v7e-m+fp/hard\libg_nano.a(lib_a-makebuf.o)
                0x0000a8f4                __swhatbuf_r
 *fill*         0x0000a93e        0x2 ff
 .text.__smakebuf_r
                0x0000a940       0x80 c:/renesas/synergy/e2studio_v2022-10_ssp_v2.4.0/toolchains/gcc_arm/gcc-arm-none-eabi-10.3-2021.10/bin/../lib/gcc/arm-none-eabi/10.3.1/../../../../arm-none-eabi/lib/thumb/v7e-m+fp/hard\libg_nano.a(lib_a-makebuf.o)
                0x0000a940                __smakebuf_r
 .text          0x0000a9c0       0xa0 c:/renesas/synergy/e2studio_v2022-10_ssp_v2.4.0/toolchains/gcc_arm/gcc-arm-none-eabi-10.3-2021.10/bin/../lib/gcc/arm-none-eabi/10.3.1/../../../../arm-none-eabi/lib/thumb/v7e-m+fp/hard\libg_nano.a(lib_a-memchr.o)
                0x0000a9c0                memchr
 .text.__malloc_lock
                0x0000aa60        0xc c:/renesas/synergy/e2studio_v2022-10_ssp_v2.4.0/toolchains/gcc_arm/gcc-arm-none-eabi-10.3-2021.10/bin/../lib/gcc/arm-none-eabi/10.3.1/../../../../arm-none-eabi/lib/thumb/v7e-m+fp/hard\libg_nano.a(lib_a-mlock.o)
                0x0000aa60                __malloc_lock
 .text.__malloc_unlock
                0x0000aa6c        0xc c:/renesas/synergy/e2studio_v2022-10_ssp_v2.4.0/toolchains/gcc_arm/gcc-arm-none-eabi-10.3-2021.10/bin/../lib/gcc/arm-none-eabi/10.3.1/../../../../arm-none-eabi/lib/thumb/v7e-m+fp/hard\libg_nano.a(lib_a-mlock.o)
                0x0000aa6c                __malloc_unlock
 .text._raise_r
                0x0000aa78       0x50 c:/renesas/synergy/e2studio_v2022-10_ssp_v2.4.0/toolchains/gcc_arm/gcc-arm-none-eabi-10.3-2021.10/bin/../lib/gcc/arm-none-eabi/10.3.1/../../../../arm-none-eabi/lib/thumb/v7e-m+fp/hard\libg_nano.a(lib_a-signal.o)
                0x0000aa78                _raise_r
 .text.raise    0x0000aac8       0x10 c:/renesas/synergy/e2studio_v2022-10_ssp_v2.4.0/toolchains/gcc_arm/gcc-arm-none-eabi-10.3-2021.10/bin/../lib/gcc/arm-none-eabi/10.3.1/../../../../arm-none-eabi/lib/thumb/v7e-m+fp/hard\libg_nano.a(lib_a-signal.o)
                0x0000aac8                raise
 .text._kill_r  0x0000aad8       0x24 c:/renesas/synergy/e2studio_v2022-10_ssp_v2.4.0/toolchains/gcc_arm/gcc-arm-none-eabi-10.3-2021.10/bin/../lib/gcc/arm-none-eabi/10.3.1/../../../../arm-none-eabi/lib/thumb/v7e-m+fp/hard\libg_nano.a(lib_a-signalr.o)
                0x0000aad8                _kill_r
 .text._getpid_r
                0x0000aafc        0x4 c:/renesas/synergy/e2studio_v2022-10_ssp_v2.4.0/toolchains/gcc_arm/gcc-arm-none-eabi-10.3-2021.10/bin/../lib/gcc/arm-none-eabi/10.3.1/../../../../arm-none-eabi/lib/thumb/v7e-m+fp/hard\libg_nano.a(lib_a-signalr.o)
                0x0000aafc                _getpid_r
 .text.__sread  0x0000ab00       0x22 c:/renesas/synergy/e2studio_v2022-10_ssp_v2.4.0/toolchains/gcc_arm/gcc-arm-none-eabi-10.3-2021.10/bin/../lib/gcc/arm-none-eabi/10.3.1/../../../../arm-none-eabi/lib/thumb/v7e-m+fp/hard\libg_nano.a(lib_a-stdio.o)
                0x0000ab00                __sread
 .text.__swrite
                0x0000ab22       0x38 c:/renesas/synergy/e2studio_v2022-10_ssp_v2.4.0/toolchains/gcc_arm/gcc-arm-none-eabi-10.3-2021.10/bin/../lib/gcc/arm-none-eabi/10.3.1/../../../../arm-none-eabi/lib/thumb/v7e-m+fp/hard\libg_nano.a(lib_a-stdio.o)
                0x0000ab22                __swrite
 .text.__sseek  0x0000ab5a       0x24 c:/renesas/synergy/e2studio_v2022-10_ssp_v2.4.0/toolchains/gcc_arm/gcc-arm-none-eabi-10.3-2021.10/bin/../lib/gcc/arm-none-eabi/10.3.1/../../../../arm-none-eabi/lib/thumb/v7e-m+fp/hard\libg_nano.a(lib_a-stdio.o)
                0x0000ab5a                __sseek
 .text.__sclose
                0x0000ab7e        0x8 c:/renesas/synergy/e2studio_v2022-10_ssp_v2.4.0/toolchains/gcc_arm/gcc-arm-none-eabi-10.3-2021.10/bin/../lib/gcc/arm-none-eabi/10.3.1/../../../../arm-none-eabi/lib/thumb/v7e-m+fp/hard\libg_nano.a(lib_a-stdio.o)
                0x0000ab7e                __sclose
 *fill*         0x0000ab86        0x2 ff
 .text._write_r
                0x0000ab88       0x24 c:/renesas/synergy/e2studio_v2022-10_ssp_v2.4.0/toolchains/gcc_arm/gcc-arm-none-eabi-10.3-2021.10/bin/../lib/gcc/arm-none-eabi/10.3.1/../../../../arm-none-eabi/lib/thumb/v7e-m+fp/hard\libg_nano.a(lib_a-writer.o)
                0x0000ab88                _write_r
 .text._close_r
                0x0000abac       0x20 c:/renesas/synergy/e2studio_v2022-10_ssp_v2.4.0/toolchains/gcc_arm/gcc-arm-none-eabi-10.3-2021.10/bin/../lib/gcc/arm-none-eabi/10.3.1/../../../../arm-none-eabi/lib/thumb/v7e-m+fp/hard\libg_nano.a(lib_a-closer.o)
                0x0000abac                _close_r
 .text._fstat_r
                0x0000abcc       0x24 c:/renesas/synergy/e2studio_v2022-10_ssp_v2.4.0/toolchains/gcc_arm/gcc-arm-none-eabi-10.3-2021.10/bin/../lib/gcc/arm-none-eabi/10.3.1/../../../../arm-none-eabi/lib/thumb/v7e-m+fp/hard\libg_nano.a(lib_a-fstatr.o)
                0x0000abcc                _fstat_r
 .text._isatty_r
                0x0000abf0       0x20 c:/renesas/synergy/e2studio_v2022-10_ssp_v2.4.0/toolchains/gcc_arm/gcc-arm-none-eabi-10.3-2021.10/bin/../lib/gcc/arm-none-eabi/10.3.1/../../../../arm-none-eabi/lib/thumb/v7e-m+fp/hard\libg_nano.a(lib_a-isattyr.o)
                0x0000abf0                _isatty_r
 .text._lseek_r
                0x0000ac10       0x24 c:/renesas/synergy/e2studio_v2022-10_ssp_v2.4.0/toolchains/gcc_arm/gcc-arm-none-eabi-10.3-2021.10/bin/../lib/gcc/arm-none-eabi/10.3.1/../../../../arm-none-eabi/lib/thumb/v7e-m+fp/hard\libg_nano.a(lib_a-lseekr.o)
                0x0000ac10                _lseek_r
 .text._read_r  0x0000ac34       0x24 c:/renesas/synergy/e2studio_v2022-10_ssp_v2.4.0/toolchains/gcc_arm/gcc-arm-none-eabi-10.3-2021.10/bin/../lib/gcc/arm-none-eabi/10.3.1/../../../../arm-none-eabi/lib/thumb/v7e-m+fp/hard\libg_nano.a(lib_a-readr.o)
                0x0000ac34                _read_r
 .text.findslot
                0x0000ac58       0x34 c:/renesas/synergy/e2studio_v2022-10_ssp_v2.4.0/toolchains/gcc_arm/gcc-arm-none-eabi-10.3-2021.10/bin/../lib/gcc/arm-none-eabi/10.3.1/../../../../arm-none-eabi/lib/thumb/v7e-m+fp/hard\librdimon_nano.a(rdimon-syscalls.o)
 .text.error    0x0000ac8c       0x1c c:/renesas/synergy/e2studio_v2022-10_ssp_v2.4.0/toolchains/gcc_arm/gcc-arm-none-eabi-10.3-2021.10/bin/../lib/gcc/arm-none-eabi/10.3.1/../../../../arm-none-eabi/lib/thumb/v7e-m+fp/hard\librdimon_nano.a(rdimon-syscalls.o)
 .text.checkerror
                0x0000aca8        0xa c:/renesas/synergy/e2studio_v2022-10_ssp_v2.4.0/toolchains/gcc_arm/gcc-arm-none-eabi-10.3-2021.10/bin/../lib/gcc/arm-none-eabi/10.3.1/../../../../arm-none-eabi/lib/thumb/v7e-m+fp/hard\librdimon_nano.a(rdimon-syscalls.o)
 .text._swiread
                0x0000acb2       0x20 c:/renesas/synergy/e2studio_v2022-10_ssp_v2.4.0/toolchains/gcc_arm/gcc-arm-none-eabi-10.3-2021.10/bin/../lib/gcc/arm-none-eabi/10.3.1/../../../../arm-none-eabi/lib/thumb/v7e-m+fp/hard\librdimon_nano.a(rdimon-syscalls.o)
                0x0000acb2                _swiread
 .text._read    0x0000acd2       0x38 c:/renesas/synergy/e2studio_v2022-10_ssp_v2.4.0/toolchains/gcc_arm/gcc-arm-none-eabi-10.3-2021.10/bin/../lib/gcc/arm-none-eabi/10.3.1/../../../../arm-none-eabi/lib/thumb/v7e-m+fp/hard\librdimon_nano.a(rdimon-syscalls.o)
                0x0000acd2                _read
 .text._swilseek
                0x0000ad0a       0x78 c:/renesas/synergy/e2studio_v2022-10_ssp_v2.4.0/toolchains/gcc_arm/gcc-arm-none-eabi-10.3-2021.10/bin/../lib/gcc/arm-none-eabi/10.3.1/../../../../arm-none-eabi/lib/thumb/v7e-m+fp/hard\librdimon_nano.a(rdimon-syscalls.o)
                0x0000ad0a                _swilseek
 .text._lseek   0x0000ad82        0x4 c:/renesas/synergy/e2studio_v2022-10_ssp_v2.4.0/toolchains/gcc_arm/gcc-arm-none-eabi-10.3-2021.10/bin/../lib/gcc/arm-none-eabi/10.3.1/../../../../arm-none-eabi/lib/thumb/v7e-m+fp/hard\librdimon_nano.a(rdimon-syscalls.o)
                0x0000ad82                _lseek
 .text._swiwrite
                0x0000ad86       0x20 c:/renesas/synergy/e2studio_v2022-10_ssp_v2.4.0/toolchains/gcc_arm/gcc-arm-none-eabi-10.3-2021.10/bin/../lib/gcc/arm-none-eabi/10.3.1/../../../../arm-none-eabi/lib/thumb/v7e-m+fp/hard\librdimon_nano.a(rdimon-syscalls.o)
                0x0000ad86                _swiwrite
 .text._write   0x0000ada6       0x48 c:/renesas/synergy/e2studio_v2022-10_ssp_v2.4.0/toolchains/gcc_arm/gcc-arm-none-eabi-10.3-2021.10/bin/../lib/gcc/arm-none-eabi/10.3.1/../../../../arm-none-eabi/lib/thumb/v7e-m+fp/hard\librdimon_nano.a(rdimon-syscalls.o)
                0x0000ada6                _write
 .text._swiclose
                0x0000adee       0x1a c:/renesas/synergy/e2studio_v2022-10_ssp_v2.4.0/toolchains/gcc_arm/gcc-arm-none-eabi-10.3-2021.10/bin/../lib/gcc/arm-none-eabi/10.3.1/../../../../arm-none-eabi/lib/thumb/v7e-m+fp/hard\librdimon_nano.a(rdimon-syscalls.o)
                0x0000adee                _swiclose
 .text._close   0x0000ae08       0x4c c:/renesas/synergy/e2studio_v2022-10_ssp_v2.4.0/toolchains/gcc_arm/gcc-arm-none-eabi-10.3-2021.10/bin/../lib/gcc/arm-none-eabi/10.3.1/../../../../arm-none-eabi/lib/thumb/v7e-m+fp/hard\librdimon_nano.a(rdimon-syscalls.o)
                0x0000ae08                _close
 .text._getpid  0x0000ae54        0x4 c:/renesas/synergy/e2studio_v2022-10_ssp_v2.4.0/toolchains/gcc_arm/gcc-arm-none-eabi-10.3-2021.10/bin/../lib/gcc/arm-none-eabi/10.3.1/../../../../arm-none-eabi/lib/thumb/v7e-m+fp/hard\librdimon_nano.a(rdimon-syscalls.o)
                0x0000ae54                _getpid
 .text._swistat
                0x0000ae58       0x42 c:/renesas/synergy/e2studio_v2022-10_ssp_v2.4.0/toolchains/gcc_arm/gcc-arm-none-eabi-10.3-2021.10/bin/../lib/gcc/arm-none-eabi/10.3.1/../../../../arm-none-eabi/lib/thumb/v7e-m+fp/hard\librdimon_nano.a(rdimon-syscalls.o)
                0x0000ae58                _swistat
 .text._fstat   0x0000ae9a       0x1c c:/renesas/synergy/e2studio_v2022-10_ssp_v2.4.0/toolchains/gcc_arm/gcc-arm-none-eabi-10.3-2021.10/bin/../lib/gcc/arm-none-eabi/10.3.1/../../../../arm-none-eabi/lib/thumb/v7e-m+fp/hard\librdimon_nano.a(rdimon-syscalls.o)
                0x0000ae9a                _fstat
 .text._stat    0x0000aeb6       0x3a c:/renesas/synergy/e2studio_v2022-10_ssp_v2.4.0/toolchains/gcc_arm/gcc-arm-none-eabi-10.3-2021.10/bin/../lib/gcc/arm-none-eabi/10.3.1/../../../../arm-none-eabi/lib/thumb/v7e-m+fp/hard\librdimon_nano.a(rdimon-syscalls.o)
                0x0000aeb6                _stat
 .text._swiopen
                0x0000aef0       0xb4 c:/renesas/synergy/e2studio_v2022-10_ssp_v2.4.0/toolchains/gcc_arm/gcc-arm-none-eabi-10.3-2021.10/bin/../lib/gcc/arm-none-eabi/10.3.1/../../../../arm-none-eabi/lib/thumb/v7e-m+fp/hard\librdimon_nano.a(rdimon-syscalls.o)
                0x0000aef0                _swiopen
 .text._get_semihosting_exts
                0x0000afa4       0xb8 c:/renesas/synergy/e2studio_v2022-10_ssp_v2.4.0/toolchains/gcc_arm/gcc-arm-none-eabi-10.3-2021.10/bin/../lib/gcc/arm-none-eabi/10.3.1/../../../../arm-none-eabi/lib/thumb/v7e-m+fp/hard\librdimon_nano.a(rdimon-syscalls.o)
                0x0000afa4                _get_semihosting_exts
 .text.initialise_semihosting_exts
                0x0000b05c       0x34 c:/renesas/synergy/e2studio_v2022-10_ssp_v2.4.0/toolchains/gcc_arm/gcc-arm-none-eabi-10.3-2021.10/bin/../lib/gcc/arm-none-eabi/10.3.1/../../../../arm-none-eabi/lib/thumb/v7e-m+fp/hard\librdimon_nano.a(rdimon-syscalls.o)
 .text._has_ext_exit_extended
                0x0000b090       0x18 c:/renesas/synergy/e2studio_v2022-10_ssp_v2.4.0/toolchains/gcc_arm/gcc-arm-none-eabi-10.3-2021.10/bin/../lib/gcc/arm-none-eabi/10.3.1/../../../../arm-none-eabi/lib/thumb/v7e-m+fp/hard\librdimon_nano.a(rdimon-syscalls.o)
                0x0000b090                _has_ext_exit_extended
 .text._isatty  0x0000b0a8       0x38 c:/renesas/synergy/e2studio_v2022-10_ssp_v2.4.0/toolchains/gcc_arm/gcc-arm-none-eabi-10.3-2021.10/bin/../lib/gcc/arm-none-eabi/10.3.1/../../../../arm-none-eabi/lib/thumb/v7e-m+fp/hard\librdimon_nano.a(rdimon-syscalls.o)
                0x0000b0a8                _isatty
 .text._exit    0x0000b0e0       0x14 c:/renesas/synergy/e2studio_v2022-10_ssp_v2.4.0/toolchains/gcc_arm/gcc-arm-none-eabi-10.3-2021.10/bin/../lib/gcc/arm-none-eabi/10.3.1/../../../../arm-none-eabi/lib/thumb/v7e-m+fp/hard\librdimon_nano.a(rdimon-_exit.o)
                0x0000b0e0                _exit
 .text._kill_shared
                0x0000b0f4       0x26 c:/renesas/synergy/e2studio_v2022-10_ssp_v2.4.0/toolchains/gcc_arm/gcc-arm-none-eabi-10.3-2021.10/bin/../lib/gcc/arm-none-eabi/10.3.1/../../../../arm-none-eabi/lib/thumb/v7e-m+fp/hard\librdimon_nano.a(rdimon-_kill.o)
                0x0000b0f4                _kill_shared
 *fill*         0x0000b11a        0x2 ff
 .text._kill    0x0000b11c       0x18 c:/renesas/synergy/e2studio_v2022-10_ssp_v2.4.0/toolchains/gcc_arm/gcc-arm-none-eabi-10.3-2021.10/bin/../lib/gcc/arm-none-eabi/10.3.1/../../../../arm-none-eabi/lib/thumb/v7e-m+fp/hard\librdimon_nano.a(rdimon-_kill.o)
                0x0000b11c                _kill
 .text          0x0000b134       0x10 c:/renesas/synergy/e2studio_v2022-10_ssp_v2.4.0/toolchains/gcc_arm/gcc-arm-none-eabi-10.3-2021.10/bin/../lib/gcc/arm-none-eabi/10.3.1/../../../../arm-none-eabi/lib/thumb/v7e-m+fp/hard\libc_nano.a(lib_a-strlen.o)
                0x0000b134                strlen
 *(.version)
 .version       0x0000b144       0x7c ./synergy/ssp/src/bsp/mcu/all/bsp_common.o
 *(.init)
 .init          0x0000b1c0        0x4 c:/renesas/synergy/e2studio_v2022-10_ssp_v2.4.0/toolchains/gcc_arm/gcc-arm-none-eabi-10.3-2021.10/bin/../lib/gcc/arm-none-eabi/10.3.1/thumb/v7e-m+fp/hard/crti.o
                0x0000b1c0                _init
 .init          0x0000b1c4        0x8 c:/renesas/synergy/e2studio_v2022-10_ssp_v2.4.0/toolchains/gcc_arm/gcc-arm-none-eabi-10.3-2021.10/bin/../lib/gcc/arm-none-eabi/10.3.1/thumb/v7e-m+fp/hard/crtn.o
 *(.fini)
 .fini          0x0000b1cc        0x4 c:/renesas/synergy/e2studio_v2022-10_ssp_v2.4.0/toolchains/gcc_arm/gcc-arm-none-eabi-10.3-2021.10/bin/../lib/gcc/arm-none-eabi/10.3.1/thumb/v7e-m+fp/hard/crti.o
                0x0000b1cc                _fini
 .fini          0x0000b1d0        0x8 c:/renesas/synergy/e2studio_v2022-10_ssp_v2.4.0/toolchains/gcc_arm/gcc-arm-none-eabi-10.3-2021.10/bin/../lib/gcc/arm-none-eabi/10.3.1/thumb/v7e-m+fp/hard/crtn.o
 *crtbegin.o(.ctors)
 *crtbegin?.o(.ctors)
 *(EXCLUDE_FILE(*crtend.o *crtend?.o) .ctors)
 *(SORT_BY_NAME(.ctors.*))
 *(.ctors)
 *crtbegin.o(.dtors)
 *crtbegin?.o(.dtors)
 *(EXCLUDE_FILE(*crtend.o *crtend?.o) .dtors)
 *(SORT_BY_NAME(.dtors.*))
 *(.dtors)
 *(.rodata*)
 .rodata.g_dummy_write_data_for_read_op
                0x0000b1d8        0x1 ./synergy/ssp/src/driver/r_sci_i2c/r_sci_i2c.o
 *fill*         0x0000b1d9        0x3 ff
 .rodata.g_i2c_master_on_sci
                0x0000b1dc       0x1c ./synergy/ssp/src/driver/r_sci_i2c/r_sci_i2c.o
                0x0000b1dc                g_i2c_master_on_sci
 .rodata.sync_baud
                0x0000b1f8       0x18 ./synergy/ssp/src/driver/r_sci_i2c/r_sci_i2c.o
 .rodata.g_ioport_on_ioport
                0x0000b210       0x3c ./synergy/ssp/src/driver/r_ioport/r_ioport.o
                0x0000b210                g_ioport_on_ioport
 .rodata.g_elc_on_elc
                0x0000b24c       0x1c ./synergy/ssp/src/driver/r_elc/r_elc.o
                0x0000b24c                g_elc_on_elc
 .rodata.g_transfer_on_dtc
                0x0000b268       0x2c ./synergy/ssp/src/driver/r_dtc/r_dtc.o
                0x0000b268                g_transfer_on_dtc
 .rodata.g_cgc_on_cgc
                0x0000b294       0x6c ./synergy/ssp/src/driver/r_cgc/r_cgc.o
                0x0000b294                g_cgc_on_cgc
 .rodata.g_pllccr2_div_setting
                0x0000b300        0x8 ./synergy/ssp/src/driver/r_cgc/r_cgc.o
 .rodata.g_pllccr2_div_value
                0x0000b308        0x6 ./synergy/ssp/src/driver/r_cgc/r_cgc.o
 *fill*         0x0000b30e        0x2 ff
 .rodata.g_pllccr_div_setting
                0x0000b310        0x6 ./synergy/ssp/src/driver/r_cgc/r_cgc.o
 *fill*         0x0000b316        0x2 ff
 .rodata.g_pllccr_div_value
                0x0000b318        0x6 ./synergy/ssp/src/driver/r_cgc/r_cgc.o
 *fill*         0x0000b31e        0x2 ff
 .rodata.g_can_on_can
                0x0000b320       0x1c ./synergy/ssp/src/driver/r_can/r_can.o
                0x0000b320                g_can_on_can
 .rodata.g_adc_on_adc
                0x0000b33c       0x34 ./synergy/ssp/src/driver/r_adc/r_adc.o
                0x0000b33c                g_adc_on_adc
 .rodata.g_cgc_feature
                0x0000b370       0x2c ./synergy/ssp/src/bsp/mcu/s5d9/bsp_feature.o
 .rodata.g_bsp_module_stop
                0x0000b39c       0x46 ./synergy/ssp/src/bsp/mcu/s5d9/bsp_module_stop.o
 *fill*         0x0000b3e2        0x2 ff
 .rodata.gp_mstp
                0x0000b3e4       0x10 ./synergy/ssp/src/bsp/mcu/s5d9/bsp_module_stop.o
 .rodata.gp_vector_information
                0x0000b3f4        0x4 ./synergy/ssp/src/bsp/mcu/all/bsp_irq.o
                0x0000b3f4                gp_vector_information
 .rodata.g_prcr_masks
                0x0000b3f8        0x6 ./synergy/ssp/src/bsp/mcu/all/bsp_register_protection.o
 *fill*         0x0000b3fe        0x2 ff
 .rodata.g_elc_cfg
                0x0000b400        0xc ./synergy/ssp/src/bsp/cmsis/Device/RENESAS/S5D9/Source/system_S5D9.o
 .rodata.adc_thread_create.str1.4
                0x0000b40c        0xb ./src/synergy_gen/adc_thread.o
 *fill*         0x0000b417        0x1 ff
 .rodata.g_adc0
                0x0000b418       0x10 ./src/synergy_gen/adc_thread.o
                0x0000b418                g_adc0
 .rodata.g_adc0_cfg
                0x0000b428       0x24 ./src/synergy_gen/adc_thread.o
                0x0000b428                g_adc0_cfg
 .rodata.g_adc0_channel_cfg
                0x0000b44c       0x14 ./src/synergy_gen/adc_thread.o
                0x0000b44c                g_adc0_channel_cfg
 .rodata.g_adc1
                0x0000b460       0x10 ./src/synergy_gen/adc_thread.o
                0x0000b460                g_adc1
 .rodata.g_adc1_cfg
                0x0000b470       0x24 ./src/synergy_gen/adc_thread.o
                0x0000b470                g_adc1_cfg
 .rodata.g_adc1_channel_cfg
                0x0000b494       0x14 ./src/synergy_gen/adc_thread.o
                0x0000b494                g_adc1_channel_cfg
 .rodata.can_thread_create.str1.4
                0x0000b4a8        0xb ./src/synergy_gen/can_thread.o
 *fill*         0x0000b4b3        0x1 ff
 .rodata.g_can0
                0x0000b4b4        0xc ./src/synergy_gen/can_thread.o
                0x0000b4b4                g_can0
 .rodata.g_can0_cfg
                0x0000b4c0       0x28 ./src/synergy_gen/can_thread.o
 .rodata.g_can0_extended_cfg
                0x0000b4e8        0x8 ./src/synergy_gen/can_thread.o
 .rodata.g_ioport
                0x0000b4f0        0x8 ./src/synergy_gen/common_data.o
                0x0000b4f0                g_ioport
 .rodata.drv_thread_create.str1.4
                0x0000b4f8        0xd ./src/synergy_gen/drv_thread.o
 *fill*         0x0000b505        0x3 ff
 .rodata.g_i2c0
                0x0000b508        0xc ./src/synergy_gen/drv_thread.o
                0x0000b508                g_i2c0
 .rodata.g_i2c0_cfg
                0x0000b514       0x28 ./src/synergy_gen/drv_thread.o
                0x0000b514                g_i2c0_cfg
 .rodata.g_i2c0_cfg_extend
                0x0000b53c        0x1 ./src/synergy_gen/drv_thread.o
                0x0000b53c                g_i2c0_cfg_extend
 *fill*         0x0000b53d        0x3 ff
 .rodata.g_transfer0
                0x0000b540        0xc ./src/synergy_gen/drv_thread.o
                0x0000b540                g_transfer0
 .rodata.g_transfer0_cfg
                0x0000b54c       0x14 ./src/synergy_gen/drv_thread.o
                0x0000b54c                g_transfer0_cfg
 .rodata.g_transfer1
                0x0000b560        0xc ./src/synergy_gen/drv_thread.o
                0x0000b560                g_transfer1
 .rodata.g_transfer1_cfg
                0x0000b56c       0x14 ./src/synergy_gen/drv_thread.o
                0x0000b56c                g_transfer1_cfg
 .rodata.tx_application_define.str1.4
                0x0000b580       0x14 ./src/synergy_gen/main.o
 .rodata.g_bsp_pin_cfg
                0x0000b594        0x8 ./src/synergy_gen/pin_data.o
                0x0000b594                g_bsp_pin_cfg
 .rodata.g_bsp_pin_cfg_data
                0x0000b59c      0x2b8 ./src/synergy_gen/pin_data.o
                0x0000b59c                g_bsp_pin_cfg_data
 .rodata.status_thread_create.str1.4
                0x0000b854        0xe ./src/synergy_gen/status_thread.o
 *fill*         0x0000b862        0x2 ff
 .rodata.bit_count
                0x0000b864       0x80 C:\Users\khurr\e2_studio_latest\workspace\VerticalControl\synergy\ssp\src\driver\r_fmi\libs\libfmi_cm4_s5d9_gcc.a(r_fmi.o)
 .rodata.bit_count_mask
                0x0000b8e4        0x8 C:\Users\khurr\e2_studio_latest\workspace\VerticalControl\synergy\ssp\src\driver\r_fmi\libs\libfmi_cm4_s5d9_gcc.a(r_fmi.o)
 .rodata.g_fmi_on_fmi
                0x0000b8ec       0x18 C:\Users\khurr\e2_studio_latest\workspace\VerticalControl\synergy\ssp\src\driver\r_fmi\libs\libfmi_cm4_s5d9_gcc.a(r_fmi.o)
                0x0000b8ec                g_fmi_on_fmi
 .rodata.g_fmi_data
                0x0000b904      0x400 C:\Users\khurr\e2_studio_latest\workspace\VerticalControl\synergy\ssp\src\bsp\mcu\s5d9\libfmi_R7FS5D97E3A01CFB_gcc.a(bsp_fmi_R7FS5D97E3A01CFB.o)
                0x0000b904                g_fmi_data
 .rodata._global_impure_ptr
                0x0000bd04        0x4 c:/renesas/synergy/e2studio_v2022-10_ssp_v2.4.0/toolchains/gcc_arm/gcc-arm-none-eabi-10.3-2021.10/bin/../lib/gcc/arm-none-eabi/10.3.1/../../../../arm-none-eabi/lib/thumb/v7e-m+fp/hard\libg_nano.a(lib_a-impure.o)
                0x0000bd04                _global_impure_ptr
 .rodata.srand.str1.1
                0x0000bd08       0x95 c:/renesas/synergy/e2studio_v2022-10_ssp_v2.4.0/toolchains/gcc_arm/gcc-arm-none-eabi-10.3-2021.10/bin/../lib/gcc/arm-none-eabi/10.3.1/../../../../arm-none-eabi/lib/thumb/v7e-m+fp/hard\libg_nano.a(lib_a-rand.o)
 .rodata.__assert_func.str1.1
                0x0000bd9d       0x3c c:/renesas/synergy/e2studio_v2022-10_ssp_v2.4.0/toolchains/gcc_arm/gcc-arm-none-eabi-10.3-2021.10/bin/../lib/gcc/arm-none-eabi/10.3.1/../../../../arm-none-eabi/lib/thumb/v7e-m+fp/hard\libg_nano.a(lib_a-assert.o)
                                 0x3d (size before relaxing)
 .rodata._vfprintf_r.str1.1
                0x0000bdd9       0x11 c:/renesas/synergy/e2studio_v2022-10_ssp_v2.4.0/toolchains/gcc_arm/gcc-arm-none-eabi-10.3-2021.10/bin/../lib/gcc/arm-none-eabi/10.3.1/../../../../arm-none-eabi/lib/thumb/v7e-m+fp/hard\libg_nano.a(lib_a-nano-vfprintf.o)
 .rodata._printf_i.str1.1
                0x0000bdea       0x22 c:/renesas/synergy/e2studio_v2022-10_ssp_v2.4.0/toolchains/gcc_arm/gcc-arm-none-eabi-10.3-2021.10/bin/../lib/gcc/arm-none-eabi/10.3.1/../../../../arm-none-eabi/lib/thumb/v7e-m+fp/hard\libg_nano.a(lib_a-nano-vfprintf_i.o)
 .rodata.__sf_fake_stderr
                0x0000be0c       0x20 c:/renesas/synergy/e2studio_v2022-10_ssp_v2.4.0/toolchains/gcc_arm/gcc-arm-none-eabi-10.3-2021.10/bin/../lib/gcc/arm-none-eabi/10.3.1/../../../../arm-none-eabi/lib/thumb/v7e-m+fp/hard\libg_nano.a(lib_a-findfp.o)
                0x0000be0c                __sf_fake_stderr
 .rodata.__sf_fake_stdin
                0x0000be2c       0x20 c:/renesas/synergy/e2studio_v2022-10_ssp_v2.4.0/toolchains/gcc_arm/gcc-arm-none-eabi-10.3-2021.10/bin/../lib/gcc/arm-none-eabi/10.3.1/../../../../arm-none-eabi/lib/thumb/v7e-m+fp/hard\libg_nano.a(lib_a-findfp.o)
                0x0000be2c                __sf_fake_stdin
 .rodata.__sf_fake_stdout
                0x0000be4c       0x20 c:/renesas/synergy/e2studio_v2022-10_ssp_v2.4.0/toolchains/gcc_arm/gcc-arm-none-eabi-10.3-2021.10/bin/../lib/gcc/arm-none-eabi/10.3.1/../../../../arm-none-eabi/lib/thumb/v7e-m+fp/hard\libg_nano.a(lib_a-findfp.o)
                0x0000be4c                __sf_fake_stdout
 .rodata._get_semihosting_exts.str1.1
                0x0000be6c       0x16 c:/renesas/synergy/e2studio_v2022-10_ssp_v2.4.0/toolchains/gcc_arm/gcc-arm-none-eabi-10.3-2021.10/bin/../lib/gcc/arm-none-eabi/10.3.1/../../../../arm-none-eabi/lib/thumb/v7e-m+fp/hard\librdimon_nano.a(rdimon-syscalls.o)
                0x0000be82                __usb_dev_descriptor_start_fs = .
 *(.usb_device_desc_fs*)
                0x0000be82                __usb_cfg_descriptor_start_fs = .
 *(.usb_config_desc_fs*)
                0x0000be82                __usb_interface_descriptor_start_fs = .
 *(.usb_interface_desc_fs*)
                0x0000be82                __usb_descriptor_end_fs = .
                0x0000be82                __usb_dev_descriptor_start_hs = .
 *(.usb_device_desc_hs*)
                0x0000be82                __usb_cfg_descriptor_start_hs = .
 *(.usb_config_desc_hs*)
                0x0000be82                __usb_interface_descriptor_start_hs = .
 *(.usb_interface_desc_hs*)
                0x0000be82                __usb_descriptor_end_hs = .
 *(.eh_frame*)
 *fill*         0x0000be82        0x2 ff
 .eh_frame      0x0000be84        0x0 c:/renesas/synergy/e2studio_v2022-10_ssp_v2.4.0/toolchains/gcc_arm/gcc-arm-none-eabi-10.3-2021.10/bin/../lib/gcc/arm-none-eabi/10.3.1/thumb/v7e-m+fp/hard/crtbegin.o
 .eh_frame      0x0000be84        0x4 c:/renesas/synergy/e2studio_v2022-10_ssp_v2.4.0/toolchains/gcc_arm/gcc-arm-none-eabi-10.3-2021.10/bin/../lib/gcc/arm-none-eabi/10.3.1/thumb/v7e-m+fp/hard/crtend.o
                0x0000be88                __ROM_End = .
                0x00000058                __Vectors_Size = (__Vectors_End - __Vectors)
                0x00000030                __Vector_Info_Size = (__Vector_Info_End - __Vector_Info_Start)
                0x000001b0                __Lock_Lookup_Size = (__Lock_Lookup_End - __Lock_Lookup_Start)

.glue_7         0x0000be88        0x0
 .glue_7        0x0000be88        0x0 linker stubs

.glue_7t        0x0000be88        0x0
 .glue_7t       0x0000be88        0x0 linker stubs

.vfp11_veneer   0x0000be88        0x0
 .vfp11_veneer  0x0000be88        0x0 linker stubs

.v4_bx          0x0000be88        0x0
 .v4_bx         0x0000be88        0x0 linker stubs

.iplt           0x0000be88        0x0
 .iplt          0x0000be88        0x0 c:/renesas/synergy/e2studio_v2022-10_ssp_v2.4.0/toolchains/gcc_arm/gcc-arm-none-eabi-10.3-2021.10/bin/../lib/gcc/arm-none-eabi/10.3.1/thumb/v7e-m+fp/hard/crtbegin.o

.ARM.extab
 *(.ARM.extab* .gnu.linkonce.armextab.*)
                0x0000be88                __exidx_start = .

.ARM.exidx      0x0000be88        0x8
 *(.ARM.exidx* .gnu.linkonce.armexidx.*)
 .ARM.exidx     0x0000be88        0x8 c:/renesas/synergy/e2studio_v2022-10_ssp_v2.4.0/toolchains/gcc_arm/gcc-arm-none-eabi-10.3-2021.10/bin/../lib/gcc/arm-none-eabi/10.3.1/thumb/v7e-m+fp/hard\libgcc.a(_udivmoddi4.o)
                0x0000be90                __exidx_end = .
                0x0000be90                __etext = .

.ssp_dtc_vector_table
                0x1ffe0000      0x1c0
                0x1ffe0000                . = ORIGIN (RAM)
 *(.ssp_dtc_vector_table)
 .ssp_dtc_vector_table
                0x1ffe0000      0x1c0 ./synergy/ssp/src/driver/r_dtc/r_dtc.o

.data           0x1ffe01c0      0x238 load address 0x0000be90
                0x1ffe01c0                __data_start__ = .
 *(.r_flash_hp_config_set_area)
                0x1ffe01c0                . = ALIGN (0x4)
                0x1ffe01c0                __Code_In_RAM_Start = .
 *(.code_in_ram*)
                0x1ffe01c0                __Code_In_RAM_End = .
 *(vtable)
 *(.data*)
 .data.g_can0_bit_timing_cfg
                0x1ffe01c0        0x8 ./src/synergy_gen/can_thread.o
                0x1ffe01c0                g_can0_bit_timing_cfg
 .data.g_can0_mailbox
                0x1ffe01c8      0x100 ./src/synergy_gen/can_thread.o
                0x1ffe01c8                g_can0_mailbox
 .data.g_can0_mailbox_mask
                0x1ffe02c8       0x20 ./src/synergy_gen/can_thread.o
                0x1ffe02c8                g_can0_mailbox_mask
 .data.g_transfer0_info
                0x1ffe02e8       0x10 ./src/synergy_gen/drv_thread.o
                0x1ffe02e8                g_transfer0_info
 .data.g_transfer1_info
                0x1ffe02f8       0x10 ./src/synergy_gen/drv_thread.o
                0x1ffe02f8                g_transfer1_info
 .data.ucTxComplete
                0x1ffe0308        0x1 ./src/can_thread_entry.o
 *fill*         0x1ffe0309        0x3 
 .data.call     0x1ffe030c        0x4 ./src/drv_thread_entry.o
 .data.uc_Outputs
                0x1ffe0310        0x2 ./src/drv_thread_entry.o
                0x1ffe0310                uc_Outputs
 *fill*         0x1ffe0312        0x2 
 .data._tx_thread_system_state
                0x1ffe0314        0x4 C:\Users\khurr\e2_studio_latest\workspace\VerticalControl\synergy\ssp\src\framework\el\tx\cm4_gcc\libtx.a(tx_thread_initialize.o)
                0x1ffe0314                _tx_thread_system_state
 .data._impure_ptr
                0x1ffe0318        0x4 c:/renesas/synergy/e2studio_v2022-10_ssp_v2.4.0/toolchains/gcc_arm/gcc-arm-none-eabi-10.3-2021.10/bin/../lib/gcc/arm-none-eabi/10.3.1/../../../../arm-none-eabi/lib/thumb/v7e-m+fp/hard\libg_nano.a(lib_a-impure.o)
                0x1ffe0318                _impure_ptr
 .data.impure_data
                0x1ffe031c       0x60 c:/renesas/synergy/e2studio_v2022-10_ssp_v2.4.0/toolchains/gcc_arm/gcc-arm-none-eabi-10.3-2021.10/bin/../lib/gcc/arm-none-eabi/10.3.1/../../../../arm-none-eabi/lib/thumb/v7e-m+fp/hard\libg_nano.a(lib_a-impure.o)
 .data.supports_ext_exit_extended
                0x1ffe037c        0x4 c:/renesas/synergy/e2studio_v2022-10_ssp_v2.4.0/toolchains/gcc_arm/gcc-arm-none-eabi-10.3-2021.10/bin/../lib/gcc/arm-none-eabi/10.3.1/../../../../arm-none-eabi/lib/thumb/v7e-m+fp/hard\librdimon_nano.a(rdimon-syscalls.o)
 .data.supports_ext_stdout_stderr
                0x1ffe0380        0x4 c:/renesas/synergy/e2studio_v2022-10_ssp_v2.4.0/toolchains/gcc_arm/gcc-arm-none-eabi-10.3-2021.10/bin/../lib/gcc/arm-none-eabi/10.3.1/../../../../arm-none-eabi/lib/thumb/v7e-m+fp/hard\librdimon_nano.a(rdimon-syscalls.o)
                0x1ffe0384                . = ALIGN (0x4)
                0x1ffe0384                PROVIDE (__preinit_array_start = .)
 *(.preinit_array)
                0x1ffe0384                PROVIDE (__preinit_array_end = .)
                0x1ffe0384                . = ALIGN (0x4)
                0x1ffe0384                PROVIDE (__init_array_start = .)
 *(SORT_BY_NAME(.init_array.*))
 *(.init_array)
 .init_array    0x1ffe0384        0x4 c:/renesas/synergy/e2studio_v2022-10_ssp_v2.4.0/toolchains/gcc_arm/gcc-arm-none-eabi-10.3-2021.10/bin/../lib/gcc/arm-none-eabi/10.3.1/thumb/v7e-m+fp/hard/crtbegin.o
                0x1ffe0388                PROVIDE (__init_array_end = .)
                0x1ffe0388                . = ALIGN (0x4)
                [!provide]                PROVIDE (__fini_array_start = .)
 *(SORT_BY_NAME(.fini_array.*))
 *(.fini_array)
 .fini_array    0x1ffe0388        0x4 c:/renesas/synergy/e2studio_v2022-10_ssp_v2.4.0/toolchains/gcc_arm/gcc-arm-none-eabi-10.3-2021.10/bin/../lib/gcc/arm-none-eabi/10.3.1/thumb/v7e-m+fp/hard/crtbegin.o
                [!provide]                PROVIDE (__fini_array_end = .)
 *(.jcr*)
                0x1ffe038c                __Lock_Start = .
 *(SORT_BY_NAME(.hw_lock*))
 .hw_lock.ADC_0U_0U
                0x1ffe038c        0x1 ./synergy/ssp/src/bsp/mcu/s5d9/bsp_hw_locks.o
                0x1ffe038c                g_hw_lock_ADC_0U_0U
 .hw_lock.ADC_0U_1U
                0x1ffe038d        0x1 ./synergy/ssp/src/bsp/mcu/s5d9/bsp_hw_locks.o
                0x1ffe038d                g_hw_lock_ADC_0U_1U
 .hw_lock.AGT_0U_0U
                0x1ffe038e        0x1 ./synergy/ssp/src/bsp/mcu/s5d9/bsp_hw_locks.o
                0x1ffe038e                g_hw_lock_AGT_0U_0U
 .hw_lock.AGT_0U_1U
                0x1ffe038f        0x1 ./synergy/ssp/src/bsp/mcu/s5d9/bsp_hw_locks.o
                0x1ffe038f                g_hw_lock_AGT_0U_1U
 .hw_lock.BSC_0U_1U
                0x1ffe0390        0x1 ./synergy/ssp/src/bsp/mcu/s5d9/bsp_hw_locks.o
                0x1ffe0390                g_hw_lock_BSC_0U_1U
 .hw_lock.CAC_0U_0U
                0x1ffe0391        0x1 ./synergy/ssp/src/bsp/mcu/s5d9/bsp_hw_locks.o
                0x1ffe0391                g_hw_lock_CAC_0U_0U
 .hw_lock.CAN_0U_0U
                0x1ffe0392        0x1 ./synergy/ssp/src/bsp/mcu/s5d9/bsp_hw_locks.o
                0x1ffe0392                g_hw_lock_CAN_0U_0U
 .hw_lock.CAN_0U_1U
                0x1ffe0393        0x1 ./synergy/ssp/src/bsp/mcu/s5d9/bsp_hw_locks.o
                0x1ffe0393                g_hw_lock_CAN_0U_1U
 .hw_lock.COMP_HS_0U_0U
                0x1ffe0394        0x1 ./synergy/ssp/src/bsp/mcu/s5d9/bsp_hw_locks.o
                0x1ffe0394                g_hw_lock_COMP_HS_0U_0U
 .hw_lock.COMP_HS_0U_1U
                0x1ffe0395        0x1 ./synergy/ssp/src/bsp/mcu/s5d9/bsp_hw_locks.o
                0x1ffe0395                g_hw_lock_COMP_HS_0U_1U
 .hw_lock.COMP_HS_0U_2U
                0x1ffe0396        0x1 ./synergy/ssp/src/bsp/mcu/s5d9/bsp_hw_locks.o
                0x1ffe0396                g_hw_lock_COMP_HS_0U_2U
 .hw_lock.COMP_HS_0U_3U
                0x1ffe0397        0x1 ./synergy/ssp/src/bsp/mcu/s5d9/bsp_hw_locks.o
                0x1ffe0397                g_hw_lock_COMP_HS_0U_3U
 .hw_lock.COMP_HS_0U_4U
                0x1ffe0398        0x1 ./synergy/ssp/src/bsp/mcu/s5d9/bsp_hw_locks.o
                0x1ffe0398                g_hw_lock_COMP_HS_0U_4U
 .hw_lock.COMP_HS_0U_5U
                0x1ffe0399        0x1 ./synergy/ssp/src/bsp/mcu/s5d9/bsp_hw_locks.o
                0x1ffe0399                g_hw_lock_COMP_HS_0U_5U
 .hw_lock.CRC_0U_0U
                0x1ffe039a        0x1 ./synergy/ssp/src/bsp/mcu/s5d9/bsp_hw_locks.o
                0x1ffe039a                g_hw_lock_CRC_0U_0U
 .hw_lock.CTSU_0U_0U
                0x1ffe039b        0x1 ./synergy/ssp/src/bsp/mcu/s5d9/bsp_hw_locks.o
                0x1ffe039b                g_hw_lock_CTSU_0U_0U
 .hw_lock.DAAD_0U_0U
                0x1ffe039c        0x1 ./synergy/ssp/src/bsp/mcu/s5d9/bsp_hw_locks.o
                0x1ffe039c                g_hw_lock_DAAD_0U_0U
 .hw_lock.DAC_0U_0U
                0x1ffe039d        0x1 ./synergy/ssp/src/bsp/mcu/s5d9/bsp_hw_locks.o
                0x1ffe039d                g_hw_lock_DAC_0U_0U
 .hw_lock.DAC_0U_1U
                0x1ffe039e        0x1 ./synergy/ssp/src/bsp/mcu/s5d9/bsp_hw_locks.o
                0x1ffe039e                g_hw_lock_DAC_0U_1U
 .hw_lock.DMAC_0U_0U
                0x1ffe039f        0x1 ./synergy/ssp/src/bsp/mcu/s5d9/bsp_hw_locks.o
                0x1ffe039f                g_hw_lock_DMAC_0U_0U
 .hw_lock.DMAC_0U_1U
                0x1ffe03a0        0x1 ./synergy/ssp/src/bsp/mcu/s5d9/bsp_hw_locks.o
                0x1ffe03a0                g_hw_lock_DMAC_0U_1U
 .hw_lock.DMAC_0U_2U
                0x1ffe03a1        0x1 ./synergy/ssp/src/bsp/mcu/s5d9/bsp_hw_locks.o
                0x1ffe03a1                g_hw_lock_DMAC_0U_2U
 .hw_lock.DMAC_0U_3U
                0x1ffe03a2        0x1 ./synergy/ssp/src/bsp/mcu/s5d9/bsp_hw_locks.o
                0x1ffe03a2                g_hw_lock_DMAC_0U_3U
 .hw_lock.DMAC_0U_4U
                0x1ffe03a3        0x1 ./synergy/ssp/src/bsp/mcu/s5d9/bsp_hw_locks.o
                0x1ffe03a3                g_hw_lock_DMAC_0U_4U
 .hw_lock.DMAC_0U_5U
                0x1ffe03a4        0x1 ./synergy/ssp/src/bsp/mcu/s5d9/bsp_hw_locks.o
                0x1ffe03a4                g_hw_lock_DMAC_0U_5U
 .hw_lock.DMAC_0U_6U
                0x1ffe03a5        0x1 ./synergy/ssp/src/bsp/mcu/s5d9/bsp_hw_locks.o
                0x1ffe03a5                g_hw_lock_DMAC_0U_6U
 .hw_lock.DMAC_0U_7U
                0x1ffe03a6        0x1 ./synergy/ssp/src/bsp/mcu/s5d9/bsp_hw_locks.o
                0x1ffe03a6                g_hw_lock_DMAC_0U_7U
 .hw_lock.DOC_0U_0U
                0x1ffe03a7        0x1 ./synergy/ssp/src/bsp/mcu/s5d9/bsp_hw_locks.o
                0x1ffe03a7                g_hw_lock_DOC_0U_0U
 .hw_lock.DRW_0U_0U
                0x1ffe03a8        0x1 ./synergy/ssp/src/bsp/mcu/s5d9/bsp_hw_locks.o
                0x1ffe03a8                g_hw_lock_DRW_0U_0U
 .hw_lock.DTC_0U_0U
                0x1ffe03a9        0x1 ./synergy/ssp/src/bsp/mcu/s5d9/bsp_hw_locks.o
                0x1ffe03a9                g_hw_lock_DTC_0U_0U
 .hw_lock.ELC_0U_0U
                0x1ffe03aa        0x1 ./synergy/ssp/src/bsp/mcu/s5d9/bsp_hw_locks.o
                0x1ffe03aa                g_hw_lock_ELC_0U_0U
 .hw_lock.EPTPC_0U_0U
                0x1ffe03ab        0x1 ./synergy/ssp/src/bsp/mcu/s5d9/bsp_hw_locks.o
                0x1ffe03ab                g_hw_lock_EPTPC_0U_0U
 .hw_lock.ETHER_0U_0U
                0x1ffe03ac        0x1 ./synergy/ssp/src/bsp/mcu/s5d9/bsp_hw_locks.o
                0x1ffe03ac                g_hw_lock_ETHER_0U_0U
 .hw_lock.ETHER_0U_1U
                0x1ffe03ad        0x1 ./synergy/ssp/src/bsp/mcu/s5d9/bsp_hw_locks.o
                0x1ffe03ad                g_hw_lock_ETHER_0U_1U
 .hw_lock.FCU_0U_0U
                0x1ffe03ae        0x1 ./synergy/ssp/src/bsp/mcu/s5d9/bsp_hw_locks.o
                0x1ffe03ae                g_hw_lock_FCU_0U_0U
 .hw_lock.GLCDC_0U_0U
                0x1ffe03af        0x1 ./synergy/ssp/src/bsp/mcu/s5d9/bsp_hw_locks.o
                0x1ffe03af                g_hw_lock_GLCDC_0U_0U
 .hw_lock.GPT_0U_0U
                0x1ffe03b0        0x1 ./synergy/ssp/src/bsp/mcu/s5d9/bsp_hw_locks.o
                0x1ffe03b0                g_hw_lock_GPT_0U_0U
 .hw_lock.GPT_0U_10U
                0x1ffe03b1        0x1 ./synergy/ssp/src/bsp/mcu/s5d9/bsp_hw_locks.o
                0x1ffe03b1                g_hw_lock_GPT_0U_10U
 .hw_lock.GPT_0U_11U
                0x1ffe03b2        0x1 ./synergy/ssp/src/bsp/mcu/s5d9/bsp_hw_locks.o
                0x1ffe03b2                g_hw_lock_GPT_0U_11U
 .hw_lock.GPT_0U_12U
                0x1ffe03b3        0x1 ./synergy/ssp/src/bsp/mcu/s5d9/bsp_hw_locks.o
                0x1ffe03b3                g_hw_lock_GPT_0U_12U
 .hw_lock.GPT_0U_13U
                0x1ffe03b4        0x1 ./synergy/ssp/src/bsp/mcu/s5d9/bsp_hw_locks.o
                0x1ffe03b4                g_hw_lock_GPT_0U_13U
 .hw_lock.GPT_0U_1U
                0x1ffe03b5        0x1 ./synergy/ssp/src/bsp/mcu/s5d9/bsp_hw_locks.o
                0x1ffe03b5                g_hw_lock_GPT_0U_1U
 .hw_lock.GPT_0U_2U
                0x1ffe03b6        0x1 ./synergy/ssp/src/bsp/mcu/s5d9/bsp_hw_locks.o
                0x1ffe03b6                g_hw_lock_GPT_0U_2U
 .hw_lock.GPT_0U_3U
                0x1ffe03b7        0x1 ./synergy/ssp/src/bsp/mcu/s5d9/bsp_hw_locks.o
                0x1ffe03b7                g_hw_lock_GPT_0U_3U
 .hw_lock.GPT_0U_4U
                0x1ffe03b8        0x1 ./synergy/ssp/src/bsp/mcu/s5d9/bsp_hw_locks.o
                0x1ffe03b8                g_hw_lock_GPT_0U_4U
 .hw_lock.GPT_0U_5U
                0x1ffe03b9        0x1 ./synergy/ssp/src/bsp/mcu/s5d9/bsp_hw_locks.o
                0x1ffe03b9                g_hw_lock_GPT_0U_5U
 .hw_lock.GPT_0U_6U
                0x1ffe03ba        0x1 ./synergy/ssp/src/bsp/mcu/s5d9/bsp_hw_locks.o
                0x1ffe03ba                g_hw_lock_GPT_0U_6U
 .hw_lock.GPT_0U_7U
                0x1ffe03bb        0x1 ./synergy/ssp/src/bsp/mcu/s5d9/bsp_hw_locks.o
                0x1ffe03bb                g_hw_lock_GPT_0U_7U
 .hw_lock.GPT_0U_8U
                0x1ffe03bc        0x1 ./synergy/ssp/src/bsp/mcu/s5d9/bsp_hw_locks.o
                0x1ffe03bc                g_hw_lock_GPT_0U_8U
 .hw_lock.GPT_0U_9U
                0x1ffe03bd        0x1 ./synergy/ssp/src/bsp/mcu/s5d9/bsp_hw_locks.o
                0x1ffe03bd                g_hw_lock_GPT_0U_9U
 .hw_lock.ICU_0U_0U
                0x1ffe03be        0x1 ./synergy/ssp/src/bsp/mcu/s5d9/bsp_hw_locks.o
                0x1ffe03be                g_hw_lock_ICU_0U_0U
 .hw_lock.ICU_0U_10U
                0x1ffe03bf        0x1 ./synergy/ssp/src/bsp/mcu/s5d9/bsp_hw_locks.o
                0x1ffe03bf                g_hw_lock_ICU_0U_10U
 .hw_lock.ICU_0U_11U
                0x1ffe03c0        0x1 ./synergy/ssp/src/bsp/mcu/s5d9/bsp_hw_locks.o
                0x1ffe03c0                g_hw_lock_ICU_0U_11U
 .hw_lock.ICU_0U_12U
                0x1ffe03c1        0x1 ./synergy/ssp/src/bsp/mcu/s5d9/bsp_hw_locks.o
                0x1ffe03c1                g_hw_lock_ICU_0U_12U
 .hw_lock.ICU_0U_13U
                0x1ffe03c2        0x1 ./synergy/ssp/src/bsp/mcu/s5d9/bsp_hw_locks.o
                0x1ffe03c2                g_hw_lock_ICU_0U_13U
 .hw_lock.ICU_0U_14U
                0x1ffe03c3        0x1 ./synergy/ssp/src/bsp/mcu/s5d9/bsp_hw_locks.o
                0x1ffe03c3                g_hw_lock_ICU_0U_14U
 .hw_lock.ICU_0U_15U
                0x1ffe03c4        0x1 ./synergy/ssp/src/bsp/mcu/s5d9/bsp_hw_locks.o
                0x1ffe03c4                g_hw_lock_ICU_0U_15U
 .hw_lock.ICU_0U_1U
                0x1ffe03c5        0x1 ./synergy/ssp/src/bsp/mcu/s5d9/bsp_hw_locks.o
                0x1ffe03c5                g_hw_lock_ICU_0U_1U
 .hw_lock.ICU_0U_2U
                0x1ffe03c6        0x1 ./synergy/ssp/src/bsp/mcu/s5d9/bsp_hw_locks.o
                0x1ffe03c6                g_hw_lock_ICU_0U_2U
 .hw_lock.ICU_0U_3U
                0x1ffe03c7        0x1 ./synergy/ssp/src/bsp/mcu/s5d9/bsp_hw_locks.o
                0x1ffe03c7                g_hw_lock_ICU_0U_3U
 .hw_lock.ICU_0U_4U
                0x1ffe03c8        0x1 ./synergy/ssp/src/bsp/mcu/s5d9/bsp_hw_locks.o
                0x1ffe03c8                g_hw_lock_ICU_0U_4U
 .hw_lock.ICU_0U_5U
                0x1ffe03c9        0x1 ./synergy/ssp/src/bsp/mcu/s5d9/bsp_hw_locks.o
                0x1ffe03c9                g_hw_lock_ICU_0U_5U
 .hw_lock.ICU_0U_6U
                0x1ffe03ca        0x1 ./synergy/ssp/src/bsp/mcu/s5d9/bsp_hw_locks.o
                0x1ffe03ca                g_hw_lock_ICU_0U_6U
 .hw_lock.ICU_0U_7U
                0x1ffe03cb        0x1 ./synergy/ssp/src/bsp/mcu/s5d9/bsp_hw_locks.o
                0x1ffe03cb                g_hw_lock_ICU_0U_7U
 .hw_lock.ICU_0U_8U
                0x1ffe03cc        0x1 ./synergy/ssp/src/bsp/mcu/s5d9/bsp_hw_locks.o
                0x1ffe03cc                g_hw_lock_ICU_0U_8U
 .hw_lock.ICU_0U_9U
                0x1ffe03cd        0x1 ./synergy/ssp/src/bsp/mcu/s5d9/bsp_hw_locks.o
                0x1ffe03cd                g_hw_lock_ICU_0U_9U
 .hw_lock.IIC_0U_0U
                0x1ffe03ce        0x1 ./synergy/ssp/src/bsp/mcu/s5d9/bsp_hw_locks.o
                0x1ffe03ce                g_hw_lock_IIC_0U_0U
 .hw_lock.IIC_0U_1U
                0x1ffe03cf        0x1 ./synergy/ssp/src/bsp/mcu/s5d9/bsp_hw_locks.o
                0x1ffe03cf                g_hw_lock_IIC_0U_1U
 .hw_lock.IIC_0U_2U
                0x1ffe03d0        0x1 ./synergy/ssp/src/bsp/mcu/s5d9/bsp_hw_locks.o
                0x1ffe03d0                g_hw_lock_IIC_0U_2U
 .hw_lock.IRDA_0U_0U
                0x1ffe03d1        0x1 ./synergy/ssp/src/bsp/mcu/s5d9/bsp_hw_locks.o
                0x1ffe03d1                g_hw_lock_IRDA_0U_0U
 .hw_lock.IWDT_0U_0U
                0x1ffe03d2        0x1 ./synergy/ssp/src/bsp/mcu/s5d9/bsp_hw_locks.o
                0x1ffe03d2                g_hw_lock_IWDT_0U_0U
 .hw_lock.JPEG_0U_0U
                0x1ffe03d3        0x1 ./synergy/ssp/src/bsp/mcu/s5d9/bsp_hw_locks.o
                0x1ffe03d3                g_hw_lock_JPEG_0U_0U
 .hw_lock.KEY_0U_0U
                0x1ffe03d4        0x1 ./synergy/ssp/src/bsp/mcu/s5d9/bsp_hw_locks.o
                0x1ffe03d4                g_hw_lock_KEY_0U_0U
 .hw_lock.LPM_1U_0U
                0x1ffe03d5        0x1 ./synergy/ssp/src/bsp/mcu/s5d9/bsp_hw_locks.o
                0x1ffe03d5                g_hw_lock_LPM_1U_0U
 .hw_lock.LVD_0U_0U
                0x1ffe03d6        0x1 ./synergy/ssp/src/bsp/mcu/s5d9/bsp_hw_locks.o
                0x1ffe03d6                g_hw_lock_LVD_0U_0U
 .hw_lock.LVD_0U_1U
                0x1ffe03d7        0x1 ./synergy/ssp/src/bsp/mcu/s5d9/bsp_hw_locks.o
                0x1ffe03d7                g_hw_lock_LVD_0U_1U
 .hw_lock.MMF_0U_0U
                0x1ffe03d8        0x1 ./synergy/ssp/src/bsp/mcu/s5d9/bsp_hw_locks.o
                0x1ffe03d8                g_hw_lock_MMF_0U_0U
 .hw_lock.MPU_0U_0U
                0x1ffe03d9        0x1 ./synergy/ssp/src/bsp/mcu/s5d9/bsp_hw_locks.o
                0x1ffe03d9                g_hw_lock_MPU_0U_0U
 .hw_lock.OPS_0U_0U
                0x1ffe03da        0x1 ./synergy/ssp/src/bsp/mcu/s5d9/bsp_hw_locks.o
                0x1ffe03da                g_hw_lock_OPS_0U_0U
 .hw_lock.PDC_0U_0U
                0x1ffe03db        0x1 ./synergy/ssp/src/bsp/mcu/s5d9/bsp_hw_locks.o
                0x1ffe03db                g_hw_lock_PDC_0U_0U
 .hw_lock.POEG_0U_0U
                0x1ffe03dc        0x1 ./synergy/ssp/src/bsp/mcu/s5d9/bsp_hw_locks.o
                0x1ffe03dc                g_hw_lock_POEG_0U_0U
 .hw_lock.POEG_0U_1U
                0x1ffe03dd        0x1 ./synergy/ssp/src/bsp/mcu/s5d9/bsp_hw_locks.o
                0x1ffe03dd                g_hw_lock_POEG_0U_1U
 .hw_lock.POEG_0U_2U
                0x1ffe03de        0x1 ./synergy/ssp/src/bsp/mcu/s5d9/bsp_hw_locks.o
                0x1ffe03de                g_hw_lock_POEG_0U_2U
 .hw_lock.POEG_0U_3U
                0x1ffe03df        0x1 ./synergy/ssp/src/bsp/mcu/s5d9/bsp_hw_locks.o
                0x1ffe03df                g_hw_lock_POEG_0U_3U
 .hw_lock.QSPI_0U_0U
                0x1ffe03e0        0x1 ./synergy/ssp/src/bsp/mcu/s5d9/bsp_hw_locks.o
                0x1ffe03e0                g_hw_lock_QSPI_0U_0U
 .hw_lock.RTC_0U_0U
                0x1ffe03e1        0x1 ./synergy/ssp/src/bsp/mcu/s5d9/bsp_hw_locks.o
                0x1ffe03e1                g_hw_lock_RTC_0U_0U
 .hw_lock.SCE_0U_0U
                0x1ffe03e2        0x1 ./synergy/ssp/src/bsp/mcu/s5d9/bsp_hw_locks.o
                0x1ffe03e2                g_hw_lock_SCE_0U_0U
 .hw_lock.SCI_0U_0U
                0x1ffe03e3        0x1 ./synergy/ssp/src/bsp/mcu/s5d9/bsp_hw_locks.o
                0x1ffe03e3                g_hw_lock_SCI_0U_0U
 .hw_lock.SCI_0U_1U
                0x1ffe03e4        0x1 ./synergy/ssp/src/bsp/mcu/s5d9/bsp_hw_locks.o
                0x1ffe03e4                g_hw_lock_SCI_0U_1U
 .hw_lock.SCI_0U_2U
                0x1ffe03e5        0x1 ./synergy/ssp/src/bsp/mcu/s5d9/bsp_hw_locks.o
                0x1ffe03e5                g_hw_lock_SCI_0U_2U
 .hw_lock.SCI_0U_3U
                0x1ffe03e6        0x1 ./synergy/ssp/src/bsp/mcu/s5d9/bsp_hw_locks.o
                0x1ffe03e6                g_hw_lock_SCI_0U_3U
 .hw_lock.SCI_0U_4U
                0x1ffe03e7        0x1 ./synergy/ssp/src/bsp/mcu/s5d9/bsp_hw_locks.o
                0x1ffe03e7                g_hw_lock_SCI_0U_4U
 .hw_lock.SCI_0U_5U
                0x1ffe03e8        0x1 ./synergy/ssp/src/bsp/mcu/s5d9/bsp_hw_locks.o
                0x1ffe03e8                g_hw_lock_SCI_0U_5U
 .hw_lock.SCI_0U_6U
                0x1ffe03e9        0x1 ./synergy/ssp/src/bsp/mcu/s5d9/bsp_hw_locks.o
                0x1ffe03e9                g_hw_lock_SCI_0U_6U
 .hw_lock.SCI_0U_7U
                0x1ffe03ea        0x1 ./synergy/ssp/src/bsp/mcu/s5d9/bsp_hw_locks.o
                0x1ffe03ea                g_hw_lock_SCI_0U_7U
 .hw_lock.SCI_0U_8U
                0x1ffe03eb        0x1 ./synergy/ssp/src/bsp/mcu/s5d9/bsp_hw_locks.o
                0x1ffe03eb                g_hw_lock_SCI_0U_8U
 .hw_lock.SCI_0U_9U
                0x1ffe03ec        0x1 ./synergy/ssp/src/bsp/mcu/s5d9/bsp_hw_locks.o
                0x1ffe03ec                g_hw_lock_SCI_0U_9U
 .hw_lock.SDHIMMC_0U_0U
                0x1ffe03ed        0x1 ./synergy/ssp/src/bsp/mcu/s5d9/bsp_hw_locks.o
                0x1ffe03ed                g_hw_lock_SDHIMMC_0U_0U
 .hw_lock.SDHIMMC_0U_1U
                0x1ffe03ee        0x1 ./synergy/ssp/src/bsp/mcu/s5d9/bsp_hw_locks.o
                0x1ffe03ee                g_hw_lock_SDHIMMC_0U_1U
 .hw_lock.SPI_0U_0U
                0x1ffe03ef        0x1 ./synergy/ssp/src/bsp/mcu/s5d9/bsp_hw_locks.o
                0x1ffe03ef                g_hw_lock_SPI_0U_0U
 .hw_lock.SPI_0U_1U
                0x1ffe03f0        0x1 ./synergy/ssp/src/bsp/mcu/s5d9/bsp_hw_locks.o
                0x1ffe03f0                g_hw_lock_SPI_0U_1U
 .hw_lock.SRC_0U_0U
                0x1ffe03f1        0x1 ./synergy/ssp/src/bsp/mcu/s5d9/bsp_hw_locks.o
                0x1ffe03f1                g_hw_lock_SRC_0U_0U
 .hw_lock.SSI_0U_0U
                0x1ffe03f2        0x1 ./synergy/ssp/src/bsp/mcu/s5d9/bsp_hw_locks.o
                0x1ffe03f2                g_hw_lock_SSI_0U_0U
 .hw_lock.SSI_0U_1U
                0x1ffe03f3        0x1 ./synergy/ssp/src/bsp/mcu/s5d9/bsp_hw_locks.o
                0x1ffe03f3                g_hw_lock_SSI_0U_1U
 .hw_lock.TSN_0U_0U
                0x1ffe03f4        0x1 ./synergy/ssp/src/bsp/mcu/s5d9/bsp_hw_locks.o
                0x1ffe03f4                g_hw_lock_TSN_0U_0U
 .hw_lock.USB_0U_0U
                0x1ffe03f5        0x1 ./synergy/ssp/src/bsp/mcu/s5d9/bsp_hw_locks.o
                0x1ffe03f5                g_hw_lock_USB_0U_0U
 .hw_lock.USB_1U_0U
                0x1ffe03f6        0x1 ./synergy/ssp/src/bsp/mcu/s5d9/bsp_hw_locks.o
                0x1ffe03f6                g_hw_lock_USB_1U_0U
 .hw_lock.WDT_0U_0U
                0x1ffe03f7        0x1 ./synergy/ssp/src/bsp/mcu/s5d9/bsp_hw_locks.o
                0x1ffe03f7                g_hw_lock_WDT_0U_0U
                0x1ffe03f8                __Lock_End = .
                0x1ffe03f8                . = ALIGN (0x4)
                0x1ffe03f8                __data_end__ = .
                0x0000006c                __Lock_Size = (__Lock_End - __Lock_Start)

.igot.plt       0x1ffe03f8        0x0 load address 0x0000c0c8
 .igot.plt      0x1ffe03f8        0x0 c:/renesas/synergy/e2studio_v2022-10_ssp_v2.4.0/toolchains/gcc_arm/gcc-arm-none-eabi-10.3-2021.10/bin/../lib/gcc/arm-none-eabi/10.3.1/thumb/v7e-m+fp/hard/crtbegin.o

.qspi_flash     0x60000000        0x0
                0x60000000                __qspi_flash_start__ = .
 *(.qspi_flash*)
                0x60000000                __qspi_flash_end__ = .
                0x00000000                __qspi_flash_code_size__ = (__qspi_flash_end__ - __qspi_flash_start__)
                0x0000c0c8                __qspi_flash_code_addr__ = (__etext + (__data_end__ - __data_start__))

.qspi_non_retentive
                0x60000000        0x0 load address 0x0000c0c8
                0x60000000                __qspi_non_retentive_start__ = .
 *(.qspi_non_retentive*)
                0x60000000                __qspi_non_retentive_end__ = .
                0x00000000                __qspi_non_retentive_size__ = (__qspi_non_retentive_end__ - __qspi_non_retentive_start__)
                0x04000000                __qspi_region_max_size__ = 0x4000000
                0x60000000                __qspi_region_start_address__ = __qspi_flash_start__
                0x64000000                __qspi_region_end_address__ = (__qspi_flash_start__ + __qspi_region_max_size__)

.noinit         0x1ffe03f8       0x44
                0x1ffe03f8                . = ALIGN (0x4)
                0x1ffe03f8                __noinit_start = .
 *(.noinit*)
 .noinit        0x1ffe03f8       0x14 ./synergy/ssp/src/driver/r_ioport/r_ioport.o
 .noinit        0x1ffe040c       0x20 ./synergy/ssp/src/driver/r_cgc/r_cgc.o
                0x1ffe040c                gp_cgc_feature
 *fill*         0x1ffe042c        0x4 
 .noinit        0x1ffe0430        0x8 ./synergy/ssp/src/bsp/cmsis/Device/RENESAS/S5D9/Source/system_S5D9.o
 .noinit        0x1ffe0438        0x4 C:\Users\khurr\e2_studio_latest\workspace\VerticalControl\synergy\ssp\src\driver\r_fmi\libs\libfmi_cm4_s5d9_gcc.a(r_fmi.o)
                0x1ffe043c                __noinit_end = .

.bss            0x1ffe043c      0x848
                0x1ffe043c                . = ALIGN (0x4)
                0x1ffe043c                __bss_start__ = .
 *(.bss*)
 .bss           0x1ffe043c       0x1c c:/renesas/synergy/e2studio_v2022-10_ssp_v2.4.0/toolchains/gcc_arm/gcc-arm-none-eabi-10.3-2021.10/bin/../lib/gcc/arm-none-eabi/10.3.1/thumb/v7e-m+fp/hard/crtbegin.o
 .bss.g_protect_pfswe_counter
                0x1ffe0458        0x2 ./synergy/ssp/src/driver/r_ioport/r_ioport.o
                0x1ffe0458                g_protect_pfswe_counter
 *fill*         0x1ffe045a        0x2 
 .bss.gp_elc_reg
                0x1ffe045c        0x4 ./synergy/ssp/src/driver/r_elc/r_elc.o
 .bss.g_dtc_state_initialized
                0x1ffe0460        0x1 ./synergy/ssp/src/driver/r_dtc/r_dtc.o
 *fill*         0x1ffe0461        0x3 
 .bss.gp_dtc_regs
                0x1ffe0464        0x4 ./synergy/ssp/src/driver/r_dtc/r_dtc.o
 .bss.gp_icu_regs
                0x1ffe0468        0x4 ./synergy/ssp/src/driver/r_dtc/r_dtc.o
 .bss.g_adc_valid_channels
                0x1ffe046c        0x8 ./synergy/ssp/src/driver/r_adc/r_adc.o
 .bss.new_rom_wait_state.0
                0x1ffe0474        0x1 ./synergy/ssp/src/bsp/mcu/s5d9/bsp_clocks.o
 *fill*         0x1ffe0475        0x3 
 .bss.g_bsp_group_irq_sources
                0x1ffe0478       0x30 ./synergy/ssp/src/bsp/mcu/s5d9/bsp_group_irq.o
 .bss.g_vector_information_size
                0x1ffe04a8        0x4 ./synergy/ssp/src/bsp/mcu/all/bsp_irq.o
                0x1ffe04a8                g_vector_information_size
 .bss.g_bsp_lock_lookup_size
                0x1ffe04ac        0x4 ./synergy/ssp/src/bsp/mcu/all/bsp_locking.o
 .bss.gp_bsp_lock_lookup
                0x1ffe04b0        0x4 ./synergy/ssp/src/bsp/mcu/all/bsp_locking.o
 .bss.gp_bsp_locks
                0x1ffe04b4        0x4 ./synergy/ssp/src/bsp/mcu/all/bsp_locking.o
 .bss.g_protect_counters
                0x1ffe04b8        0x6 ./synergy/ssp/src/bsp/mcu/all/bsp_register_protection.o
 *fill*         0x1ffe04be        0x2 
 .bss.current_heap_end.0
                0x1ffe04c0        0x4 ./synergy/ssp/src/bsp/mcu/all/bsp_sbrk.o
 .bss.SystemCoreClock
                0x1ffe04c4        0x4 ./synergy/ssp/src/bsp/cmsis/Device/RENESAS/S5D9/Source/system_S5D9.o
                0x1ffe04c4                SystemCoreClock
 .bss.adc_thread
                0x1ffe04c8       0xb4 ./src/synergy_gen/adc_thread.o
                0x1ffe04c8                adc_thread
 .bss.g_adc0_ctrl
                0x1ffe057c       0x38 ./src/synergy_gen/adc_thread.o
                0x1ffe057c                g_adc0_ctrl
 .bss.g_adc1_ctrl
                0x1ffe05b4       0x38 ./src/synergy_gen/adc_thread.o
                0x1ffe05b4                g_adc1_ctrl
 .bss.can_thread
                0x1ffe05ec       0xb4 ./src/synergy_gen/can_thread.o
                0x1ffe05ec                can_thread
 .bss.g_can0_ctrl
                0x1ffe06a0       0x28 ./src/synergy_gen/can_thread.o
 .bss.gp_ctrl_CAN_0_ERROR
                0x1ffe06c8        0x4 ./src/synergy_gen/can_thread.o
 .bss.gp_ctrl_CAN_0_MAILBOX_RX
                0x1ffe06cc        0x4 ./src/synergy_gen/can_thread.o
 .bss.gp_ctrl_CAN_0_MAILBOX_TX
                0x1ffe06d0        0x4 ./src/synergy_gen/can_thread.o
 .bss.drv_thread
                0x1ffe06d4       0xb4 ./src/synergy_gen/drv_thread.o
                0x1ffe06d4                drv_thread
 .bss.g_i2c0_ctrl
                0x1ffe0788       0x5c ./src/synergy_gen/drv_thread.o
                0x1ffe0788                g_i2c0_ctrl
 .bss.g_transfer0_ctrl
                0x1ffe07e4       0x10 ./src/synergy_gen/drv_thread.o
                0x1ffe07e4                g_transfer0_ctrl
 .bss.g_transfer1_ctrl
                0x1ffe07f4       0x10 ./src/synergy_gen/drv_thread.o
                0x1ffe07f4                g_transfer1_ctrl
 .bss.gp_ctrl_SCI_0_RXI
                0x1ffe0804        0x4 ./src/synergy_gen/drv_thread.o
 .bss.gp_ctrl_SCI_0_TEI
                0x1ffe0808        0x4 ./src/synergy_gen/drv_thread.o
 .bss.gp_ctrl_SCI_0_TXI
                0x1ffe080c        0x4 ./src/synergy_gen/drv_thread.o
 .bss.g_ssp_common_initialized
                0x1ffe0810        0x1 ./src/synergy_gen/main.o
                0x1ffe0810                g_ssp_common_initialized
 *fill*         0x1ffe0811        0x3 
 .bss.g_ssp_common_initialized_semaphore
                0x1ffe0814       0x1c ./src/synergy_gen/main.o
                0x1ffe0814                g_ssp_common_initialized_semaphore
 .bss.g_ssp_common_thread_count
                0x1ffe0830        0x4 ./src/synergy_gen/main.o
                0x1ffe0830                g_ssp_common_thread_count
 .bss.status_thread
                0x1ffe0834       0xb4 ./src/synergy_gen/status_thread.o
                0x1ffe0834                status_thread
 .bss.error     0x1ffe08e8        0x4 ./src/adc_thread_entry.o
 .bss.usADCResult
                0x1ffe08ec       0x12 ./src/adc_thread_entry.o
 *fill*         0x1ffe08fe        0x2 
 .bss.usMuxResults
                0x1ffe0900       0x90 ./src/adc_thread_entry.o
                0x1ffe0900                usMuxResults
 .bss.Info      0x1ffe0990       0x14 ./src/can_thread_entry.o
 .bss.canErrors
                0x1ffe09a4        0x4 ./src/can_thread_entry.o
 .bss.ch0       0x1ffe09a8        0x4 ./src/can_thread_entry.o
 .bss.error     0x1ffe09ac        0x4 ./src/can_thread_entry.o
 .bss.rxFrame   0x1ffe09b0       0x10 ./src/can_thread_entry.o
 .bss.rx_data   0x1ffe09c0        0x8 ./src/can_thread_entry.o
                0x1ffe09c0                rx_data
 .bss.txFrame   0x1ffe09c8       0x10 ./src/can_thread_entry.o
 .bss.ucRxComplete
                0x1ffe09d8        0x1 ./src/can_thread_entry.o
 *fill*         0x1ffe09d9        0x3 
 .bss.arr       0x1ffe09dc        0x8 ./src/drv_thread_entry.o
 .bss.arr1      0x1ffe09e4        0x8 ./src/drv_thread_entry.o
 .bss.call_1    0x1ffe09ec        0x4 ./src/drv_thread_entry.o
 .bss.coming_down
                0x1ffe09f0        0x4 ./src/drv_thread_entry.o
 .bss.coming_up
                0x1ffe09f4        0x4 ./src/drv_thread_entry.o
 .bss.counter   0x1ffe09f8        0x4 ./src/drv_thread_entry.o
 .bss.counter1  0x1ffe09fc        0x4 ./src/drv_thread_entry.o
 .bss.counter2  0x1ffe0a00        0x4 ./src/drv_thread_entry.o
 .bss.counter3  0x1ffe0a04        0x4 ./src/drv_thread_entry.o
 .bss.current_floor
                0x1ffe0a08        0x1 ./src/drv_thread_entry.o
                0x1ffe0a08                current_floor
 *fill*         0x1ffe0a09        0x3 
 .bss.door_reopen_cop_f1
                0x1ffe0a0c        0x4 ./src/drv_thread_entry.o
 .bss.door_reopen_cop_f2
                0x1ffe0a10        0x4 ./src/drv_thread_entry.o
 .bss.error     0x1ffe0a14        0x4 ./src/drv_thread_entry.o
 .bss.number    0x1ffe0a18        0x4 ./src/drv_thread_entry.o
 .bss.number1   0x1ffe0a1c        0x4 ./src/drv_thread_entry.o
 .bss.pendant_cop_f1
                0x1ffe0a20        0x4 ./src/drv_thread_entry.o
 .bss.pendant_cop_f2
                0x1ffe0a24        0x4 ./src/drv_thread_entry.o
 .bss.pendant_cop_f3
                0x1ffe0a28        0x4 ./src/drv_thread_entry.o
 .bss.pendant_cop_f4
                0x1ffe0a2c        0x4 ./src/drv_thread_entry.o
 .bss.previous_floor
                0x1ffe0a30        0x1 ./src/drv_thread_entry.o
                0x1ffe0a30                previous_floor
 .bss.ucDebounceDownHi
                0x1ffe0a31        0x1 ./src/drv_thread_entry.o
                0x1ffe0a31                ucDebounceDownHi
 .bss.ucDebounceDownLo
                0x1ffe0a32        0x1 ./src/drv_thread_entry.o
                0x1ffe0a32                ucDebounceDownLo
 .bss.ucDebounceUpHi
                0x1ffe0a33        0x1 ./src/drv_thread_entry.o
                0x1ffe0a33                ucDebounceUpHi
 .bss.ucDebounceUpLo
                0x1ffe0a34        0x1 ./src/drv_thread_entry.o
                0x1ffe0a34                ucDebounceUpLo
 .bss.ucRun     0x1ffe0a35        0x1 ./src/drv_thread_entry.o
                0x1ffe0a35                ucRun
 .bss.ucRunUp   0x1ffe0a36        0x1 ./src/drv_thread_entry.o
 *fill*         0x1ffe0a37        0x1 
 .bss.uc_Buffer
                0x1ffe0a38        0xa ./src/drv_thread_entry.o
 *fill*         0x1ffe0a42        0x2 
 .bss._tx_block_pool_created_count
                0x1ffe0a44        0x4 C:\Users\khurr\e2_studio_latest\workspace\VerticalControl\synergy\ssp\src\framework\el\tx\cm4_gcc\libtx.a(tx_initialize_high_level.o)
                0x1ffe0a44                _tx_block_pool_created_count
 .bss._tx_block_pool_created_ptr
                0x1ffe0a48        0x4 C:\Users\khurr\e2_studio_latest\workspace\VerticalControl\synergy\ssp\src\framework\el\tx\cm4_gcc\libtx.a(tx_initialize_high_level.o)
                0x1ffe0a48                _tx_block_pool_created_ptr
 .bss._tx_byte_pool_created_count
                0x1ffe0a4c        0x4 C:\Users\khurr\e2_studio_latest\workspace\VerticalControl\synergy\ssp\src\framework\el\tx\cm4_gcc\libtx.a(tx_initialize_high_level.o)
                0x1ffe0a4c                _tx_byte_pool_created_count
 .bss._tx_byte_pool_created_ptr
                0x1ffe0a50        0x4 C:\Users\khurr\e2_studio_latest\workspace\VerticalControl\synergy\ssp\src\framework\el\tx\cm4_gcc\libtx.a(tx_initialize_high_level.o)
                0x1ffe0a50                _tx_byte_pool_created_ptr
 .bss._tx_event_flags_created_count
                0x1ffe0a54        0x4 C:\Users\khurr\e2_studio_latest\workspace\VerticalControl\synergy\ssp\src\framework\el\tx\cm4_gcc\libtx.a(tx_initialize_high_level.o)
                0x1ffe0a54                _tx_event_flags_created_count
 .bss._tx_event_flags_created_ptr
                0x1ffe0a58        0x4 C:\Users\khurr\e2_studio_latest\workspace\VerticalControl\synergy\ssp\src\framework\el\tx\cm4_gcc\libtx.a(tx_initialize_high_level.o)
                0x1ffe0a58                _tx_event_flags_created_ptr
 .bss._tx_initialize_unused_memory
                0x1ffe0a5c        0x4 C:\Users\khurr\e2_studio_latest\workspace\VerticalControl\synergy\ssp\src\framework\el\tx\cm4_gcc\libtx.a(tx_initialize_high_level.o)
                0x1ffe0a5c                _tx_initialize_unused_memory
 .bss._tx_mutex_created_count
                0x1ffe0a60        0x4 C:\Users\khurr\e2_studio_latest\workspace\VerticalControl\synergy\ssp\src\framework\el\tx\cm4_gcc\libtx.a(tx_initialize_high_level.o)
                0x1ffe0a60                _tx_mutex_created_count
 .bss._tx_mutex_created_ptr
                0x1ffe0a64        0x4 C:\Users\khurr\e2_studio_latest\workspace\VerticalControl\synergy\ssp\src\framework\el\tx\cm4_gcc\libtx.a(tx_initialize_high_level.o)
                0x1ffe0a64                _tx_mutex_created_ptr
 .bss._tx_queue_created_count
                0x1ffe0a68        0x4 C:\Users\khurr\e2_studio_latest\workspace\VerticalControl\synergy\ssp\src\framework\el\tx\cm4_gcc\libtx.a(tx_initialize_high_level.o)
                0x1ffe0a68                _tx_queue_created_count
 .bss._tx_queue_created_ptr
                0x1ffe0a6c        0x4 C:\Users\khurr\e2_studio_latest\workspace\VerticalControl\synergy\ssp\src\framework\el\tx\cm4_gcc\libtx.a(tx_initialize_high_level.o)
                0x1ffe0a6c                _tx_queue_created_ptr
 .bss._tx_semaphore_created_count
                0x1ffe0a70        0x4 C:\Users\khurr\e2_studio_latest\workspace\VerticalControl\synergy\ssp\src\framework\el\tx\cm4_gcc\libtx.a(tx_initialize_high_level.o)
                0x1ffe0a70                _tx_semaphore_created_count
 .bss._tx_semaphore_created_ptr
                0x1ffe0a74        0x4 C:\Users\khurr\e2_studio_latest\workspace\VerticalControl\synergy\ssp\src\framework\el\tx\cm4_gcc\libtx.a(tx_initialize_high_level.o)
                0x1ffe0a74                _tx_semaphore_created_ptr
 .bss._tx_build_options
                0x1ffe0a78        0x4 C:\Users\khurr\e2_studio_latest\workspace\VerticalControl\synergy\ssp\src\framework\el\tx\cm4_gcc\libtx.a(tx_thread_initialize.o)
                0x1ffe0a78                _tx_build_options
 .bss._tx_thread_created_count
                0x1ffe0a7c        0x4 C:\Users\khurr\e2_studio_latest\workspace\VerticalControl\synergy\ssp\src\framework\el\tx\cm4_gcc\libtx.a(tx_thread_initialize.o)
                0x1ffe0a7c                _tx_thread_created_count
 .bss._tx_thread_created_ptr
                0x1ffe0a80        0x4 C:\Users\khurr\e2_studio_latest\workspace\VerticalControl\synergy\ssp\src\framework\el\tx\cm4_gcc\libtx.a(tx_thread_initialize.o)
                0x1ffe0a80                _tx_thread_created_ptr
 .bss._tx_thread_current_ptr
                0x1ffe0a84        0x4 C:\Users\khurr\e2_studio_latest\workspace\VerticalControl\synergy\ssp\src\framework\el\tx\cm4_gcc\libtx.a(tx_thread_initialize.o)
                0x1ffe0a84                _tx_thread_current_ptr
 .bss._tx_thread_execute_ptr
                0x1ffe0a88        0x4 C:\Users\khurr\e2_studio_latest\workspace\VerticalControl\synergy\ssp\src\framework\el\tx\cm4_gcc\libtx.a(tx_thread_initialize.o)
                0x1ffe0a88                _tx_thread_execute_ptr
 .bss._tx_thread_highest_priority
                0x1ffe0a8c        0x4 C:\Users\khurr\e2_studio_latest\workspace\VerticalControl\synergy\ssp\src\framework\el\tx\cm4_gcc\libtx.a(tx_thread_initialize.o)
                0x1ffe0a8c                _tx_thread_highest_priority
 .bss._tx_thread_mutex_release
                0x1ffe0a90        0x4 C:\Users\khurr\e2_studio_latest\workspace\VerticalControl\synergy\ssp\src\framework\el\tx\cm4_gcc\libtx.a(tx_thread_initialize.o)
                0x1ffe0a90                _tx_thread_mutex_release
 .bss._tx_thread_preempt_disable
                0x1ffe0a94        0x4 C:\Users\khurr\e2_studio_latest\workspace\VerticalControl\synergy\ssp\src\framework\el\tx\cm4_gcc\libtx.a(tx_thread_initialize.o)
                0x1ffe0a94                _tx_thread_preempt_disable
 .bss._tx_thread_priority_list
                0x1ffe0a98       0x80 C:\Users\khurr\e2_studio_latest\workspace\VerticalControl\synergy\ssp\src\framework\el\tx\cm4_gcc\libtx.a(tx_thread_initialize.o)
                0x1ffe0a98                _tx_thread_priority_list
 .bss._tx_thread_priority_maps
                0x1ffe0b18        0x4 C:\Users\khurr\e2_studio_latest\workspace\VerticalControl\synergy\ssp\src\framework\el\tx\cm4_gcc\libtx.a(tx_thread_initialize.o)
                0x1ffe0b18                _tx_thread_priority_maps
 .bss._tx_thread_system_stack_ptr
                0x1ffe0b1c        0x4 C:\Users\khurr\e2_studio_latest\workspace\VerticalControl\synergy\ssp\src\framework\el\tx\cm4_gcc\libtx.a(tx_thread_initialize.o)
                0x1ffe0b1c                _tx_thread_system_stack_ptr
 .bss._tx_timer_created_count
                0x1ffe0b20        0x4 C:\Users\khurr\e2_studio_latest\workspace\VerticalControl\synergy\ssp\src\framework\el\tx\cm4_gcc\libtx.a(tx_timer_initialize.o)
                0x1ffe0b20                _tx_timer_created_count
 .bss._tx_timer_created_ptr
                0x1ffe0b24        0x4 C:\Users\khurr\e2_studio_latest\workspace\VerticalControl\synergy\ssp\src\framework\el\tx\cm4_gcc\libtx.a(tx_timer_initialize.o)
                0x1ffe0b24                _tx_timer_created_ptr
 .bss._tx_timer_current_ptr
                0x1ffe0b28        0x4 C:\Users\khurr\e2_studio_latest\workspace\VerticalControl\synergy\ssp\src\framework\el\tx\cm4_gcc\libtx.a(tx_timer_initialize.o)
                0x1ffe0b28                _tx_timer_current_ptr
 .bss._tx_timer_expired
                0x1ffe0b2c        0x4 C:\Users\khurr\e2_studio_latest\workspace\VerticalControl\synergy\ssp\src\framework\el\tx\cm4_gcc\libtx.a(tx_timer_initialize.o)
                0x1ffe0b2c                _tx_timer_expired
 .bss._tx_timer_expired_time_slice
                0x1ffe0b30        0x4 C:\Users\khurr\e2_studio_latest\workspace\VerticalControl\synergy\ssp\src\framework\el\tx\cm4_gcc\libtx.a(tx_timer_initialize.o)
                0x1ffe0b30                _tx_timer_expired_time_slice
 .bss._tx_timer_expired_timer_ptr
                0x1ffe0b34        0x4 C:\Users\khurr\e2_studio_latest\workspace\VerticalControl\synergy\ssp\src\framework\el\tx\cm4_gcc\libtx.a(tx_timer_initialize.o)
                0x1ffe0b34                _tx_timer_expired_timer_ptr
 .bss._tx_timer_list
                0x1ffe0b38       0x80 C:\Users\khurr\e2_studio_latest\workspace\VerticalControl\synergy\ssp\src\framework\el\tx\cm4_gcc\libtx.a(tx_timer_initialize.o)
                0x1ffe0b38                _tx_timer_list
 .bss._tx_timer_list_end
                0x1ffe0bb8        0x4 C:\Users\khurr\e2_studio_latest\workspace\VerticalControl\synergy\ssp\src\framework\el\tx\cm4_gcc\libtx.a(tx_timer_initialize.o)
                0x1ffe0bb8                _tx_timer_list_end
 .bss._tx_timer_list_start
                0x1ffe0bbc        0x4 C:\Users\khurr\e2_studio_latest\workspace\VerticalControl\synergy\ssp\src\framework\el\tx\cm4_gcc\libtx.a(tx_timer_initialize.o)
                0x1ffe0bbc                _tx_timer_list_start
 .bss._tx_timer_processing_active
                0x1ffe0bc0        0x4 C:\Users\khurr\e2_studio_latest\workspace\VerticalControl\synergy\ssp\src\framework\el\tx\cm4_gcc\libtx.a(tx_timer_initialize.o)
                0x1ffe0bc0                _tx_timer_processing_active
 .bss._tx_timer_system_clock
                0x1ffe0bc4        0x4 C:\Users\khurr\e2_studio_latest\workspace\VerticalControl\synergy\ssp\src\framework\el\tx\cm4_gcc\libtx.a(tx_timer_initialize.o)
                0x1ffe0bc4                _tx_timer_system_clock
 .bss._tx_timer_time_slice
                0x1ffe0bc8        0x4 C:\Users\khurr\e2_studio_latest\workspace\VerticalControl\synergy\ssp\src\framework\el\tx\cm4_gcc\libtx.a(tx_timer_initialize.o)
                0x1ffe0bc8                _tx_timer_time_slice
 .bss.g_prcr    0x1ffe0bcc        0x4 C:\Users\khurr\e2_studio_latest\workspace\VerticalControl\synergy\ssp\src\framework\el\tx\cm4_gcc\libtx.a(tx_thread_schedule.o)
 .bss.g_sbycr_ssby
                0x1ffe0bd0        0x4 C:\Users\khurr\e2_studio_latest\workspace\VerticalControl\synergy\ssp\src\framework\el\tx\cm4_gcc\libtx.a(tx_thread_schedule.o)
 .bss.__malloc_free_list
                0x1ffe0bd4        0x4 c:/renesas/synergy/e2studio_v2022-10_ssp_v2.4.0/toolchains/gcc_arm/gcc-arm-none-eabi-10.3-2021.10/bin/../lib/gcc/arm-none-eabi/10.3.1/../../../../arm-none-eabi/lib/thumb/v7e-m+fp/hard\libg_nano.a(lib_a-nano-mallocr.o)
                0x1ffe0bd4                __malloc_free_list
 .bss.__malloc_sbrk_start
                0x1ffe0bd8        0x4 c:/renesas/synergy/e2studio_v2022-10_ssp_v2.4.0/toolchains/gcc_arm/gcc-arm-none-eabi-10.3-2021.10/bin/../lib/gcc/arm-none-eabi/10.3.1/../../../../arm-none-eabi/lib/thumb/v7e-m+fp/hard\libg_nano.a(lib_a-nano-mallocr.o)
                0x1ffe0bd8                __malloc_sbrk_start
 .bss.__lock___malloc_recursive_mutex
                0x1ffe0bdc        0x1 c:/renesas/synergy/e2studio_v2022-10_ssp_v2.4.0/toolchains/gcc_arm/gcc-arm-none-eabi-10.3-2021.10/bin/../lib/gcc/arm-none-eabi/10.3.1/../../../../arm-none-eabi/lib/thumb/v7e-m+fp/hard\libg_nano.a(lib_a-lock.o)
                0x1ffe0bdc                __lock___malloc_recursive_mutex
 .bss.__lock___sfp_recursive_mutex
                0x1ffe0bdd        0x1 c:/renesas/synergy/e2studio_v2022-10_ssp_v2.4.0/toolchains/gcc_arm/gcc-arm-none-eabi-10.3-2021.10/bin/../lib/gcc/arm-none-eabi/10.3.1/../../../../arm-none-eabi/lib/thumb/v7e-m+fp/hard\libg_nano.a(lib_a-lock.o)
                0x1ffe0bdd                __lock___sfp_recursive_mutex
 .bss.__lock___sinit_recursive_mutex
                0x1ffe0bde        0x1 c:/renesas/synergy/e2studio_v2022-10_ssp_v2.4.0/toolchains/gcc_arm/gcc-arm-none-eabi-10.3-2021.10/bin/../lib/gcc/arm-none-eabi/10.3.1/../../../../arm-none-eabi/lib/thumb/v7e-m+fp/hard\libg_nano.a(lib_a-lock.o)
                0x1ffe0bde                __lock___sinit_recursive_mutex
 *fill*         0x1ffe0bdf        0x1 
 .bss.errno     0x1ffe0be0        0x4 c:/renesas/synergy/e2studio_v2022-10_ssp_v2.4.0/toolchains/gcc_arm/gcc-arm-none-eabi-10.3-2021.10/bin/../lib/gcc/arm-none-eabi/10.3.1/../../../../arm-none-eabi/lib/thumb/v7e-m+fp/hard\libg_nano.a(lib_a-reent.o)
                0x1ffe0be0                errno
 .bss.openfiles
                0x1ffe0be4       0xa0 c:/renesas/synergy/e2studio_v2022-10_ssp_v2.4.0/toolchains/gcc_arm/gcc-arm-none-eabi-10.3-2021.10/bin/../lib/gcc/arm-none-eabi/10.3.1/../../../../arm-none-eabi/lib/thumb/v7e-m+fp/hard\librdimon_nano.a(rdimon-syscalls.o)
 *(COMMON)
                0x1ffe0c84                . = ALIGN (0x4)
                0x1ffe0c84                __bss_end__ = .

.heap           0x1ffe0c88     0x1000
                0x1ffe0c88                . = ALIGN (0x8)
 *(.heap_d1)
                0x1ffe0c88                . = ALIGN (0x8)
                0x1ffe0c88                __HeapBase = .
                0x1ffe0c88                __end__ = .
                0x1ffe0c88                end = __end__
 *(.heap*)
 .heap          0x1ffe0c88     0x1000 ./synergy/ssp/src/bsp/cmsis/Device/RENESAS/S5D9/Source/startup_S5D9.o
                0x1ffe1c88                __HeapLimit = .

.stack_dummy    0x1ffe1c88     0x2000
                0x1ffe1c88                . = ALIGN (0x8)
                0x1ffe1c88                __StackLimit = .
 *(.stack)
 .stack         0x1ffe1c88      0x800 ./synergy/ssp/src/bsp/cmsis/Device/RENESAS/S5D9/Source/startup_S5D9.o
                0x1ffe2488                __StackTop = .
 *(.stack*)
 .stack.adc_thread
                0x1ffe2488      0x800 ./src/synergy_gen/adc_thread.o
 .stack.can_thread
                0x1ffe2c88      0x400 ./src/synergy_gen/can_thread.o
 .stack.drv_thread
                0x1ffe3088      0x800 ./src/synergy_gen/drv_thread.o
 .stack.status_thread
                0x1ffe3888      0x400 ./src/synergy_gen/status_thread.o
                0x1ffe3c88                __StackTopAll = .
                0x1ffe3c88                PROVIDE (__stack = __StackTopAll)
                0x1ffe3c88                __RAM_segment_used_end__ = ALIGN (__StackTopAll, 0x4)

.dflash         0x40100000        0x0
                0x40100000                __Data_Flash_Start = .
 *(.dflash*)
                0x40100000                __Data_Flash_End = .

.sdram          0x90000000        0x0
                0x90000000                __SDRAM_Start = .
 *(.sdram*)
 *(.frame*)
                0x90000000                __SDRAM_End = .

.id_code_1      0x0100a150       0x10
                0x0100a150                __ID_Codes_Start = .
 *(.id_code_1*)
 .id_code_1     0x0100a150       0x10 ./synergy/ssp/src/bsp/mcu/s5d9/bsp_rom_registers.o
                0x0100a160                __ID_Codes_End = .
OUTPUT(VerticalControl.elf elf32-littlearm)
LOAD linker stubs

.rel.dyn        0x0100a160        0x0
 .rel.iplt      0x0100a160        0x0 c:/renesas/synergy/e2studio_v2022-10_ssp_v2.4.0/toolchains/gcc_arm/gcc-arm-none-eabi-10.3-2021.10/bin/../lib/gcc/arm-none-eabi/10.3.1/thumb/v7e-m+fp/hard/crtbegin.o

.ARM.attributes
                0x00000000       0x30
 .ARM.attributes
                0x00000000       0x1e c:/renesas/synergy/e2studio_v2022-10_ssp_v2.4.0/toolchains/gcc_arm/gcc-arm-none-eabi-10.3-2021.10/bin/../lib/gcc/arm-none-eabi/10.3.1/thumb/v7e-m+fp/hard/crti.o
 .ARM.attributes
                0x0000001e       0x34 c:/renesas/synergy/e2studio_v2022-10_ssp_v2.4.0/toolchains/gcc_arm/gcc-arm-none-eabi-10.3-2021.10/bin/../lib/gcc/arm-none-eabi/10.3.1/thumb/v7e-m+fp/hard/crtbegin.o
 .ARM.attributes
                0x00000052       0x34 ./synergy/ssp/src/driver/r_sci_i2c/r_sci_i2c.o
 .ARM.attributes
                0x00000086       0x34 ./synergy/ssp/src/driver/r_ioport/r_ioport.o
 .ARM.attributes
                0x000000ba       0x34 ./synergy/ssp/src/driver/r_elc/r_elc.o
 .ARM.attributes
                0x000000ee       0x34 ./synergy/ssp/src/driver/r_dtc/r_dtc.o
 .ARM.attributes
                0x00000122       0x34 ./synergy/ssp/src/driver/r_cgc/r_cgc.o
 .ARM.attributes
                0x00000156       0x34 ./synergy/ssp/src/driver/r_can/hw/hw_can.o
 .ARM.attributes
                0x0000018a       0x34 ./synergy/ssp/src/driver/r_can/r_can.o
 .ARM.attributes
                0x000001be       0x34 ./synergy/ssp/src/driver/r_adc/r_adc.o
 .ARM.attributes
                0x000001f2       0x34 ./synergy/ssp/src/bsp/mcu/s5d9/bsp_cache.o
 .ARM.attributes
                0x00000226       0x34 ./synergy/ssp/src/bsp/mcu/s5d9/bsp_clocks.o
 .ARM.attributes
                0x0000025a       0x34 ./synergy/ssp/src/bsp/mcu/s5d9/bsp_feature.o
 .ARM.attributes
                0x0000028e       0x34 ./synergy/ssp/src/bsp/mcu/s5d9/bsp_group_irq.o
 .ARM.attributes
                0x000002c2       0x34 ./synergy/ssp/src/bsp/mcu/s5d9/bsp_hw_locks.o
 .ARM.attributes
                0x000002f6       0x34 ./synergy/ssp/src/bsp/mcu/s5d9/bsp_module_stop.o
 .ARM.attributes
                0x0000032a       0x34 ./synergy/ssp/src/bsp/mcu/s5d9/bsp_rom_registers.o
 .ARM.attributes
                0x0000035e       0x34 ./synergy/ssp/src/bsp/mcu/all/bsp_common.o
 .ARM.attributes
                0x00000392       0x34 ./synergy/ssp/src/bsp/mcu/all/bsp_delay.o
 .ARM.attributes
                0x000003c6       0x34 ./synergy/ssp/src/bsp/mcu/all/bsp_irq.o
 .ARM.attributes
                0x000003fa       0x34 ./synergy/ssp/src/bsp/mcu/all/bsp_locking.o
 .ARM.attributes
                0x0000042e       0x34 ./synergy/ssp/src/bsp/mcu/all/bsp_register_protection.o
 .ARM.attributes
                0x00000462       0x34 ./synergy/ssp/src/bsp/mcu/all/bsp_sbrk.o
 .ARM.attributes
                0x00000496       0x34 ./synergy/ssp/src/bsp/cmsis/Device/RENESAS/S5D9/Source/startup_S5D9.o
 .ARM.attributes
                0x000004ca       0x34 ./synergy/ssp/src/bsp/cmsis/Device/RENESAS/S5D9/Source/system_S5D9.o
 .ARM.attributes
                0x000004fe       0x34 ./src/synergy_gen/adc_thread.o
 .ARM.attributes
                0x00000532       0x34 ./src/synergy_gen/can_thread.o
 .ARM.attributes
                0x00000566       0x34 ./src/synergy_gen/common_data.o
 .ARM.attributes
                0x0000059a       0x34 ./src/synergy_gen/drv_thread.o
 .ARM.attributes
                0x000005ce       0x34 ./src/synergy_gen/hal_data.o
 .ARM.attributes
                0x00000602       0x34 ./src/synergy_gen/main.o
 .ARM.attributes
                0x00000636       0x34 ./src/synergy_gen/pin_data.o
 .ARM.attributes
                0x0000066a       0x34 ./src/synergy_gen/status_thread.o
 .ARM.attributes
                0x0000069e       0x34 ./src/adc_thread_entry.o
 .ARM.attributes
                0x000006d2       0x34 ./src/can_thread_entry.o
 .ARM.attributes
                0x00000706       0x34 ./src/drv_thread_entry.o
 .ARM.attributes
                0x0000073a       0x34 ./src/status_thread_entry.o
 .ARM.attributes
                0x0000076e       0x34 C:\Users\khurr\e2_studio_latest\workspace\VerticalControl\synergy\ssp\src\driver\r_fmi\libs\libfmi_cm4_s5d9_gcc.a(r_fmi.o)
 .ARM.attributes
                0x000007a2       0x34 C:\Users\khurr\e2_studio_latest\workspace\VerticalControl\synergy\ssp\src\framework\el\tx\cm4_gcc\libtx.a(txe_semaphore_create.o)
 .ARM.attributes
                0x000007d6       0x34 C:\Users\khurr\e2_studio_latest\workspace\VerticalControl\synergy\ssp\src\framework\el\tx\cm4_gcc\libtx.a(txe_semaphore_get.o)
 .ARM.attributes
                0x0000080a       0x34 C:\Users\khurr\e2_studio_latest\workspace\VerticalControl\synergy\ssp\src\framework\el\tx\cm4_gcc\libtx.a(txe_semaphore_put.o)
 .ARM.attributes
                0x0000083e       0x34 C:\Users\khurr\e2_studio_latest\workspace\VerticalControl\synergy\ssp\src\framework\el\tx\cm4_gcc\libtx.a(txe_thread_create.o)
 .ARM.attributes
                0x00000872       0x34 C:\Users\khurr\e2_studio_latest\workspace\VerticalControl\synergy\ssp\src\framework\el\tx\cm4_gcc\libtx.a(tx_initialize_high_level.o)
 .ARM.attributes
                0x000008a6       0x34 C:\Users\khurr\e2_studio_latest\workspace\VerticalControl\synergy\ssp\src\framework\el\tx\cm4_gcc\libtx.a(tx_initialize_kernel_enter.o)
 .ARM.attributes
                0x000008da       0x34 C:\Users\khurr\e2_studio_latest\workspace\VerticalControl\synergy\ssp\src\framework\el\tx\cm4_gcc\libtx.a(tx_isr_end.o)
 .ARM.attributes
                0x0000090e       0x34 C:\Users\khurr\e2_studio_latest\workspace\VerticalControl\synergy\ssp\src\framework\el\tx\cm4_gcc\libtx.a(tx_isr_start.o)
 .ARM.attributes
                0x00000942       0x34 C:\Users\khurr\e2_studio_latest\workspace\VerticalControl\synergy\ssp\src\framework\el\tx\cm4_gcc\libtx.a(tx_semaphore_create.o)
 .ARM.attributes
                0x00000976       0x34 C:\Users\khurr\e2_studio_latest\workspace\VerticalControl\synergy\ssp\src\framework\el\tx\cm4_gcc\libtx.a(tx_semaphore_get.o)
 .ARM.attributes
                0x000009aa       0x34 C:\Users\khurr\e2_studio_latest\workspace\VerticalControl\synergy\ssp\src\framework\el\tx\cm4_gcc\libtx.a(tx_semaphore_put.o)
 .ARM.attributes
                0x000009de       0x34 C:\Users\khurr\e2_studio_latest\workspace\VerticalControl\synergy\ssp\src\framework\el\tx\cm4_gcc\libtx.a(tx_thread_create.o)
 .ARM.attributes
                0x00000a12       0x34 C:\Users\khurr\e2_studio_latest\workspace\VerticalControl\synergy\ssp\src\framework\el\tx\cm4_gcc\libtx.a(tx_thread_initialize.o)
 .ARM.attributes
                0x00000a46       0x34 C:\Users\khurr\e2_studio_latest\workspace\VerticalControl\synergy\ssp\src\framework\el\tx\cm4_gcc\libtx.a(tx_thread_shell_entry.o)
 .ARM.attributes
                0x00000a7a       0x34 C:\Users\khurr\e2_studio_latest\workspace\VerticalControl\synergy\ssp\src\framework\el\tx\cm4_gcc\libtx.a(tx_thread_sleep.o)
 .ARM.attributes
                0x00000aae       0x34 C:\Users\khurr\e2_studio_latest\workspace\VerticalControl\synergy\ssp\src\framework\el\tx\cm4_gcc\libtx.a(tx_thread_system_preempt_check.o)
 .ARM.attributes
                0x00000ae2       0x34 C:\Users\khurr\e2_studio_latest\workspace\VerticalControl\synergy\ssp\src\framework\el\tx\cm4_gcc\libtx.a(tx_thread_system_resume.o)
 .ARM.attributes
                0x00000b16       0x34 C:\Users\khurr\e2_studio_latest\workspace\VerticalControl\synergy\ssp\src\framework\el\tx\cm4_gcc\libtx.a(tx_thread_system_suspend.o)
 .ARM.attributes
                0x00000b4a       0x34 C:\Users\khurr\e2_studio_latest\workspace\VerticalControl\synergy\ssp\src\framework\el\tx\cm4_gcc\libtx.a(tx_thread_timeout.o)
 .ARM.attributes
                0x00000b7e       0x34 C:\Users\khurr\e2_studio_latest\workspace\VerticalControl\synergy\ssp\src\framework\el\tx\cm4_gcc\libtx.a(tx_timer_initialize.o)
 .ARM.attributes
                0x00000bb2       0x34 C:\Users\khurr\e2_studio_latest\workspace\VerticalControl\synergy\ssp\src\framework\el\tx\cm4_gcc\libtx.a(tx_timer_system_activate.o)
 .ARM.attributes
                0x00000be6       0x34 C:\Users\khurr\e2_studio_latest\workspace\VerticalControl\synergy\ssp\src\framework\el\tx\cm4_gcc\libtx.a(tx_timer_system_deactivate.o)
 .ARM.attributes
                0x00000c1a       0x34 C:\Users\khurr\e2_studio_latest\workspace\VerticalControl\synergy\ssp\src\framework\el\tx\cm4_gcc\libtx.a(tx_initialize_low_level.o)
 .ARM.attributes
                0x00000c4e       0x34 C:\Users\khurr\e2_studio_latest\workspace\VerticalControl\synergy\ssp\src\framework\el\tx\cm4_gcc\libtx.a(tx_thread_schedule.o)
 .ARM.attributes
                0x00000c82       0x34 C:\Users\khurr\e2_studio_latest\workspace\VerticalControl\synergy\ssp\src\framework\el\tx\cm4_gcc\libtx.a(tx_thread_stack_build.o)
 .ARM.attributes
                0x00000cb6       0x34 C:\Users\khurr\e2_studio_latest\workspace\VerticalControl\synergy\ssp\src\framework\el\tx\cm4_gcc\libtx.a(tx_timer_interrupt.o)
 .ARM.attributes
                0x00000cea       0x34 C:\Users\khurr\e2_studio_latest\workspace\VerticalControl\synergy\ssp\src\framework\el\tx\cm4_gcc\libtx.a(tx_semaphore_cleanup.o)
 .ARM.attributes
                0x00000d1e       0x34 C:\Users\khurr\e2_studio_latest\workspace\VerticalControl\synergy\ssp\src\framework\el\tx\cm4_gcc\libtx.a(tx_thread_time_slice.o)
 .ARM.attributes
                0x00000d52       0x34 C:\Users\khurr\e2_studio_latest\workspace\VerticalControl\synergy\ssp\src\framework\el\tx\cm4_gcc\libtx.a(tx_timer_expiration_process.o)
 .ARM.attributes
                0x00000d86       0x34 C:\Users\khurr\e2_studio_latest\workspace\VerticalControl\synergy\ssp\src\bsp\mcu\s5d9\libfmi_R7FS5D97E3A01CFB_gcc.a(bsp_fmi_R7FS5D97E3A01CFB.o)
 .ARM.attributes
                0x00000dba       0x1e c:/renesas/synergy/e2studio_v2022-10_ssp_v2.4.0/toolchains/gcc_arm/gcc-arm-none-eabi-10.3-2021.10/bin/../lib/gcc/arm-none-eabi/10.3.1/thumb/v7e-m+fp/hard\libgcc.a(_aeabi_uldivmod.o)
 .ARM.attributes
                0x00000dd8       0x34 c:/renesas/synergy/e2studio_v2022-10_ssp_v2.4.0/toolchains/gcc_arm/gcc-arm-none-eabi-10.3-2021.10/bin/../lib/gcc/arm-none-eabi/10.3.1/thumb/v7e-m+fp/hard\libgcc.a(_udivmoddi4.o)
 .ARM.attributes
                0x00000e0c       0x1e c:/renesas/synergy/e2studio_v2022-10_ssp_v2.4.0/toolchains/gcc_arm/gcc-arm-none-eabi-10.3-2021.10/bin/../lib/gcc/arm-none-eabi/10.3.1/thumb/v7e-m+fp/hard\libgcc.a(_dvmd_tls.o)
 .ARM.attributes
                0x00000e2a       0x34 c:/renesas/synergy/e2studio_v2022-10_ssp_v2.4.0/toolchains/gcc_arm/gcc-arm-none-eabi-10.3-2021.10/bin/../lib/gcc/arm-none-eabi/10.3.1/../../../../arm-none-eabi/lib/thumb/v7e-m+fp/hard\libg_nano.a(lib_a-errno.o)
 .ARM.attributes
                0x00000e5e       0x34 c:/renesas/synergy/e2studio_v2022-10_ssp_v2.4.0/toolchains/gcc_arm/gcc-arm-none-eabi-10.3-2021.10/bin/../lib/gcc/arm-none-eabi/10.3.1/../../../../arm-none-eabi/lib/thumb/v7e-m+fp/hard\libg_nano.a(lib_a-impure.o)
 .ARM.attributes
                0x00000e92       0x34 c:/renesas/synergy/e2studio_v2022-10_ssp_v2.4.0/toolchains/gcc_arm/gcc-arm-none-eabi-10.3-2021.10/bin/../lib/gcc/arm-none-eabi/10.3.1/../../../../arm-none-eabi/lib/thumb/v7e-m+fp/hard\libg_nano.a(lib_a-memcpy-stub.o)
 .ARM.attributes
                0x00000ec6       0x34 c:/renesas/synergy/e2studio_v2022-10_ssp_v2.4.0/toolchains/gcc_arm/gcc-arm-none-eabi-10.3-2021.10/bin/../lib/gcc/arm-none-eabi/10.3.1/../../../../arm-none-eabi/lib/thumb/v7e-m+fp/hard\libg_nano.a(lib_a-memset.o)
 .ARM.attributes
                0x00000efa       0x34 c:/renesas/synergy/e2studio_v2022-10_ssp_v2.4.0/toolchains/gcc_arm/gcc-arm-none-eabi-10.3-2021.10/bin/../lib/gcc/arm-none-eabi/10.3.1/../../../../arm-none-eabi/lib/thumb/v7e-m+fp/hard\libg_nano.a(lib_a-rand.o)
 .ARM.attributes
                0x00000f2e       0x34 c:/renesas/synergy/e2studio_v2022-10_ssp_v2.4.0/toolchains/gcc_arm/gcc-arm-none-eabi-10.3-2021.10/bin/../lib/gcc/arm-none-eabi/10.3.1/../../../../arm-none-eabi/lib/thumb/v7e-m+fp/hard\libg_nano.a(lib_a-assert.o)
 .ARM.attributes
                0x00000f62       0x34 c:/renesas/synergy/e2studio_v2022-10_ssp_v2.4.0/toolchains/gcc_arm/gcc-arm-none-eabi-10.3-2021.10/bin/../lib/gcc/arm-none-eabi/10.3.1/../../../../arm-none-eabi/lib/thumb/v7e-m+fp/hard\libg_nano.a(lib_a-fprintf.o)
 .ARM.attributes
                0x00000f96       0x34 c:/renesas/synergy/e2studio_v2022-10_ssp_v2.4.0/toolchains/gcc_arm/gcc-arm-none-eabi-10.3-2021.10/bin/../lib/gcc/arm-none-eabi/10.3.1/../../../../arm-none-eabi/lib/thumb/v7e-m+fp/hard\libg_nano.a(lib_a-malloc.o)
 .ARM.attributes
                0x00000fca       0x34 c:/renesas/synergy/e2studio_v2022-10_ssp_v2.4.0/toolchains/gcc_arm/gcc-arm-none-eabi-10.3-2021.10/bin/../lib/gcc/arm-none-eabi/10.3.1/../../../../arm-none-eabi/lib/thumb/v7e-m+fp/hard\libg_nano.a(lib_a-nano-freer.o)
 .ARM.attributes
                0x00000ffe       0x34 c:/renesas/synergy/e2studio_v2022-10_ssp_v2.4.0/toolchains/gcc_arm/gcc-arm-none-eabi-10.3-2021.10/bin/../lib/gcc/arm-none-eabi/10.3.1/../../../../arm-none-eabi/lib/thumb/v7e-m+fp/hard\libg_nano.a(lib_a-nano-mallocr.o)
 .ARM.attributes
                0x00001032       0x34 c:/renesas/synergy/e2studio_v2022-10_ssp_v2.4.0/toolchains/gcc_arm/gcc-arm-none-eabi-10.3-2021.10/bin/../lib/gcc/arm-none-eabi/10.3.1/../../../../arm-none-eabi/lib/thumb/v7e-m+fp/hard\libg_nano.a(lib_a-nano-vfprintf.o)
 .ARM.attributes
                0x00001066       0x34 c:/renesas/synergy/e2studio_v2022-10_ssp_v2.4.0/toolchains/gcc_arm/gcc-arm-none-eabi-10.3-2021.10/bin/../lib/gcc/arm-none-eabi/10.3.1/../../../../arm-none-eabi/lib/thumb/v7e-m+fp/hard\libg_nano.a(lib_a-nano-vfprintf_i.o)
 .ARM.attributes
                0x0000109a       0x34 c:/renesas/synergy/e2studio_v2022-10_ssp_v2.4.0/toolchains/gcc_arm/gcc-arm-none-eabi-10.3-2021.10/bin/../lib/gcc/arm-none-eabi/10.3.1/../../../../arm-none-eabi/lib/thumb/v7e-m+fp/hard\libg_nano.a(lib_a-sbrkr.o)
 .ARM.attributes
                0x000010ce       0x34 c:/renesas/synergy/e2studio_v2022-10_ssp_v2.4.0/toolchains/gcc_arm/gcc-arm-none-eabi-10.3-2021.10/bin/../lib/gcc/arm-none-eabi/10.3.1/../../../../arm-none-eabi/lib/thumb/v7e-m+fp/hard\libg_nano.a(lib_a-wbuf.o)
 .ARM.attributes
                0x00001102       0x34 c:/renesas/synergy/e2studio_v2022-10_ssp_v2.4.0/toolchains/gcc_arm/gcc-arm-none-eabi-10.3-2021.10/bin/../lib/gcc/arm-none-eabi/10.3.1/../../../../arm-none-eabi/lib/thumb/v7e-m+fp/hard\libg_nano.a(lib_a-wsetup.o)
 .ARM.attributes
                0x00001136       0x34 c:/renesas/synergy/e2studio_v2022-10_ssp_v2.4.0/toolchains/gcc_arm/gcc-arm-none-eabi-10.3-2021.10/bin/../lib/gcc/arm-none-eabi/10.3.1/../../../../arm-none-eabi/lib/thumb/v7e-m+fp/hard\libg_nano.a(lib_a-abort.o)
 .ARM.attributes
                0x0000116a       0x34 c:/renesas/synergy/e2studio_v2022-10_ssp_v2.4.0/toolchains/gcc_arm/gcc-arm-none-eabi-10.3-2021.10/bin/../lib/gcc/arm-none-eabi/10.3.1/../../../../arm-none-eabi/lib/thumb/v7e-m+fp/hard\libg_nano.a(lib_a-fflush.o)
 .ARM.attributes
                0x0000119e       0x34 c:/renesas/synergy/e2studio_v2022-10_ssp_v2.4.0/toolchains/gcc_arm/gcc-arm-none-eabi-10.3-2021.10/bin/../lib/gcc/arm-none-eabi/10.3.1/../../../../arm-none-eabi/lib/thumb/v7e-m+fp/hard\libg_nano.a(lib_a-findfp.o)
 .ARM.attributes
                0x000011d2       0x34 c:/renesas/synergy/e2studio_v2022-10_ssp_v2.4.0/toolchains/gcc_arm/gcc-arm-none-eabi-10.3-2021.10/bin/../lib/gcc/arm-none-eabi/10.3.1/../../../../arm-none-eabi/lib/thumb/v7e-m+fp/hard\libg_nano.a(lib_a-fwalk.o)
 .ARM.attributes
                0x00001206       0x34 c:/renesas/synergy/e2studio_v2022-10_ssp_v2.4.0/toolchains/gcc_arm/gcc-arm-none-eabi-10.3-2021.10/bin/../lib/gcc/arm-none-eabi/10.3.1/../../../../arm-none-eabi/lib/thumb/v7e-m+fp/hard\libg_nano.a(lib_a-lock.o)
 .ARM.attributes
                0x0000123a       0x34 c:/renesas/synergy/e2studio_v2022-10_ssp_v2.4.0/toolchains/gcc_arm/gcc-arm-none-eabi-10.3-2021.10/bin/../lib/gcc/arm-none-eabi/10.3.1/../../../../arm-none-eabi/lib/thumb/v7e-m+fp/hard\libg_nano.a(lib_a-makebuf.o)
 .ARM.attributes
                0x0000126e       0x1c c:/renesas/synergy/e2studio_v2022-10_ssp_v2.4.0/toolchains/gcc_arm/gcc-arm-none-eabi-10.3-2021.10/bin/../lib/gcc/arm-none-eabi/10.3.1/../../../../arm-none-eabi/lib/thumb/v7e-m+fp/hard\libg_nano.a(lib_a-memchr.o)
 .ARM.attributes
                0x0000128a       0x34 c:/renesas/synergy/e2studio_v2022-10_ssp_v2.4.0/toolchains/gcc_arm/gcc-arm-none-eabi-10.3-2021.10/bin/../lib/gcc/arm-none-eabi/10.3.1/../../../../arm-none-eabi/lib/thumb/v7e-m+fp/hard\libg_nano.a(lib_a-mlock.o)
 .ARM.attributes
                0x000012be       0x34 c:/renesas/synergy/e2studio_v2022-10_ssp_v2.4.0/toolchains/gcc_arm/gcc-arm-none-eabi-10.3-2021.10/bin/../lib/gcc/arm-none-eabi/10.3.1/../../../../arm-none-eabi/lib/thumb/v7e-m+fp/hard\libg_nano.a(lib_a-reent.o)
 .ARM.attributes
                0x000012f2       0x34 c:/renesas/synergy/e2studio_v2022-10_ssp_v2.4.0/toolchains/gcc_arm/gcc-arm-none-eabi-10.3-2021.10/bin/../lib/gcc/arm-none-eabi/10.3.1/../../../../arm-none-eabi/lib/thumb/v7e-m+fp/hard\libg_nano.a(lib_a-signal.o)
 .ARM.attributes
                0x00001326       0x34 c:/renesas/synergy/e2studio_v2022-10_ssp_v2.4.0/toolchains/gcc_arm/gcc-arm-none-eabi-10.3-2021.10/bin/../lib/gcc/arm-none-eabi/10.3.1/../../../../arm-none-eabi/lib/thumb/v7e-m+fp/hard\libg_nano.a(lib_a-signalr.o)
 .ARM.attributes
                0x0000135a       0x34 c:/renesas/synergy/e2studio_v2022-10_ssp_v2.4.0/toolchains/gcc_arm/gcc-arm-none-eabi-10.3-2021.10/bin/../lib/gcc/arm-none-eabi/10.3.1/../../../../arm-none-eabi/lib/thumb/v7e-m+fp/hard\libg_nano.a(lib_a-stdio.o)
 .ARM.attributes
                0x0000138e       0x34 c:/renesas/synergy/e2studio_v2022-10_ssp_v2.4.0/toolchains/gcc_arm/gcc-arm-none-eabi-10.3-2021.10/bin/../lib/gcc/arm-none-eabi/10.3.1/../../../../arm-none-eabi/lib/thumb/v7e-m+fp/hard\libg_nano.a(lib_a-writer.o)
 .ARM.attributes
                0x000013c2       0x34 c:/renesas/synergy/e2studio_v2022-10_ssp_v2.4.0/toolchains/gcc_arm/gcc-arm-none-eabi-10.3-2021.10/bin/../lib/gcc/arm-none-eabi/10.3.1/../../../../arm-none-eabi/lib/thumb/v7e-m+fp/hard\libg_nano.a(lib_a-closer.o)
 .ARM.attributes
                0x000013f6       0x34 c:/renesas/synergy/e2studio_v2022-10_ssp_v2.4.0/toolchains/gcc_arm/gcc-arm-none-eabi-10.3-2021.10/bin/../lib/gcc/arm-none-eabi/10.3.1/../../../../arm-none-eabi/lib/thumb/v7e-m+fp/hard\libg_nano.a(lib_a-fstatr.o)
 .ARM.attributes
                0x0000142a       0x34 c:/renesas/synergy/e2studio_v2022-10_ssp_v2.4.0/toolchains/gcc_arm/gcc-arm-none-eabi-10.3-2021.10/bin/../lib/gcc/arm-none-eabi/10.3.1/../../../../arm-none-eabi/lib/thumb/v7e-m+fp/hard\libg_nano.a(lib_a-isattyr.o)
 .ARM.attributes
                0x0000145e       0x34 c:/renesas/synergy/e2studio_v2022-10_ssp_v2.4.0/toolchains/gcc_arm/gcc-arm-none-eabi-10.3-2021.10/bin/../lib/gcc/arm-none-eabi/10.3.1/../../../../arm-none-eabi/lib/thumb/v7e-m+fp/hard\libg_nano.a(lib_a-lseekr.o)
 .ARM.attributes
                0x00001492       0x34 c:/renesas/synergy/e2studio_v2022-10_ssp_v2.4.0/toolchains/gcc_arm/gcc-arm-none-eabi-10.3-2021.10/bin/../lib/gcc/arm-none-eabi/10.3.1/../../../../arm-none-eabi/lib/thumb/v7e-m+fp/hard\libg_nano.a(lib_a-readr.o)
 .ARM.attributes
                0x000014c6       0x34 c:/renesas/synergy/e2studio_v2022-10_ssp_v2.4.0/toolchains/gcc_arm/gcc-arm-none-eabi-10.3-2021.10/bin/../lib/gcc/arm-none-eabi/10.3.1/../../../../arm-none-eabi/lib/thumb/v7e-m+fp/hard\librdimon_nano.a(rdimon-syscalls.o)
 .ARM.attributes
                0x000014fa       0x34 c:/renesas/synergy/e2studio_v2022-10_ssp_v2.4.0/toolchains/gcc_arm/gcc-arm-none-eabi-10.3-2021.10/bin/../lib/gcc/arm-none-eabi/10.3.1/../../../../arm-none-eabi/lib/thumb/v7e-m+fp/hard\librdimon_nano.a(rdimon-_exit.o)
 .ARM.attributes
                0x0000152e       0x34 c:/renesas/synergy/e2studio_v2022-10_ssp_v2.4.0/toolchains/gcc_arm/gcc-arm-none-eabi-10.3-2021.10/bin/../lib/gcc/arm-none-eabi/10.3.1/../../../../arm-none-eabi/lib/thumb/v7e-m+fp/hard\librdimon_nano.a(rdimon-_kill.o)
 .ARM.attributes
                0x00001562       0x17 c:/renesas/synergy/e2studio_v2022-10_ssp_v2.4.0/toolchains/gcc_arm/gcc-arm-none-eabi-10.3-2021.10/bin/../lib/gcc/arm-none-eabi/10.3.1/../../../../arm-none-eabi/lib/thumb/v7e-m+fp/hard\libc_nano.a(lib_a-strlen.o)
 .ARM.attributes
                0x00001579       0x34 c:/renesas/synergy/e2studio_v2022-10_ssp_v2.4.0/toolchains/gcc_arm/gcc-arm-none-eabi-10.3-2021.10/bin/../lib/gcc/arm-none-eabi/10.3.1/thumb/v7e-m+fp/hard/crtend.o
 .ARM.attributes
                0x000015ad       0x1e c:/renesas/synergy/e2studio_v2022-10_ssp_v2.4.0/toolchains/gcc_arm/gcc-arm-none-eabi-10.3-2021.10/bin/../lib/gcc/arm-none-eabi/10.3.1/thumb/v7e-m+fp/hard/crtn.o

.comment        0x00000000       0x49
 .comment       0x00000000       0x49 ./synergy/ssp/src/driver/r_sci_i2c/r_sci_i2c.o
                                 0x4a (size before relaxing)
 .comment       0x00000049       0x4a ./synergy/ssp/src/driver/r_ioport/r_ioport.o
 .comment       0x00000049       0x4a ./synergy/ssp/src/driver/r_elc/r_elc.o
 .comment       0x00000049       0x4a ./synergy/ssp/src/driver/r_dtc/r_dtc.o
 .comment       0x00000049       0x4a ./synergy/ssp/src/driver/r_cgc/r_cgc.o
 .comment       0x00000049       0x4a ./synergy/ssp/src/driver/r_can/hw/hw_can.o
 .comment       0x00000049       0x4a ./synergy/ssp/src/driver/r_can/r_can.o
 .comment       0x00000049       0x4a ./synergy/ssp/src/driver/r_adc/r_adc.o
 .comment       0x00000049       0x4a ./synergy/ssp/src/bsp/mcu/s5d9/bsp_cache.o
 .comment       0x00000049       0x4a ./synergy/ssp/src/bsp/mcu/s5d9/bsp_clocks.o
 .comment       0x00000049       0x4a ./synergy/ssp/src/bsp/mcu/s5d9/bsp_feature.o
 .comment       0x00000049       0x4a ./synergy/ssp/src/bsp/mcu/s5d9/bsp_group_irq.o
 .comment       0x00000049       0x4a ./synergy/ssp/src/bsp/mcu/s5d9/bsp_hw_locks.o
 .comment       0x00000049       0x4a ./synergy/ssp/src/bsp/mcu/s5d9/bsp_module_stop.o
 .comment       0x00000049       0x4a ./synergy/ssp/src/bsp/mcu/s5d9/bsp_rom_registers.o
 .comment       0x00000049       0x4a ./synergy/ssp/src/bsp/mcu/all/bsp_common.o
 .comment       0x00000049       0x4a ./synergy/ssp/src/bsp/mcu/all/bsp_delay.o
 .comment       0x00000049       0x4a ./synergy/ssp/src/bsp/mcu/all/bsp_irq.o
 .comment       0x00000049       0x4a ./synergy/ssp/src/bsp/mcu/all/bsp_locking.o
 .comment       0x00000049       0x4a ./synergy/ssp/src/bsp/mcu/all/bsp_register_protection.o
 .comment       0x00000049       0x4a ./synergy/ssp/src/bsp/mcu/all/bsp_sbrk.o
 .comment       0x00000049       0x4a ./synergy/ssp/src/bsp/cmsis/Device/RENESAS/S5D9/Source/startup_S5D9.o
 .comment       0x00000049       0x4a ./synergy/ssp/src/bsp/cmsis/Device/RENESAS/S5D9/Source/system_S5D9.o
 .comment       0x00000049       0x4a ./src/synergy_gen/adc_thread.o
 .comment       0x00000049       0x4a ./src/synergy_gen/can_thread.o
 .comment       0x00000049       0x4a ./src/synergy_gen/common_data.o
 .comment       0x00000049       0x4a ./src/synergy_gen/drv_thread.o
 .comment       0x00000049       0x4a ./src/synergy_gen/hal_data.o
 .comment       0x00000049       0x4a ./src/synergy_gen/main.o
 .comment       0x00000049       0x4a ./src/synergy_gen/pin_data.o
 .comment       0x00000049       0x4a ./src/synergy_gen/status_thread.o
 .comment       0x00000049       0x4a ./src/adc_thread_entry.o
 .comment       0x00000049       0x4a ./src/can_thread_entry.o
 .comment       0x00000049       0x4a ./src/drv_thread_entry.o
 .comment       0x00000049       0x4a ./src/status_thread_entry.o
 .comment       0x00000049       0x4a C:\Users\khurr\e2_studio_latest\workspace\VerticalControl\synergy\ssp\src\driver\r_fmi\libs\libfmi_cm4_s5d9_gcc.a(r_fmi.o)
 .comment       0x00000049       0x4a C:\Users\khurr\e2_studio_latest\workspace\VerticalControl\synergy\ssp\src\framework\el\tx\cm4_gcc\libtx.a(txe_semaphore_create.o)
 .comment       0x00000049       0x4a C:\Users\khurr\e2_studio_latest\workspace\VerticalControl\synergy\ssp\src\framework\el\tx\cm4_gcc\libtx.a(txe_semaphore_get.o)
 .comment       0x00000049       0x4a C:\Users\khurr\e2_studio_latest\workspace\VerticalControl\synergy\ssp\src\framework\el\tx\cm4_gcc\libtx.a(txe_semaphore_put.o)
 .comment       0x00000049       0x4a C:\Users\khurr\e2_studio_latest\workspace\VerticalControl\synergy\ssp\src\framework\el\tx\cm4_gcc\libtx.a(txe_thread_create.o)
 .comment       0x00000049       0x4a C:\Users\khurr\e2_studio_latest\workspace\VerticalControl\synergy\ssp\src\framework\el\tx\cm4_gcc\libtx.a(tx_initialize_high_level.o)
 .comment       0x00000049       0x4a C:\Users\khurr\e2_studio_latest\workspace\VerticalControl\synergy\ssp\src\framework\el\tx\cm4_gcc\libtx.a(tx_initialize_kernel_enter.o)
 .comment       0x00000049       0x4a C:\Users\khurr\e2_studio_latest\workspace\VerticalControl\synergy\ssp\src\framework\el\tx\cm4_gcc\libtx.a(tx_isr_end.o)
 .comment       0x00000049       0x4a C:\Users\khurr\e2_studio_latest\workspace\VerticalControl\synergy\ssp\src\framework\el\tx\cm4_gcc\libtx.a(tx_isr_start.o)
 .comment       0x00000049       0x4a C:\Users\khurr\e2_studio_latest\workspace\VerticalControl\synergy\ssp\src\framework\el\tx\cm4_gcc\libtx.a(tx_semaphore_create.o)
 .comment       0x00000049       0x4a C:\Users\khurr\e2_studio_latest\workspace\VerticalControl\synergy\ssp\src\framework\el\tx\cm4_gcc\libtx.a(tx_semaphore_get.o)
 .comment       0x00000049       0x4a C:\Users\khurr\e2_studio_latest\workspace\VerticalControl\synergy\ssp\src\framework\el\tx\cm4_gcc\libtx.a(tx_semaphore_put.o)
 .comment       0x00000049       0x4a C:\Users\khurr\e2_studio_latest\workspace\VerticalControl\synergy\ssp\src\framework\el\tx\cm4_gcc\libtx.a(tx_thread_create.o)
 .comment       0x00000049       0x4a C:\Users\khurr\e2_studio_latest\workspace\VerticalControl\synergy\ssp\src\framework\el\tx\cm4_gcc\libtx.a(tx_thread_initialize.o)
 .comment       0x00000049       0x4a C:\Users\khurr\e2_studio_latest\workspace\VerticalControl\synergy\ssp\src\framework\el\tx\cm4_gcc\libtx.a(tx_thread_shell_entry.o)
 .comment       0x00000049       0x4a C:\Users\khurr\e2_studio_latest\workspace\VerticalControl\synergy\ssp\src\framework\el\tx\cm4_gcc\libtx.a(tx_thread_sleep.o)
 .comment       0x00000049       0x4a C:\Users\khurr\e2_studio_latest\workspace\VerticalControl\synergy\ssp\src\framework\el\tx\cm4_gcc\libtx.a(tx_thread_system_preempt_check.o)
 .comment       0x00000049       0x4a C:\Users\khurr\e2_studio_latest\workspace\VerticalControl\synergy\ssp\src\framework\el\tx\cm4_gcc\libtx.a(tx_thread_system_resume.o)
 .comment       0x00000049       0x4a C:\Users\khurr\e2_studio_latest\workspace\VerticalControl\synergy\ssp\src\framework\el\tx\cm4_gcc\libtx.a(tx_thread_system_suspend.o)
 .comment       0x00000049       0x4a C:\Users\khurr\e2_studio_latest\workspace\VerticalControl\synergy\ssp\src\framework\el\tx\cm4_gcc\libtx.a(tx_thread_timeout.o)
 .comment       0x00000049       0x4a C:\Users\khurr\e2_studio_latest\workspace\VerticalControl\synergy\ssp\src\framework\el\tx\cm4_gcc\libtx.a(tx_timer_initialize.o)
 .comment       0x00000049       0x4a C:\Users\khurr\e2_studio_latest\workspace\VerticalControl\synergy\ssp\src\framework\el\tx\cm4_gcc\libtx.a(tx_timer_system_activate.o)
 .comment       0x00000049       0x4a C:\Users\khurr\e2_studio_latest\workspace\VerticalControl\synergy\ssp\src\framework\el\tx\cm4_gcc\libtx.a(tx_timer_system_deactivate.o)
 .comment       0x00000049       0x4a C:\Users\khurr\e2_studio_latest\workspace\VerticalControl\synergy\ssp\src\framework\el\tx\cm4_gcc\libtx.a(tx_initialize_low_level.o)
 .comment       0x00000049       0x4a C:\Users\khurr\e2_studio_latest\workspace\VerticalControl\synergy\ssp\src\framework\el\tx\cm4_gcc\libtx.a(tx_thread_schedule.o)
 .comment       0x00000049       0x4a C:\Users\khurr\e2_studio_latest\workspace\VerticalControl\synergy\ssp\src\framework\el\tx\cm4_gcc\libtx.a(tx_thread_stack_build.o)
 .comment       0x00000049       0x4a C:\Users\khurr\e2_studio_latest\workspace\VerticalControl\synergy\ssp\src\framework\el\tx\cm4_gcc\libtx.a(tx_timer_interrupt.o)
 .comment       0x00000049       0x4a C:\Users\khurr\e2_studio_latest\workspace\VerticalControl\synergy\ssp\src\framework\el\tx\cm4_gcc\libtx.a(tx_semaphore_cleanup.o)
 .comment       0x00000049       0x4a C:\Users\khurr\e2_studio_latest\workspace\VerticalControl\synergy\ssp\src\framework\el\tx\cm4_gcc\libtx.a(tx_thread_time_slice.o)
 .comment       0x00000049       0x4a C:\Users\khurr\e2_studio_latest\workspace\VerticalControl\synergy\ssp\src\framework\el\tx\cm4_gcc\libtx.a(tx_timer_expiration_process.o)
 .comment       0x00000049       0x4a C:\Users\khurr\e2_studio_latest\workspace\VerticalControl\synergy\ssp\src\bsp\mcu\s5d9\libfmi_R7FS5D97E3A01CFB_gcc.a(bsp_fmi_R7FS5D97E3A01CFB.o)

.debug_info     0x00000000    0x6c416
 .debug_info    0x00000000     0x8909 ./synergy/ssp/src/driver/r_sci_i2c/r_sci_i2c.o
 .debug_info    0x00008909    0x10aa6 ./synergy/ssp/src/driver/r_ioport/r_ioport.o
 .debug_info    0x000193af     0x225b ./synergy/ssp/src/driver/r_elc/r_elc.o
 .debug_info    0x0001b60a     0x3f72 ./synergy/ssp/src/driver/r_dtc/r_dtc.o
 .debug_info    0x0001f57c     0x839c ./synergy/ssp/src/driver/r_cgc/r_cgc.o
 .debug_info    0x00027918     0x33da ./synergy/ssp/src/driver/r_can/hw/hw_can.o
 .debug_info    0x0002acf2     0x691f ./synergy/ssp/src/driver/r_can/r_can.o
 .debug_info    0x00031611     0x8864 ./synergy/ssp/src/driver/r_adc/r_adc.o
 .debug_info    0x00039e75      0x86a ./synergy/ssp/src/bsp/mcu/s5d9/bsp_cache.o
 .debug_info    0x0003a6df     0x1652 ./synergy/ssp/src/bsp/mcu/s5d9/bsp_clocks.o
 .debug_info    0x0003bd31      0xb50 ./synergy/ssp/src/bsp/mcu/s5d9/bsp_feature.o
 .debug_info    0x0003c881     0x1506 ./synergy/ssp/src/bsp/mcu/s5d9/bsp_group_irq.o
 .debug_info    0x0003dd87     0x1436 ./synergy/ssp/src/bsp/mcu/s5d9/bsp_hw_locks.o
 .debug_info    0x0003f1bd     0x32d5 ./synergy/ssp/src/bsp/mcu/s5d9/bsp_module_stop.o
 .debug_info    0x00042492      0x22b ./synergy/ssp/src/bsp/mcu/s5d9/bsp_rom_registers.o
 .debug_info    0x000426bd      0x941 ./synergy/ssp/src/bsp/mcu/all/bsp_common.o
 .debug_info    0x00042ffe      0x1d7 ./synergy/ssp/src/bsp/mcu/all/bsp_delay.o
 .debug_info    0x000431d5      0xd27 ./synergy/ssp/src/bsp/mcu/all/bsp_irq.o
 .debug_info    0x00043efc      0xe91 ./synergy/ssp/src/bsp/mcu/all/bsp_locking.o
 .debug_info    0x00044d8d     0x2293 ./synergy/ssp/src/bsp/mcu/all/bsp_register_protection.o
 .debug_info    0x00047020      0x13b ./synergy/ssp/src/bsp/mcu/all/bsp_sbrk.o
 .debug_info    0x0004715b      0x2d2 ./synergy/ssp/src/bsp/cmsis/Device/RENESAS/S5D9/Source/startup_S5D9.o
 .debug_info    0x0004742d     0x389a ./synergy/ssp/src/bsp/cmsis/Device/RENESAS/S5D9/Source/system_S5D9.o
 .debug_info    0x0004acc7     0x24d8 ./src/synergy_gen/adc_thread.o
 .debug_info    0x0004d19f     0x2818 ./src/synergy_gen/can_thread.o
 .debug_info    0x0004f9b7     0x2e6f ./src/synergy_gen/common_data.o
 .debug_info    0x00052826     0x2963 ./src/synergy_gen/drv_thread.o
 .debug_info    0x00055189       0xa6 ./src/synergy_gen/hal_data.o
 .debug_info    0x0005522f      0x8e1 ./src/synergy_gen/main.o
 .debug_info    0x00055b10      0x989 ./src/synergy_gen/pin_data.o
 .debug_info    0x00056499      0x720 ./src/synergy_gen/status_thread.o
 .debug_info    0x00056bb9     0x28df ./src/adc_thread_entry.o
 .debug_info    0x00059498     0x12a7 ./src/can_thread_entry.o
 .debug_info    0x0005a73f     0x3699 ./src/drv_thread_entry.o
 .debug_info    0x0005ddd8     0x1068 ./src/status_thread_entry.o
 .debug_info    0x0005ee40      0x7d8 C:\Users\khurr\e2_studio_latest\workspace\VerticalControl\synergy\ssp\src\framework\el\tx\cm4_gcc\libtx.a(txe_semaphore_create.o)
 .debug_info    0x0005f618      0x5b5 C:\Users\khurr\e2_studio_latest\workspace\VerticalControl\synergy\ssp\src\framework\el\tx\cm4_gcc\libtx.a(txe_semaphore_get.o)
 .debug_info    0x0005fbcd      0x540 C:\Users\khurr\e2_studio_latest\workspace\VerticalControl\synergy\ssp\src\framework\el\tx\cm4_gcc\libtx.a(txe_semaphore_put.o)
 .debug_info    0x0006010d      0x840 C:\Users\khurr\e2_studio_latest\workspace\VerticalControl\synergy\ssp\src\framework\el\tx\cm4_gcc\libtx.a(txe_thread_create.o)
 .debug_info    0x0006094d      0x98e C:\Users\khurr\e2_studio_latest\workspace\VerticalControl\synergy\ssp\src\framework\el\tx\cm4_gcc\libtx.a(tx_initialize_high_level.o)
 .debug_info    0x000612db      0x12a C:\Users\khurr\e2_studio_latest\workspace\VerticalControl\synergy\ssp\src\framework\el\tx\cm4_gcc\libtx.a(tx_initialize_kernel_enter.o)
 .debug_info    0x00061405       0xa0 C:\Users\khurr\e2_studio_latest\workspace\VerticalControl\synergy\ssp\src\framework\el\tx\cm4_gcc\libtx.a(tx_isr_end.o)
 .debug_info    0x000614a5       0xa0 C:\Users\khurr\e2_studio_latest\workspace\VerticalControl\synergy\ssp\src\framework\el\tx\cm4_gcc\libtx.a(tx_isr_start.o)
 .debug_info    0x00061545      0x660 C:\Users\khurr\e2_studio_latest\workspace\VerticalControl\synergy\ssp\src\framework\el\tx\cm4_gcc\libtx.a(tx_semaphore_create.o)
 .debug_info    0x00061ba5      0x6f2 C:\Users\khurr\e2_studio_latest\workspace\VerticalControl\synergy\ssp\src\framework\el\tx\cm4_gcc\libtx.a(tx_semaphore_get.o)
 .debug_info    0x00062297      0x6a3 C:\Users\khurr\e2_studio_latest\workspace\VerticalControl\synergy\ssp\src\framework\el\tx\cm4_gcc\libtx.a(tx_semaphore_put.o)
 .debug_info    0x0006293a      0x886 C:\Users\khurr\e2_studio_latest\workspace\VerticalControl\synergy\ssp\src\framework\el\tx\cm4_gcc\libtx.a(tx_thread_create.o)
 .debug_info    0x000631c0      0x676 C:\Users\khurr\e2_studio_latest\workspace\VerticalControl\synergy\ssp\src\framework\el\tx\cm4_gcc\libtx.a(tx_thread_initialize.o)
 .debug_info    0x00063836      0x679 C:\Users\khurr\e2_studio_latest\workspace\VerticalControl\synergy\ssp\src\framework\el\tx\cm4_gcc\libtx.a(tx_thread_shell_entry.o)
 .debug_info    0x00063eaf      0x685 C:\Users\khurr\e2_studio_latest\workspace\VerticalControl\synergy\ssp\src\framework\el\tx\cm4_gcc\libtx.a(tx_thread_sleep.o)
 .debug_info    0x00064534      0x7ff C:\Users\khurr\e2_studio_latest\workspace\VerticalControl\synergy\ssp\src\framework\el\tx\cm4_gcc\libtx.a(tx_thread_system_preempt_check.o)
 .debug_info    0x00064d33      0x9a3 C:\Users\khurr\e2_studio_latest\workspace\VerticalControl\synergy\ssp\src\framework\el\tx\cm4_gcc\libtx.a(tx_thread_system_resume.o)
 .debug_info    0x000656d6      0x9f4 C:\Users\khurr\e2_studio_latest\workspace\VerticalControl\synergy\ssp\src\framework\el\tx\cm4_gcc\libtx.a(tx_thread_system_suspend.o)
 .debug_info    0x000660ca      0x60e C:\Users\khurr\e2_studio_latest\workspace\VerticalControl\synergy\ssp\src\framework\el\tx\cm4_gcc\libtx.a(tx_thread_timeout.o)
 .debug_info    0x000666d8      0x340 C:\Users\khurr\e2_studio_latest\workspace\VerticalControl\synergy\ssp\src\framework\el\tx\cm4_gcc\libtx.a(tx_timer_initialize.o)
 .debug_info    0x00066a18      0x1e3 C:\Users\khurr\e2_studio_latest\workspace\VerticalControl\synergy\ssp\src\framework\el\tx\cm4_gcc\libtx.a(tx_timer_system_activate.o)
 .debug_info    0x00066bfb      0x183 C:\Users\khurr\e2_studio_latest\workspace\VerticalControl\synergy\ssp\src\framework\el\tx\cm4_gcc\libtx.a(tx_timer_system_deactivate.o)
 .debug_info    0x00066d7e      0x77d C:\Users\khurr\e2_studio_latest\workspace\VerticalControl\synergy\ssp\src\framework\el\tx\cm4_gcc\libtx.a(tx_initialize_low_level.o)
 .debug_info    0x000674fb     0x32a2 C:\Users\khurr\e2_studio_latest\workspace\VerticalControl\synergy\ssp\src\framework\el\tx\cm4_gcc\libtx.a(tx_thread_schedule.o)
 .debug_info    0x0006a79d      0x49b C:\Users\khurr\e2_studio_latest\workspace\VerticalControl\synergy\ssp\src\framework\el\tx\cm4_gcc\libtx.a(tx_thread_stack_build.o)
 .debug_info    0x0006ac38      0x728 C:\Users\khurr\e2_studio_latest\workspace\VerticalControl\synergy\ssp\src\framework\el\tx\cm4_gcc\libtx.a(tx_timer_interrupt.o)
 .debug_info    0x0006b360      0x700 C:\Users\khurr\e2_studio_latest\workspace\VerticalControl\synergy\ssp\src\framework\el\tx\cm4_gcc\libtx.a(tx_semaphore_cleanup.o)
 .debug_info    0x0006ba60      0x5c2 C:\Users\khurr\e2_studio_latest\workspace\VerticalControl\synergy\ssp\src\framework\el\tx\cm4_gcc\libtx.a(tx_thread_time_slice.o)
 .debug_info    0x0006c022      0x3f4 C:\Users\khurr\e2_studio_latest\workspace\VerticalControl\synergy\ssp\src\framework\el\tx\cm4_gcc\libtx.a(tx_timer_expiration_process.o)

.debug_abbrev   0x00000000     0x9139
 .debug_abbrev  0x00000000      0x71f ./synergy/ssp/src/driver/r_sci_i2c/r_sci_i2c.o
 .debug_abbrev  0x0000071f      0x553 ./synergy/ssp/src/driver/r_ioport/r_ioport.o
 .debug_abbrev  0x00000c72      0x358 ./synergy/ssp/src/driver/r_elc/r_elc.o
 .debug_abbrev  0x00000fca      0x66a ./synergy/ssp/src/driver/r_dtc/r_dtc.o
 .debug_abbrev  0x00001634      0x635 ./synergy/ssp/src/driver/r_cgc/r_cgc.o
 .debug_abbrev  0x00001c69      0x495 ./synergy/ssp/src/driver/r_can/hw/hw_can.o
 .debug_abbrev  0x000020fe      0x649 ./synergy/ssp/src/driver/r_can/r_can.o
 .debug_abbrev  0x00002747      0x619 ./synergy/ssp/src/driver/r_adc/r_adc.o
 .debug_abbrev  0x00002d60      0x179 ./synergy/ssp/src/bsp/mcu/s5d9/bsp_cache.o
 .debug_abbrev  0x00002ed9      0x33f ./synergy/ssp/src/bsp/mcu/s5d9/bsp_clocks.o
 .debug_abbrev  0x00003218       0xde ./synergy/ssp/src/bsp/mcu/s5d9/bsp_feature.o
 .debug_abbrev  0x000032f6      0x2bc ./synergy/ssp/src/bsp/mcu/s5d9/bsp_group_irq.o
 .debug_abbrev  0x000035b2      0x141 ./synergy/ssp/src/bsp/mcu/s5d9/bsp_hw_locks.o
 .debug_abbrev  0x000036f3      0x366 ./synergy/ssp/src/bsp/mcu/s5d9/bsp_module_stop.o
 .debug_abbrev  0x00003a59       0x7d ./synergy/ssp/src/bsp/mcu/s5d9/bsp_rom_registers.o
 .debug_abbrev  0x00003ad6      0x1b4 ./synergy/ssp/src/bsp/mcu/all/bsp_common.o
 .debug_abbrev  0x00003c8a      0x11c ./synergy/ssp/src/bsp/mcu/all/bsp_delay.o
 .debug_abbrev  0x00003da6      0x24b ./synergy/ssp/src/bsp/mcu/all/bsp_irq.o
 .debug_abbrev  0x00003ff1      0x34e ./synergy/ssp/src/bsp/mcu/all/bsp_locking.o
 .debug_abbrev  0x0000433f      0x271 ./synergy/ssp/src/bsp/mcu/all/bsp_register_protection.o
 .debug_abbrev  0x000045b0       0xcc ./synergy/ssp/src/bsp/mcu/all/bsp_sbrk.o
 .debug_abbrev  0x0000467c      0x104 ./synergy/ssp/src/bsp/cmsis/Device/RENESAS/S5D9/Source/startup_S5D9.o
 .debug_abbrev  0x00004780      0x44e ./synergy/ssp/src/bsp/cmsis/Device/RENESAS/S5D9/Source/system_S5D9.o
 .debug_abbrev  0x00004bce      0x2b6 ./src/synergy_gen/adc_thread.o
 .debug_abbrev  0x00004e84      0x2f6 ./src/synergy_gen/can_thread.o
 .debug_abbrev  0x0000517a      0x230 ./src/synergy_gen/common_data.o
 .debug_abbrev  0x000053aa      0x2fb ./src/synergy_gen/drv_thread.o
 .debug_abbrev  0x000056a5       0x67 ./src/synergy_gen/hal_data.o
 .debug_abbrev  0x0000570c      0x1b1 ./src/synergy_gen/main.o
 .debug_abbrev  0x000058bd      0x104 ./src/synergy_gen/pin_data.o
 .debug_abbrev  0x000059c1      0x1b8 ./src/synergy_gen/status_thread.o
 .debug_abbrev  0x00005b79      0x25c ./src/adc_thread_entry.o
 .debug_abbrev  0x00005dd5      0x291 ./src/can_thread_entry.o
 .debug_abbrev  0x00006066      0x443 ./src/drv_thread_entry.o
 .debug_abbrev  0x000064a9      0x189 ./src/status_thread_entry.o
 .debug_abbrev  0x00006632      0x206 C:\Users\khurr\e2_studio_latest\workspace\VerticalControl\synergy\ssp\src\framework\el\tx\cm4_gcc\libtx.a(txe_semaphore_create.o)
 .debug_abbrev  0x00006838      0x153 C:\Users\khurr\e2_studio_latest\workspace\VerticalControl\synergy\ssp\src\framework\el\tx\cm4_gcc\libtx.a(txe_semaphore_get.o)
 .debug_abbrev  0x0000698b       0xec C:\Users\khurr\e2_studio_latest\workspace\VerticalControl\synergy\ssp\src\framework\el\tx\cm4_gcc\libtx.a(txe_semaphore_put.o)
 .debug_abbrev  0x00006a77      0x1da C:\Users\khurr\e2_studio_latest\workspace\VerticalControl\synergy\ssp\src\framework\el\tx\cm4_gcc\libtx.a(txe_thread_create.o)
 .debug_abbrev  0x00006c51      0x10c C:\Users\khurr\e2_studio_latest\workspace\VerticalControl\synergy\ssp\src\framework\el\tx\cm4_gcc\libtx.a(tx_initialize_high_level.o)
 .debug_abbrev  0x00006d5d       0xc8 C:\Users\khurr\e2_studio_latest\workspace\VerticalControl\synergy\ssp\src\framework\el\tx\cm4_gcc\libtx.a(tx_initialize_kernel_enter.o)
 .debug_abbrev  0x00006e25       0x64 C:\Users\khurr\e2_studio_latest\workspace\VerticalControl\synergy\ssp\src\framework\el\tx\cm4_gcc\libtx.a(tx_isr_end.o)
 .debug_abbrev  0x00006e89       0x64 C:\Users\khurr\e2_studio_latest\workspace\VerticalControl\synergy\ssp\src\framework\el\tx\cm4_gcc\libtx.a(tx_isr_start.o)
 .debug_abbrev  0x00006eed      0x198 C:\Users\khurr\e2_studio_latest\workspace\VerticalControl\synergy\ssp\src\framework\el\tx\cm4_gcc\libtx.a(tx_semaphore_create.o)
 .debug_abbrev  0x00007085      0x1bb C:\Users\khurr\e2_studio_latest\workspace\VerticalControl\synergy\ssp\src\framework\el\tx\cm4_gcc\libtx.a(tx_semaphore_get.o)
 .debug_abbrev  0x00007240      0x1af C:\Users\khurr\e2_studio_latest\workspace\VerticalControl\synergy\ssp\src\framework\el\tx\cm4_gcc\libtx.a(tx_semaphore_put.o)
 .debug_abbrev  0x000073ef      0x20e C:\Users\khurr\e2_studio_latest\workspace\VerticalControl\synergy\ssp\src\framework\el\tx\cm4_gcc\libtx.a(tx_thread_create.o)
 .debug_abbrev  0x000075fd      0x123 C:\Users\khurr\e2_studio_latest\workspace\VerticalControl\synergy\ssp\src\framework\el\tx\cm4_gcc\libtx.a(tx_thread_initialize.o)
 .debug_abbrev  0x00007720      0x1b7 C:\Users\khurr\e2_studio_latest\workspace\VerticalControl\synergy\ssp\src\framework\el\tx\cm4_gcc\libtx.a(tx_thread_shell_entry.o)
 .debug_abbrev  0x000078d7      0x1bb C:\Users\khurr\e2_studio_latest\workspace\VerticalControl\synergy\ssp\src\framework\el\tx\cm4_gcc\libtx.a(tx_thread_sleep.o)
 .debug_abbrev  0x00007a92      0x1e9 C:\Users\khurr\e2_studio_latest\workspace\VerticalControl\synergy\ssp\src\framework\el\tx\cm4_gcc\libtx.a(tx_thread_system_preempt_check.o)
 .debug_abbrev  0x00007c7b      0x22f C:\Users\khurr\e2_studio_latest\workspace\VerticalControl\synergy\ssp\src\framework\el\tx\cm4_gcc\libtx.a(tx_thread_system_resume.o)
 .debug_abbrev  0x00007eaa      0x23a C:\Users\khurr\e2_studio_latest\workspace\VerticalControl\synergy\ssp\src\framework\el\tx\cm4_gcc\libtx.a(tx_thread_system_suspend.o)
 .debug_abbrev  0x000080e4      0x1af C:\Users\khurr\e2_studio_latest\workspace\VerticalControl\synergy\ssp\src\framework\el\tx\cm4_gcc\libtx.a(tx_thread_timeout.o)
 .debug_abbrev  0x00008293      0x102 C:\Users\khurr\e2_studio_latest\workspace\VerticalControl\synergy\ssp\src\framework\el\tx\cm4_gcc\libtx.a(tx_timer_initialize.o)
 .debug_abbrev  0x00008395       0xd5 C:\Users\khurr\e2_studio_latest\workspace\VerticalControl\synergy\ssp\src\framework\el\tx\cm4_gcc\libtx.a(tx_timer_system_activate.o)
 .debug_abbrev  0x0000846a       0xc2 C:\Users\khurr\e2_studio_latest\workspace\VerticalControl\synergy\ssp\src\framework\el\tx\cm4_gcc\libtx.a(tx_timer_system_deactivate.o)
 .debug_abbrev  0x0000852c      0x1e5 C:\Users\khurr\e2_studio_latest\workspace\VerticalControl\synergy\ssp\src\framework\el\tx\cm4_gcc\libtx.a(tx_initialize_low_level.o)
 .debug_abbrev  0x00008711      0x2be C:\Users\khurr\e2_studio_latest\workspace\VerticalControl\synergy\ssp\src\framework\el\tx\cm4_gcc\libtx.a(tx_thread_schedule.o)
 .debug_abbrev  0x000089cf       0xbc C:\Users\khurr\e2_studio_latest\workspace\VerticalControl\synergy\ssp\src\framework\el\tx\cm4_gcc\libtx.a(tx_thread_stack_build.o)
 .debug_abbrev  0x00008a8b      0x13d C:\Users\khurr\e2_studio_latest\workspace\VerticalControl\synergy\ssp\src\framework\el\tx\cm4_gcc\libtx.a(tx_timer_interrupt.o)
 .debug_abbrev  0x00008bc8      0x1e0 C:\Users\khurr\e2_studio_latest\workspace\VerticalControl\synergy\ssp\src\framework\el\tx\cm4_gcc\libtx.a(tx_semaphore_cleanup.o)
 .debug_abbrev  0x00008da8      0x1a5 C:\Users\khurr\e2_studio_latest\workspace\VerticalControl\synergy\ssp\src\framework\el\tx\cm4_gcc\libtx.a(tx_thread_time_slice.o)
 .debug_abbrev  0x00008f4d      0x1ec C:\Users\khurr\e2_studio_latest\workspace\VerticalControl\synergy\ssp\src\framework\el\tx\cm4_gcc\libtx.a(tx_timer_expiration_process.o)

.debug_loc      0x00000000    0x15e9d
 .debug_loc     0x00000000     0x422f ./synergy/ssp/src/driver/r_sci_i2c/r_sci_i2c.o
 .debug_loc     0x0000422f     0x210d ./synergy/ssp/src/driver/r_ioport/r_ioport.o
 .debug_loc     0x0000633c      0x2e8 ./synergy/ssp/src/driver/r_elc/r_elc.o
 .debug_loc     0x00006624     0x1507 ./synergy/ssp/src/driver/r_dtc/r_dtc.o
 .debug_loc     0x00007b2b     0x35d1 ./synergy/ssp/src/driver/r_cgc/r_cgc.o
 .debug_loc     0x0000b0fc     0x11d9 ./synergy/ssp/src/driver/r_can/hw/hw_can.o
 .debug_loc     0x0000c2d5     0x2062 ./synergy/ssp/src/driver/r_can/r_can.o
 .debug_loc     0x0000e337     0x3aa0 ./synergy/ssp/src/driver/r_adc/r_adc.o
 .debug_loc     0x00011dd7       0xcf ./synergy/ssp/src/bsp/mcu/s5d9/bsp_cache.o
 .debug_loc     0x00011ea6      0x16f ./synergy/ssp/src/bsp/mcu/s5d9/bsp_clocks.o
 .debug_loc     0x00012015      0x29b ./synergy/ssp/src/bsp/mcu/s5d9/bsp_group_irq.o
 .debug_loc     0x000122b0      0x88b ./synergy/ssp/src/bsp/mcu/s5d9/bsp_module_stop.o
 .debug_loc     0x00012b3b       0x84 ./synergy/ssp/src/bsp/mcu/all/bsp_common.o
 .debug_loc     0x00012bbf      0x15d ./synergy/ssp/src/bsp/mcu/all/bsp_delay.o
 .debug_loc     0x00012d1c       0x48 ./synergy/ssp/src/bsp/mcu/all/bsp_irq.o
 .debug_loc     0x00012d64      0x3f4 ./synergy/ssp/src/bsp/mcu/all/bsp_locking.o
 .debug_loc     0x00013158      0x145 ./synergy/ssp/src/bsp/mcu/all/bsp_register_protection.o
 .debug_loc     0x0001329d       0xf3 ./synergy/ssp/src/bsp/mcu/all/bsp_sbrk.o
 .debug_loc     0x00013390       0xb8 ./synergy/ssp/src/bsp/cmsis/Device/RENESAS/S5D9/Source/system_S5D9.o
 .debug_loc     0x00013448       0x3a ./src/synergy_gen/adc_thread.o
 .debug_loc     0x00013482       0x3a ./src/synergy_gen/can_thread.o
 .debug_loc     0x000134bc       0x3a ./src/synergy_gen/drv_thread.o
 .debug_loc     0x000134f6       0x73 ./src/synergy_gen/main.o
 .debug_loc     0x00013569       0x3a ./src/synergy_gen/status_thread.o
 .debug_loc     0x000135a3       0x48 ./src/adc_thread_entry.o
 .debug_loc     0x000135eb       0xb1 ./src/can_thread_entry.o
 .debug_loc     0x0001369c      0x86b ./src/drv_thread_entry.o
 .debug_loc     0x00013f07      0x29e C:\Users\khurr\e2_studio_latest\workspace\VerticalControl\synergy\ssp\src\framework\el\tx\cm4_gcc\libtx.a(txe_semaphore_create.o)
 .debug_loc     0x000141a5       0xd8 C:\Users\khurr\e2_studio_latest\workspace\VerticalControl\synergy\ssp\src\framework\el\tx\cm4_gcc\libtx.a(txe_semaphore_get.o)
 .debug_loc     0x0001427d       0x42 C:\Users\khurr\e2_studio_latest\workspace\VerticalControl\synergy\ssp\src\framework\el\tx\cm4_gcc\libtx.a(txe_semaphore_put.o)
 .debug_loc     0x000142bf      0x551 C:\Users\khurr\e2_studio_latest\workspace\VerticalControl\synergy\ssp\src\framework\el\tx\cm4_gcc\libtx.a(txe_thread_create.o)
 .debug_loc     0x00014810      0x134 C:\Users\khurr\e2_studio_latest\workspace\VerticalControl\synergy\ssp\src\framework\el\tx\cm4_gcc\libtx.a(tx_semaphore_create.o)
 .debug_loc     0x00014944      0x1de C:\Users\khurr\e2_studio_latest\workspace\VerticalControl\synergy\ssp\src\framework\el\tx\cm4_gcc\libtx.a(tx_semaphore_get.o)
 .debug_loc     0x00014b22      0x16d C:\Users\khurr\e2_studio_latest\workspace\VerticalControl\synergy\ssp\src\framework\el\tx\cm4_gcc\libtx.a(tx_semaphore_put.o)
 .debug_loc     0x00014c8f      0x31e C:\Users\khurr\e2_studio_latest\workspace\VerticalControl\synergy\ssp\src\framework\el\tx\cm4_gcc\libtx.a(tx_thread_create.o)
 .debug_loc     0x00014fad       0xe6 C:\Users\khurr\e2_studio_latest\workspace\VerticalControl\synergy\ssp\src\framework\el\tx\cm4_gcc\libtx.a(tx_thread_shell_entry.o)
 .debug_loc     0x00015093      0x12a C:\Users\khurr\e2_studio_latest\workspace\VerticalControl\synergy\ssp\src\framework\el\tx\cm4_gcc\libtx.a(tx_thread_sleep.o)
 .debug_loc     0x000151bd       0xaf C:\Users\khurr\e2_studio_latest\workspace\VerticalControl\synergy\ssp\src\framework\el\tx\cm4_gcc\libtx.a(tx_thread_system_preempt_check.o)
 .debug_loc     0x0001526c      0x1ed C:\Users\khurr\e2_studio_latest\workspace\VerticalControl\synergy\ssp\src\framework\el\tx\cm4_gcc\libtx.a(tx_thread_system_resume.o)
 .debug_loc     0x00015459      0x290 C:\Users\khurr\e2_studio_latest\workspace\VerticalControl\synergy\ssp\src\framework\el\tx\cm4_gcc\libtx.a(tx_thread_system_suspend.o)
 .debug_loc     0x000156e9      0x14b C:\Users\khurr\e2_studio_latest\workspace\VerticalControl\synergy\ssp\src\framework\el\tx\cm4_gcc\libtx.a(tx_thread_timeout.o)
 .debug_loc     0x00015834       0xcd C:\Users\khurr\e2_studio_latest\workspace\VerticalControl\synergy\ssp\src\framework\el\tx\cm4_gcc\libtx.a(tx_timer_system_activate.o)
 .debug_loc     0x00015901       0x75 C:\Users\khurr\e2_studio_latest\workspace\VerticalControl\synergy\ssp\src\framework\el\tx\cm4_gcc\libtx.a(tx_timer_system_deactivate.o)
 .debug_loc     0x00015976       0xd8 C:\Users\khurr\e2_studio_latest\workspace\VerticalControl\synergy\ssp\src\framework\el\tx\cm4_gcc\libtx.a(tx_initialize_low_level.o)
 .debug_loc     0x00015a4e       0x2a C:\Users\khurr\e2_studio_latest\workspace\VerticalControl\synergy\ssp\src\framework\el\tx\cm4_gcc\libtx.a(tx_thread_schedule.o)
 .debug_loc     0x00015a78      0x1e3 C:\Users\khurr\e2_studio_latest\workspace\VerticalControl\synergy\ssp\src\framework\el\tx\cm4_gcc\libtx.a(tx_semaphore_cleanup.o)
 .debug_loc     0x00015c5b       0x83 C:\Users\khurr\e2_studio_latest\workspace\VerticalControl\synergy\ssp\src\framework\el\tx\cm4_gcc\libtx.a(tx_thread_time_slice.o)
 .debug_loc     0x00015cde      0x1bf C:\Users\khurr\e2_studio_latest\workspace\VerticalControl\synergy\ssp\src\framework\el\tx\cm4_gcc\libtx.a(tx_timer_expiration_process.o)

.debug_aranges  0x00000000      0xdd0
 .debug_aranges
                0x00000000       0x90 ./synergy/ssp/src/driver/r_sci_i2c/r_sci_i2c.o
 .debug_aranges
                0x00000090       0x98 ./synergy/ssp/src/driver/r_ioport/r_ioport.o
 .debug_aranges
                0x00000128       0x50 ./synergy/ssp/src/driver/r_elc/r_elc.o
 .debug_aranges
                0x00000178       0x70 ./synergy/ssp/src/driver/r_dtc/r_dtc.o
 .debug_aranges
                0x000001e8      0x120 ./synergy/ssp/src/driver/r_cgc/r_cgc.o
 .debug_aranges
                0x00000308       0x88 ./synergy/ssp/src/driver/r_can/hw/hw_can.o
 .debug_aranges
                0x00000390       0x70 ./synergy/ssp/src/driver/r_can/r_can.o
 .debug_aranges
                0x00000400       0xa8 ./synergy/ssp/src/driver/r_adc/r_adc.o
 .debug_aranges
                0x000004a8       0x28 ./synergy/ssp/src/bsp/mcu/s5d9/bsp_cache.o
 .debug_aranges
                0x000004d0       0x30 ./synergy/ssp/src/bsp/mcu/s5d9/bsp_clocks.o
 .debug_aranges
                0x00000500       0x90 ./synergy/ssp/src/bsp/mcu/s5d9/bsp_feature.o
 .debug_aranges
                0x00000590       0x38 ./synergy/ssp/src/bsp/mcu/s5d9/bsp_group_irq.o
 .debug_aranges
                0x000005c8       0x18 ./synergy/ssp/src/bsp/mcu/s5d9/bsp_hw_locks.o
 .debug_aranges
                0x000005e0       0x38 ./synergy/ssp/src/bsp/mcu/s5d9/bsp_module_stop.o
 .debug_aranges
                0x00000618       0x18 ./synergy/ssp/src/bsp/mcu/s5d9/bsp_rom_registers.o
 .debug_aranges
                0x00000630       0x30 ./synergy/ssp/src/bsp/mcu/all/bsp_common.o
 .debug_aranges
                0x00000660       0x28 ./synergy/ssp/src/bsp/mcu/all/bsp_delay.o
 .debug_aranges
                0x00000688       0x28 ./synergy/ssp/src/bsp/mcu/all/bsp_irq.o
 .debug_aranges
                0x000006b0       0x40 ./synergy/ssp/src/bsp/mcu/all/bsp_locking.o
 .debug_aranges
                0x000006f0       0x30 ./synergy/ssp/src/bsp/mcu/all/bsp_register_protection.o
 .debug_aranges
                0x00000720       0x20 ./synergy/ssp/src/bsp/mcu/all/bsp_sbrk.o
 .debug_aranges
                0x00000740       0x28 ./synergy/ssp/src/bsp/cmsis/Device/RENESAS/S5D9/Source/startup_S5D9.o
 .debug_aranges
                0x00000768       0x30 ./synergy/ssp/src/bsp/cmsis/Device/RENESAS/S5D9/Source/system_S5D9.o
 .debug_aranges
                0x00000798       0x28 ./src/synergy_gen/adc_thread.o
 .debug_aranges
                0x000007c0       0x28 ./src/synergy_gen/can_thread.o
 .debug_aranges
                0x000007e8       0x20 ./src/synergy_gen/common_data.o
 .debug_aranges
                0x00000808       0x28 ./src/synergy_gen/drv_thread.o
 .debug_aranges
                0x00000830       0x20 ./src/synergy_gen/hal_data.o
 .debug_aranges
                0x00000850       0x40 ./src/synergy_gen/main.o
 .debug_aranges
                0x00000890       0x18 ./src/synergy_gen/pin_data.o
 .debug_aranges
                0x000008a8       0x28 ./src/synergy_gen/status_thread.o
 .debug_aranges
                0x000008d0       0x30 ./src/adc_thread_entry.o
 .debug_aranges
                0x00000900       0x28 ./src/can_thread_entry.o
 .debug_aranges
                0x00000928       0xd0 ./src/drv_thread_entry.o
 .debug_aranges
                0x000009f8       0x20 ./src/status_thread_entry.o
 .debug_aranges
                0x00000a18       0x20 C:\Users\khurr\e2_studio_latest\workspace\VerticalControl\synergy\ssp\src\framework\el\tx\cm4_gcc\libtx.a(txe_semaphore_create.o)
 .debug_aranges
                0x00000a38       0x20 C:\Users\khurr\e2_studio_latest\workspace\VerticalControl\synergy\ssp\src\framework\el\tx\cm4_gcc\libtx.a(txe_semaphore_get.o)
 .debug_aranges
                0x00000a58       0x20 C:\Users\khurr\e2_studio_latest\workspace\VerticalControl\synergy\ssp\src\framework\el\tx\cm4_gcc\libtx.a(txe_semaphore_put.o)
 .debug_aranges
                0x00000a78       0x20 C:\Users\khurr\e2_studio_latest\workspace\VerticalControl\synergy\ssp\src\framework\el\tx\cm4_gcc\libtx.a(txe_thread_create.o)
 .debug_aranges
                0x00000a98       0x20 C:\Users\khurr\e2_studio_latest\workspace\VerticalControl\synergy\ssp\src\framework\el\tx\cm4_gcc\libtx.a(tx_initialize_high_level.o)
 .debug_aranges
                0x00000ab8       0x20 C:\Users\khurr\e2_studio_latest\workspace\VerticalControl\synergy\ssp\src\framework\el\tx\cm4_gcc\libtx.a(tx_initialize_kernel_enter.o)
 .debug_aranges
                0x00000ad8       0x20 C:\Users\khurr\e2_studio_latest\workspace\VerticalControl\synergy\ssp\src\framework\el\tx\cm4_gcc\libtx.a(tx_isr_end.o)
 .debug_aranges
                0x00000af8       0x20 C:\Users\khurr\e2_studio_latest\workspace\VerticalControl\synergy\ssp\src\framework\el\tx\cm4_gcc\libtx.a(tx_isr_start.o)
 .debug_aranges
                0x00000b18       0x20 C:\Users\khurr\e2_studio_latest\workspace\VerticalControl\synergy\ssp\src\framework\el\tx\cm4_gcc\libtx.a(tx_semaphore_create.o)
 .debug_aranges
                0x00000b38       0x20 C:\Users\khurr\e2_studio_latest\workspace\VerticalControl\synergy\ssp\src\framework\el\tx\cm4_gcc\libtx.a(tx_semaphore_get.o)
 .debug_aranges
                0x00000b58       0x20 C:\Users\khurr\e2_studio_latest\workspace\VerticalControl\synergy\ssp\src\framework\el\tx\cm4_gcc\libtx.a(tx_semaphore_put.o)
 .debug_aranges
                0x00000b78       0x20 C:\Users\khurr\e2_studio_latest\workspace\VerticalControl\synergy\ssp\src\framework\el\tx\cm4_gcc\libtx.a(tx_thread_create.o)
 .debug_aranges
                0x00000b98       0x20 C:\Users\khurr\e2_studio_latest\workspace\VerticalControl\synergy\ssp\src\framework\el\tx\cm4_gcc\libtx.a(tx_thread_initialize.o)
 .debug_aranges
                0x00000bb8       0x20 C:\Users\khurr\e2_studio_latest\workspace\VerticalControl\synergy\ssp\src\framework\el\tx\cm4_gcc\libtx.a(tx_thread_shell_entry.o)
 .debug_aranges
                0x00000bd8       0x20 C:\Users\khurr\e2_studio_latest\workspace\VerticalControl\synergy\ssp\src\framework\el\tx\cm4_gcc\libtx.a(tx_thread_sleep.o)
 .debug_aranges
                0x00000bf8       0x20 C:\Users\khurr\e2_studio_latest\workspace\VerticalControl\synergy\ssp\src\framework\el\tx\cm4_gcc\libtx.a(tx_thread_system_preempt_check.o)
 .debug_aranges
                0x00000c18       0x20 C:\Users\khurr\e2_studio_latest\workspace\VerticalControl\synergy\ssp\src\framework\el\tx\cm4_gcc\libtx.a(tx_thread_system_resume.o)
 .debug_aranges
                0x00000c38       0x20 C:\Users\khurr\e2_studio_latest\workspace\VerticalControl\synergy\ssp\src\framework\el\tx\cm4_gcc\libtx.a(tx_thread_system_suspend.o)
 .debug_aranges
                0x00000c58       0x20 C:\Users\khurr\e2_studio_latest\workspace\VerticalControl\synergy\ssp\src\framework\el\tx\cm4_gcc\libtx.a(tx_thread_timeout.o)
 .debug_aranges
                0x00000c78       0x20 C:\Users\khurr\e2_studio_latest\workspace\VerticalControl\synergy\ssp\src\framework\el\tx\cm4_gcc\libtx.a(tx_timer_initialize.o)
 .debug_aranges
                0x00000c98       0x20 C:\Users\khurr\e2_studio_latest\workspace\VerticalControl\synergy\ssp\src\framework\el\tx\cm4_gcc\libtx.a(tx_timer_system_activate.o)
 .debug_aranges
                0x00000cb8       0x20 C:\Users\khurr\e2_studio_latest\workspace\VerticalControl\synergy\ssp\src\framework\el\tx\cm4_gcc\libtx.a(tx_timer_system_deactivate.o)
 .debug_aranges
                0x00000cd8       0x20 C:\Users\khurr\e2_studio_latest\workspace\VerticalControl\synergy\ssp\src\framework\el\tx\cm4_gcc\libtx.a(tx_initialize_low_level.o)
 .debug_aranges
                0x00000cf8       0x38 C:\Users\khurr\e2_studio_latest\workspace\VerticalControl\synergy\ssp\src\framework\el\tx\cm4_gcc\libtx.a(tx_thread_schedule.o)
 .debug_aranges
                0x00000d30       0x20 C:\Users\khurr\e2_studio_latest\workspace\VerticalControl\synergy\ssp\src\framework\el\tx\cm4_gcc\libtx.a(tx_thread_stack_build.o)
 .debug_aranges
                0x00000d50       0x20 C:\Users\khurr\e2_studio_latest\workspace\VerticalControl\synergy\ssp\src\framework\el\tx\cm4_gcc\libtx.a(tx_timer_interrupt.o)
 .debug_aranges
                0x00000d70       0x20 C:\Users\khurr\e2_studio_latest\workspace\VerticalControl\synergy\ssp\src\framework\el\tx\cm4_gcc\libtx.a(tx_semaphore_cleanup.o)
 .debug_aranges
                0x00000d90       0x20 C:\Users\khurr\e2_studio_latest\workspace\VerticalControl\synergy\ssp\src\framework\el\tx\cm4_gcc\libtx.a(tx_thread_time_slice.o)
 .debug_aranges
                0x00000db0       0x20 C:\Users\khurr\e2_studio_latest\workspace\VerticalControl\synergy\ssp\src\framework\el\tx\cm4_gcc\libtx.a(tx_timer_expiration_process.o)

.debug_ranges   0x00000000     0x4388
 .debug_ranges  0x00000000      0xaf0 ./synergy/ssp/src/driver/r_sci_i2c/r_sci_i2c.o
 .debug_ranges  0x00000af0      0x648 ./synergy/ssp/src/driver/r_ioport/r_ioport.o
 .debug_ranges  0x00001138       0xf0 ./synergy/ssp/src/driver/r_elc/r_elc.o
 .debug_ranges  0x00001228      0x3d8 ./synergy/ssp/src/driver/r_dtc/r_dtc.o
 .debug_ranges  0x00001600      0xfc0 ./synergy/ssp/src/driver/r_cgc/r_cgc.o
 .debug_ranges  0x000025c0       0xc0 ./synergy/ssp/src/driver/r_can/hw/hw_can.o
 .debug_ranges  0x00002680      0x4f8 ./synergy/ssp/src/driver/r_can/r_can.o
 .debug_ranges  0x00002b78      0xac0 ./synergy/ssp/src/driver/r_adc/r_adc.o
 .debug_ranges  0x00003638       0x18 ./synergy/ssp/src/bsp/mcu/s5d9/bsp_cache.o
 .debug_ranges  0x00003650      0x120 ./synergy/ssp/src/bsp/mcu/s5d9/bsp_clocks.o
 .debug_ranges  0x00003770       0x80 ./synergy/ssp/src/bsp/mcu/s5d9/bsp_feature.o
 .debug_ranges  0x000037f0       0x28 ./synergy/ssp/src/bsp/mcu/s5d9/bsp_group_irq.o
 .debug_ranges  0x00003818      0x138 ./synergy/ssp/src/bsp/mcu/s5d9/bsp_module_stop.o
 .debug_ranges  0x00003950       0x20 ./synergy/ssp/src/bsp/mcu/all/bsp_common.o
 .debug_ranges  0x00003970       0x18 ./synergy/ssp/src/bsp/mcu/all/bsp_delay.o
 .debug_ranges  0x00003988       0x18 ./synergy/ssp/src/bsp/mcu/all/bsp_irq.o
 .debug_ranges  0x000039a0      0x180 ./synergy/ssp/src/bsp/mcu/all/bsp_locking.o
 .debug_ranges  0x00003b20       0x50 ./synergy/ssp/src/bsp/mcu/all/bsp_register_protection.o
 .debug_ranges  0x00003b70       0x10 ./synergy/ssp/src/bsp/mcu/all/bsp_sbrk.o
 .debug_ranges  0x00003b80       0x18 ./synergy/ssp/src/bsp/cmsis/Device/RENESAS/S5D9/Source/startup_S5D9.o
 .debug_ranges  0x00003b98       0x90 ./synergy/ssp/src/bsp/cmsis/Device/RENESAS/S5D9/Source/system_S5D9.o
 .debug_ranges  0x00003c28       0x18 ./src/synergy_gen/adc_thread.o
 .debug_ranges  0x00003c40       0x18 ./src/synergy_gen/can_thread.o
 .debug_ranges  0x00003c58       0x10 ./src/synergy_gen/common_data.o
 .debug_ranges  0x00003c68       0x18 ./src/synergy_gen/drv_thread.o
 .debug_ranges  0x00003c80       0x10 ./src/synergy_gen/hal_data.o
 .debug_ranges  0x00003c90       0x48 ./src/synergy_gen/main.o
 .debug_ranges  0x00003cd8       0x18 ./src/synergy_gen/status_thread.o
 .debug_ranges  0x00003cf0       0x20 ./src/adc_thread_entry.o
 .debug_ranges  0x00003d10       0x18 ./src/can_thread_entry.o
 .debug_ranges  0x00003d28      0x208 ./src/drv_thread_entry.o
 .debug_ranges  0x00003f30       0x10 ./src/status_thread_entry.o
 .debug_ranges  0x00003f40       0x40 C:\Users\khurr\e2_studio_latest\workspace\VerticalControl\synergy\ssp\src\framework\el\tx\cm4_gcc\libtx.a(txe_semaphore_create.o)
 .debug_ranges  0x00003f80       0x10 C:\Users\khurr\e2_studio_latest\workspace\VerticalControl\synergy\ssp\src\framework\el\tx\cm4_gcc\libtx.a(txe_semaphore_get.o)
 .debug_ranges  0x00003f90       0x10 C:\Users\khurr\e2_studio_latest\workspace\VerticalControl\synergy\ssp\src\framework\el\tx\cm4_gcc\libtx.a(txe_semaphore_put.o)
 .debug_ranges  0x00003fa0       0x10 C:\Users\khurr\e2_studio_latest\workspace\VerticalControl\synergy\ssp\src\framework\el\tx\cm4_gcc\libtx.a(txe_thread_create.o)
 .debug_ranges  0x00003fb0       0x10 C:\Users\khurr\e2_studio_latest\workspace\VerticalControl\synergy\ssp\src\framework\el\tx\cm4_gcc\libtx.a(tx_initialize_high_level.o)
 .debug_ranges  0x00003fc0       0x10 C:\Users\khurr\e2_studio_latest\workspace\VerticalControl\synergy\ssp\src\framework\el\tx\cm4_gcc\libtx.a(tx_initialize_kernel_enter.o)
 .debug_ranges  0x00003fd0       0x10 C:\Users\khurr\e2_studio_latest\workspace\VerticalControl\synergy\ssp\src\framework\el\tx\cm4_gcc\libtx.a(tx_isr_end.o)
 .debug_ranges  0x00003fe0       0x10 C:\Users\khurr\e2_studio_latest\workspace\VerticalControl\synergy\ssp\src\framework\el\tx\cm4_gcc\libtx.a(tx_isr_start.o)
 .debug_ranges  0x00003ff0       0x10 C:\Users\khurr\e2_studio_latest\workspace\VerticalControl\synergy\ssp\src\framework\el\tx\cm4_gcc\libtx.a(tx_semaphore_create.o)
 .debug_ranges  0x00004000       0x40 C:\Users\khurr\e2_studio_latest\workspace\VerticalControl\synergy\ssp\src\framework\el\tx\cm4_gcc\libtx.a(tx_semaphore_get.o)
 .debug_ranges  0x00004040       0x40 C:\Users\khurr\e2_studio_latest\workspace\VerticalControl\synergy\ssp\src\framework\el\tx\cm4_gcc\libtx.a(tx_semaphore_put.o)
 .debug_ranges  0x00004080       0x28 C:\Users\khurr\e2_studio_latest\workspace\VerticalControl\synergy\ssp\src\framework\el\tx\cm4_gcc\libtx.a(tx_thread_create.o)
 .debug_ranges  0x000040a8       0x10 C:\Users\khurr\e2_studio_latest\workspace\VerticalControl\synergy\ssp\src\framework\el\tx\cm4_gcc\libtx.a(tx_thread_initialize.o)
 .debug_ranges  0x000040b8       0x28 C:\Users\khurr\e2_studio_latest\workspace\VerticalControl\synergy\ssp\src\framework\el\tx\cm4_gcc\libtx.a(tx_thread_shell_entry.o)
 .debug_ranges  0x000040e0       0x40 C:\Users\khurr\e2_studio_latest\workspace\VerticalControl\synergy\ssp\src\framework\el\tx\cm4_gcc\libtx.a(tx_thread_sleep.o)
 .debug_ranges  0x00004120       0x10 C:\Users\khurr\e2_studio_latest\workspace\VerticalControl\synergy\ssp\src\framework\el\tx\cm4_gcc\libtx.a(tx_thread_system_preempt_check.o)
 .debug_ranges  0x00004130       0x40 C:\Users\khurr\e2_studio_latest\workspace\VerticalControl\synergy\ssp\src\framework\el\tx\cm4_gcc\libtx.a(tx_thread_system_resume.o)
 .debug_ranges  0x00004170       0x10 C:\Users\khurr\e2_studio_latest\workspace\VerticalControl\synergy\ssp\src\framework\el\tx\cm4_gcc\libtx.a(tx_thread_system_suspend.o)
 .debug_ranges  0x00004180       0x10 C:\Users\khurr\e2_studio_latest\workspace\VerticalControl\synergy\ssp\src\framework\el\tx\cm4_gcc\libtx.a(tx_thread_timeout.o)
 .debug_ranges  0x00004190       0x10 C:\Users\khurr\e2_studio_latest\workspace\VerticalControl\synergy\ssp\src\framework\el\tx\cm4_gcc\libtx.a(tx_timer_initialize.o)
 .debug_ranges  0x000041a0       0x10 C:\Users\khurr\e2_studio_latest\workspace\VerticalControl\synergy\ssp\src\framework\el\tx\cm4_gcc\libtx.a(tx_timer_system_activate.o)
 .debug_ranges  0x000041b0       0x10 C:\Users\khurr\e2_studio_latest\workspace\VerticalControl\synergy\ssp\src\framework\el\tx\cm4_gcc\libtx.a(tx_timer_system_deactivate.o)
 .debug_ranges  0x000041c0       0x90 C:\Users\khurr\e2_studio_latest\workspace\VerticalControl\synergy\ssp\src\framework\el\tx\cm4_gcc\libtx.a(tx_initialize_low_level.o)
 .debug_ranges  0x00004250       0x40 C:\Users\khurr\e2_studio_latest\workspace\VerticalControl\synergy\ssp\src\framework\el\tx\cm4_gcc\libtx.a(tx_thread_schedule.o)
 .debug_ranges  0x00004290       0x10 C:\Users\khurr\e2_studio_latest\workspace\VerticalControl\synergy\ssp\src\framework\el\tx\cm4_gcc\libtx.a(tx_thread_stack_build.o)
 .debug_ranges  0x000042a0       0x10 C:\Users\khurr\e2_studio_latest\workspace\VerticalControl\synergy\ssp\src\framework\el\tx\cm4_gcc\libtx.a(tx_timer_interrupt.o)
 .debug_ranges  0x000042b0       0x40 C:\Users\khurr\e2_studio_latest\workspace\VerticalControl\synergy\ssp\src\framework\el\tx\cm4_gcc\libtx.a(tx_semaphore_cleanup.o)
 .debug_ranges  0x000042f0       0x28 C:\Users\khurr\e2_studio_latest\workspace\VerticalControl\synergy\ssp\src\framework\el\tx\cm4_gcc\libtx.a(tx_thread_time_slice.o)
 .debug_ranges  0x00004318       0x70 C:\Users\khurr\e2_studio_latest\workspace\VerticalControl\synergy\ssp\src\framework\el\tx\cm4_gcc\libtx.a(tx_timer_expiration_process.o)

.debug_line     0x00000000    0x1a32d
 .debug_line    0x00000000     0x2f26 ./synergy/ssp/src/driver/r_sci_i2c/r_sci_i2c.o
 .debug_line    0x00002f26     0x1608 ./synergy/ssp/src/driver/r_ioport/r_ioport.o
 .debug_line    0x0000452e      0x71d ./synergy/ssp/src/driver/r_elc/r_elc.o
 .debug_line    0x00004c4b      0xf9f ./synergy/ssp/src/driver/r_dtc/r_dtc.o
 .debug_line    0x00005bea     0x2fc3 ./synergy/ssp/src/driver/r_cgc/r_cgc.o
 .debug_line    0x00008bad      0xf3a ./synergy/ssp/src/driver/r_can/hw/hw_can.o
 .debug_line    0x00009ae7     0x1835 ./synergy/ssp/src/driver/r_can/r_can.o
 .debug_line    0x0000b31c     0x26f1 ./synergy/ssp/src/driver/r_adc/r_adc.o
 .debug_line    0x0000da0d      0x366 ./synergy/ssp/src/bsp/mcu/s5d9/bsp_cache.o
 .debug_line    0x0000dd73      0x6b9 ./synergy/ssp/src/bsp/mcu/s5d9/bsp_clocks.o
 .debug_line    0x0000e42c      0x4b9 ./synergy/ssp/src/bsp/mcu/s5d9/bsp_feature.o
 .debug_line    0x0000e8e5      0x617 ./synergy/ssp/src/bsp/mcu/s5d9/bsp_group_irq.o
 .debug_line    0x0000eefc      0x246 ./synergy/ssp/src/bsp/mcu/s5d9/bsp_hw_locks.o
 .debug_line    0x0000f142      0x73b ./synergy/ssp/src/bsp/mcu/s5d9/bsp_module_stop.o
 .debug_line    0x0000f87d      0x1de ./synergy/ssp/src/bsp/mcu/s5d9/bsp_rom_registers.o
 .debug_line    0x0000fa5b      0x2c3 ./synergy/ssp/src/bsp/mcu/all/bsp_common.o
 .debug_line    0x0000fd1e      0x293 ./synergy/ssp/src/bsp/mcu/all/bsp_delay.o
 .debug_line    0x0000ffb1      0x34d ./synergy/ssp/src/bsp/mcu/all/bsp_irq.o
 .debug_line    0x000102fe      0x5fe ./synergy/ssp/src/bsp/mcu/all/bsp_locking.o
 .debug_line    0x000108fc      0x473 ./synergy/ssp/src/bsp/mcu/all/bsp_register_protection.o
 .debug_line    0x00010d6f      0x1f6 ./synergy/ssp/src/bsp/mcu/all/bsp_sbrk.o
 .debug_line    0x00010f65      0x2cc ./synergy/ssp/src/bsp/cmsis/Device/RENESAS/S5D9/Source/startup_S5D9.o
 .debug_line    0x00011231      0x8a6 ./synergy/ssp/src/bsp/cmsis/Device/RENESAS/S5D9/Source/system_S5D9.o
 .debug_line    0x00011ad7      0x534 ./src/synergy_gen/adc_thread.o
 .debug_line    0x0001200b      0x532 ./src/synergy_gen/can_thread.o
 .debug_line    0x0001253d      0x45a ./src/synergy_gen/common_data.o
 .debug_line    0x00012997      0x55b ./src/synergy_gen/drv_thread.o
 .debug_line    0x00012ef2       0x61 ./src/synergy_gen/hal_data.o
 .debug_line    0x00012f53      0x446 ./src/synergy_gen/main.o
 .debug_line    0x00013399      0x22f ./src/synergy_gen/pin_data.o
 .debug_line    0x000135c8      0x31e ./src/synergy_gen/status_thread.o
 .debug_line    0x000138e6      0x632 ./src/adc_thread_entry.o
 .debug_line    0x00013f18      0x492 ./src/can_thread_entry.o
 .debug_line    0x000143aa     0x2477 ./src/drv_thread_entry.o
 .debug_line    0x00016821      0x319 ./src/status_thread_entry.o
 .debug_line    0x00016b3a      0x25f C:\Users\khurr\e2_studio_latest\workspace\VerticalControl\synergy\ssp\src\framework\el\tx\cm4_gcc\libtx.a(txe_semaphore_create.o)
 .debug_line    0x00016d99       0xfd C:\Users\khurr\e2_studio_latest\workspace\VerticalControl\synergy\ssp\src\framework\el\tx\cm4_gcc\libtx.a(txe_semaphore_get.o)
 .debug_line    0x00016e96       0xb5 C:\Users\khurr\e2_studio_latest\workspace\VerticalControl\synergy\ssp\src\framework\el\tx\cm4_gcc\libtx.a(txe_semaphore_put.o)
 .debug_line    0x00016f4b      0x2da C:\Users\khurr\e2_studio_latest\workspace\VerticalControl\synergy\ssp\src\framework\el\tx\cm4_gcc\libtx.a(txe_thread_create.o)
 .debug_line    0x00017225      0x167 C:\Users\khurr\e2_studio_latest\workspace\VerticalControl\synergy\ssp\src\framework\el\tx\cm4_gcc\libtx.a(tx_initialize_high_level.o)
 .debug_line    0x0001738c      0x104 C:\Users\khurr\e2_studio_latest\workspace\VerticalControl\synergy\ssp\src\framework\el\tx\cm4_gcc\libtx.a(tx_initialize_kernel_enter.o)
 .debug_line    0x00017490       0x87 C:\Users\khurr\e2_studio_latest\workspace\VerticalControl\synergy\ssp\src\framework\el\tx\cm4_gcc\libtx.a(tx_isr_end.o)
 .debug_line    0x00017517       0x89 C:\Users\khurr\e2_studio_latest\workspace\VerticalControl\synergy\ssp\src\framework\el\tx\cm4_gcc\libtx.a(tx_isr_start.o)
 .debug_line    0x000175a0      0x16a C:\Users\khurr\e2_studio_latest\workspace\VerticalControl\synergy\ssp\src\framework\el\tx\cm4_gcc\libtx.a(tx_semaphore_create.o)
 .debug_line    0x0001770a      0x219 C:\Users\khurr\e2_studio_latest\workspace\VerticalControl\synergy\ssp\src\framework\el\tx\cm4_gcc\libtx.a(tx_semaphore_get.o)
 .debug_line    0x00017923      0x1c8 C:\Users\khurr\e2_studio_latest\workspace\VerticalControl\synergy\ssp\src\framework\el\tx\cm4_gcc\libtx.a(tx_semaphore_put.o)
 .debug_line    0x00017aeb      0x36c C:\Users\khurr\e2_studio_latest\workspace\VerticalControl\synergy\ssp\src\framework\el\tx\cm4_gcc\libtx.a(tx_thread_create.o)
 .debug_line    0x00017e57      0x130 C:\Users\khurr\e2_studio_latest\workspace\VerticalControl\synergy\ssp\src\framework\el\tx\cm4_gcc\libtx.a(tx_thread_initialize.o)
 .debug_line    0x00017f87      0x189 C:\Users\khurr\e2_studio_latest\workspace\VerticalControl\synergy\ssp\src\framework\el\tx\cm4_gcc\libtx.a(tx_thread_shell_entry.o)
 .debug_line    0x00018110      0x1c3 C:\Users\khurr\e2_studio_latest\workspace\VerticalControl\synergy\ssp\src\framework\el\tx\cm4_gcc\libtx.a(tx_thread_sleep.o)
 .debug_line    0x000182d3      0x224 C:\Users\khurr\e2_studio_latest\workspace\VerticalControl\synergy\ssp\src\framework\el\tx\cm4_gcc\libtx.a(tx_thread_system_preempt_check.o)
 .debug_line    0x000184f7      0x3de C:\Users\khurr\e2_studio_latest\workspace\VerticalControl\synergy\ssp\src\framework\el\tx\cm4_gcc\libtx.a(tx_thread_system_resume.o)
 .debug_line    0x000188d5      0x3be C:\Users\khurr\e2_studio_latest\workspace\VerticalControl\synergy\ssp\src\framework\el\tx\cm4_gcc\libtx.a(tx_thread_system_suspend.o)
 .debug_line    0x00018c93      0x13d C:\Users\khurr\e2_studio_latest\workspace\VerticalControl\synergy\ssp\src\framework\el\tx\cm4_gcc\libtx.a(tx_thread_timeout.o)
 .debug_line    0x00018dd0      0x158 C:\Users\khurr\e2_studio_latest\workspace\VerticalControl\synergy\ssp\src\framework\el\tx\cm4_gcc\libtx.a(tx_timer_initialize.o)
 .debug_line    0x00018f28      0x164 C:\Users\khurr\e2_studio_latest\workspace\VerticalControl\synergy\ssp\src\framework\el\tx\cm4_gcc\libtx.a(tx_timer_system_activate.o)
 .debug_line    0x0001908c      0x114 C:\Users\khurr\e2_studio_latest\workspace\VerticalControl\synergy\ssp\src\framework\el\tx\cm4_gcc\libtx.a(tx_timer_system_deactivate.o)
 .debug_line    0x000191a0      0x320 C:\Users\khurr\e2_studio_latest\workspace\VerticalControl\synergy\ssp\src\framework\el\tx\cm4_gcc\libtx.a(tx_initialize_low_level.o)
 .debug_line    0x000194c0      0x403 C:\Users\khurr\e2_studio_latest\workspace\VerticalControl\synergy\ssp\src\framework\el\tx\cm4_gcc\libtx.a(tx_thread_schedule.o)
 .debug_line    0x000198c3       0xbc C:\Users\khurr\e2_studio_latest\workspace\VerticalControl\synergy\ssp\src\framework\el\tx\cm4_gcc\libtx.a(tx_thread_stack_build.o)
 .debug_line    0x0001997f      0x2e2 C:\Users\khurr\e2_studio_latest\workspace\VerticalControl\synergy\ssp\src\framework\el\tx\cm4_gcc\libtx.a(tx_timer_interrupt.o)
 .debug_line    0x00019c61      0x1fb C:\Users\khurr\e2_studio_latest\workspace\VerticalControl\synergy\ssp\src\framework\el\tx\cm4_gcc\libtx.a(tx_semaphore_cleanup.o)
 .debug_line    0x00019e5c      0x17f C:\Users\khurr\e2_studio_latest\workspace\VerticalControl\synergy\ssp\src\framework\el\tx\cm4_gcc\libtx.a(tx_thread_time_slice.o)
 .debug_line    0x00019fdb      0x352 C:\Users\khurr\e2_studio_latest\workspace\VerticalControl\synergy\ssp\src\framework\el\tx\cm4_gcc\libtx.a(tx_timer_expiration_process.o)

.debug_str      0x00000000    0x14ff5
 .debug_str     0x00000000     0x70f5 ./synergy/ssp/src/driver/r_sci_i2c/r_sci_i2c.o
                               0x7401 (size before relaxing)
 .debug_str     0x000070f5     0x3527 ./synergy/ssp/src/driver/r_ioport/r_ioport.o
                               0x83c1 (size before relaxing)
 .debug_str     0x0000a61c      0x418 ./synergy/ssp/src/driver/r_elc/r_elc.o
                               0x51e4 (size before relaxing)
 .debug_str     0x0000aa34      0xae0 ./synergy/ssp/src/driver/r_dtc/r_dtc.o
                               0x6229 (size before relaxing)
 .debug_str     0x0000b514     0x10bc ./synergy/ssp/src/driver/r_cgc/r_cgc.o
                               0x735c (size before relaxing)
 .debug_str     0x0000c5d0      0xb7a ./synergy/ssp/src/driver/r_can/hw/hw_can.o
                               0x29eb (size before relaxing)
 .debug_str     0x0000d14a      0xa78 ./synergy/ssp/src/driver/r_can/r_can.o
                               0x6ca8 (size before relaxing)
 .debug_str     0x0000dbc2     0x249a ./synergy/ssp/src/driver/r_adc/r_adc.o
                               0x8101 (size before relaxing)
 .debug_str     0x0001005c       0x6b ./synergy/ssp/src/bsp/mcu/s5d9/bsp_cache.o
                               0x1630 (size before relaxing)
 .debug_str     0x000100c7      0x1f3 ./synergy/ssp/src/bsp/mcu/s5d9/bsp_clocks.o
                               0x212f (size before relaxing)
 .debug_str     0x000102ba      0x532 ./synergy/ssp/src/bsp/mcu/s5d9/bsp_feature.o
                               0x13d6 (size before relaxing)
 .debug_str     0x000107ec       0x80 ./synergy/ssp/src/bsp/mcu/s5d9/bsp_group_irq.o
                               0x213e (size before relaxing)
 .debug_str     0x0001086c     0x135e ./synergy/ssp/src/bsp/mcu/s5d9/bsp_hw_locks.o
                               0x1f07 (size before relaxing)
 .debug_str     0x00011bca      0x2d5 ./synergy/ssp/src/bsp/mcu/s5d9/bsp_module_stop.o
                               0x2e00 (size before relaxing)
 .debug_str     0x00011e9f       0x57 ./synergy/ssp/src/bsp/mcu/s5d9/bsp_rom_registers.o
                                0x8a8 (size before relaxing)
 .debug_str     0x00011ef6       0xcb ./synergy/ssp/src/bsp/mcu/all/bsp_common.o
                               0x1d29 (size before relaxing)
 .debug_str     0x00011fc1       0xa2 ./synergy/ssp/src/bsp/mcu/all/bsp_delay.o
                                0x2d7 (size before relaxing)
 .debug_str     0x00012063       0x9e ./synergy/ssp/src/bsp/mcu/all/bsp_irq.o
                                0xdb6 (size before relaxing)
 .debug_str     0x00012101      0x126 ./synergy/ssp/src/bsp/mcu/all/bsp_locking.o
                               0x209d (size before relaxing)
 .debug_str     0x00012227       0xa7 ./synergy/ssp/src/bsp/mcu/all/bsp_register_protection.o
                               0x1580 (size before relaxing)
 .debug_str     0x000122ce       0x9b ./synergy/ssp/src/bsp/mcu/all/bsp_sbrk.o
                                0x243 (size before relaxing)
 .debug_str     0x00012369       0x98 ./synergy/ssp/src/bsp/cmsis/Device/RENESAS/S5D9/Source/startup_S5D9.o
                                0x900 (size before relaxing)
 .debug_str     0x00012401      0x2cb ./synergy/ssp/src/bsp/cmsis/Device/RENESAS/S5D9/Source/system_S5D9.o
                               0x725c (size before relaxing)
 .debug_str     0x000126cc      0x739 ./src/synergy_gen/adc_thread.o
                               0x58b3 (size before relaxing)
 .debug_str     0x00012e05      0x1ed ./src/synergy_gen/can_thread.o
                               0x64d0 (size before relaxing)
 .debug_str     0x00012ff2       0xcc ./src/synergy_gen/common_data.o
                               0x737b (size before relaxing)
 .debug_str     0x000130be      0x1f8 ./src/synergy_gen/drv_thread.o
                               0x63e3 (size before relaxing)
 .debug_str     0x000132b6       0x29 ./src/synergy_gen/hal_data.o
                                0x1cc (size before relaxing)
 .debug_str     0x000132df      0x20e ./src/synergy_gen/main.o
                               0x10e2 (size before relaxing)
 .debug_str     0x000134ed      0x1fc ./src/synergy_gen/pin_data.o
                               0x1e42 (size before relaxing)
 .debug_str     0x000136e9       0x6c ./src/synergy_gen/status_thread.o
                                0xf58 (size before relaxing)
 .debug_str     0x00013755       0x53 ./src/adc_thread_entry.o
                               0x6473 (size before relaxing)
 .debug_str     0x000137a8       0x6f ./src/can_thread_entry.o
                               0x26f3 (size before relaxing)
 .debug_str     0x00013817      0x25f ./src/drv_thread_entry.o
                               0x5ec5 (size before relaxing)
 .debug_str     0x00013a76       0x1d ./src/status_thread_entry.o
                               0x2a6f (size before relaxing)
 .debug_str     0x00013a93      0x1ae C:\Users\khurr\e2_studio_latest\workspace\VerticalControl\synergy\ssp\src\framework\el\tx\cm4_gcc\libtx.a(txe_semaphore_create.o)
                                0x9ee (size before relaxing)
 .debug_str     0x00013c41       0x51 C:\Users\khurr\e2_studio_latest\workspace\VerticalControl\synergy\ssp\src\framework\el\tx\cm4_gcc\libtx.a(txe_semaphore_get.o)
                                0x8d9 (size before relaxing)
 .debug_str     0x00013c92       0x45 C:\Users\khurr\e2_studio_latest\workspace\VerticalControl\synergy\ssp\src\framework\el\tx\cm4_gcc\libtx.a(txe_semaphore_put.o)
                                0x899 (size before relaxing)
 .debug_str     0x00013cd7       0xdb C:\Users\khurr\e2_studio_latest\workspace\VerticalControl\synergy\ssp\src\framework\el\tx\cm4_gcc\libtx.a(txe_thread_create.o)
                                0x987 (size before relaxing)
 .debug_str     0x00013db2      0x6aa C:\Users\khurr\e2_studio_latest\workspace\VerticalControl\synergy\ssp\src\framework\el\tx\cm4_gcc\libtx.a(tx_initialize_high_level.o)
                                0xf12 (size before relaxing)
 .debug_str     0x0001445c       0x69 C:\Users\khurr\e2_studio_latest\workspace\VerticalControl\synergy\ssp\src\framework\el\tx\cm4_gcc\libtx.a(tx_initialize_kernel_enter.o)
                                0x27a (size before relaxing)
 .debug_str     0x000144c5       0x33 C:\Users\khurr\e2_studio_latest\workspace\VerticalControl\synergy\ssp\src\framework\el\tx\cm4_gcc\libtx.a(tx_isr_end.o)
                                0x1ae (size before relaxing)
 .debug_str     0x000144f8       0x2e C:\Users\khurr\e2_studio_latest\workspace\VerticalControl\synergy\ssp\src\framework\el\tx\cm4_gcc\libtx.a(tx_isr_start.o)
                                0x1b2 (size before relaxing)
 .debug_str     0x00014526       0x48 C:\Users\khurr\e2_studio_latest\workspace\VerticalControl\synergy\ssp\src\framework\el\tx\cm4_gcc\libtx.a(tx_semaphore_create.o)
                                0x957 (size before relaxing)
 .debug_str     0x0001456e       0x73 C:\Users\khurr\e2_studio_latest\workspace\VerticalControl\synergy\ssp\src\framework\el\tx\cm4_gcc\libtx.a(tx_semaphore_get.o)
                                0x968 (size before relaxing)
 .debug_str     0x000145e1       0x4b C:\Users\khurr\e2_studio_latest\workspace\VerticalControl\synergy\ssp\src\framework\el\tx\cm4_gcc\libtx.a(tx_semaphore_put.o)
                                0x94d (size before relaxing)
 .debug_str     0x0001462c       0x8a C:\Users\khurr\e2_studio_latest\workspace\VerticalControl\synergy\ssp\src\framework\el\tx\cm4_gcc\libtx.a(tx_thread_create.o)
                                0x9cd (size before relaxing)
 .debug_str     0x000146b6       0xf4 C:\Users\khurr\e2_studio_latest\workspace\VerticalControl\synergy\ssp\src\framework\el\tx\cm4_gcc\libtx.a(tx_thread_initialize.o)
                                0x917 (size before relaxing)
 .debug_str     0x000147aa       0x84 C:\Users\khurr\e2_studio_latest\workspace\VerticalControl\synergy\ssp\src\framework\el\tx\cm4_gcc\libtx.a(tx_thread_shell_entry.o)
                                0x8ca (size before relaxing)
 .debug_str     0x0001482e       0x3d C:\Users\khurr\e2_studio_latest\workspace\VerticalControl\synergy\ssp\src\framework\el\tx\cm4_gcc\libtx.a(tx_thread_sleep.o)
                                0x8a8 (size before relaxing)
 .debug_str     0x0001486b       0x92 C:\Users\khurr\e2_studio_latest\workspace\VerticalControl\synergy\ssp\src\framework\el\tx\cm4_gcc\libtx.a(tx_thread_system_preempt_check.o)
                                0x959 (size before relaxing)
 .debug_str     0x000148fd       0x74 C:\Users\khurr\e2_studio_latest\workspace\VerticalControl\synergy\ssp\src\framework\el\tx\cm4_gcc\libtx.a(tx_thread_system_resume.o)
                                0x9fe (size before relaxing)
 .debug_str     0x00014971       0x84 C:\Users\khurr\e2_studio_latest\workspace\VerticalControl\synergy\ssp\src\framework\el\tx\cm4_gcc\libtx.a(tx_thread_system_suspend.o)
                                0xa32 (size before relaxing)
 .debug_str     0x000149f5       0x54 C:\Users\khurr\e2_studio_latest\workspace\VerticalControl\synergy\ssp\src\framework\el\tx\cm4_gcc\libtx.a(tx_thread_timeout.o)
                                0x87f (size before relaxing)
 .debug_str     0x00014a49      0x1a3 C:\Users\khurr\e2_studio_latest\workspace\VerticalControl\synergy\ssp\src\framework\el\tx\cm4_gcc\libtx.a(tx_timer_initialize.o)
                                0x471 (size before relaxing)
 .debug_str     0x00014bec       0x6a C:\Users\khurr\e2_studio_latest\workspace\VerticalControl\synergy\ssp\src\framework\el\tx\cm4_gcc\libtx.a(tx_timer_system_activate.o)
                                0x369 (size before relaxing)
 .debug_str     0x00014c56       0x3c C:\Users\khurr\e2_studio_latest\workspace\VerticalControl\synergy\ssp\src\framework\el\tx\cm4_gcc\libtx.a(tx_timer_system_deactivate.o)
                                0x308 (size before relaxing)
 .debug_str     0x00014c92       0xed C:\Users\khurr\e2_studio_latest\workspace\VerticalControl\synergy\ssp\src\framework\el\tx\cm4_gcc\libtx.a(tx_initialize_low_level.o)
                                0x4c2 (size before relaxing)
 .debug_str     0x00014d7f       0xce C:\Users\khurr\e2_studio_latest\workspace\VerticalControl\synergy\ssp\src\framework\el\tx\cm4_gcc\libtx.a(tx_thread_schedule.o)
                               0x18a7 (size before relaxing)
 .debug_str     0x00014e4d       0x4c C:\Users\khurr\e2_studio_latest\workspace\VerticalControl\synergy\ssp\src\framework\el\tx\cm4_gcc\libtx.a(tx_thread_stack_build.o)
                                0x7d2 (size before relaxing)
 .debug_str     0x00014e99       0x6f C:\Users\khurr\e2_studio_latest\workspace\VerticalControl\synergy\ssp\src\framework\el\tx\cm4_gcc\libtx.a(tx_timer_interrupt.o)
                                0x94d (size before relaxing)
 .debug_str     0x00014f08       0x4c C:\Users\khurr\e2_studio_latest\workspace\VerticalControl\synergy\ssp\src\framework\el\tx\cm4_gcc\libtx.a(tx_semaphore_cleanup.o)
                                0x969 (size before relaxing)
 .debug_str     0x00014f54       0x36 C:\Users\khurr\e2_studio_latest\workspace\VerticalControl\synergy\ssp\src\framework\el\tx\cm4_gcc\libtx.a(tx_thread_time_slice.o)
                                0x8b4 (size before relaxing)
 .debug_str     0x00014f8a       0x6b C:\Users\khurr\e2_studio_latest\workspace\VerticalControl\synergy\ssp\src\framework\el\tx\cm4_gcc\libtx.a(tx_timer_expiration_process.o)
                                0x44e (size before relaxing)

.debug_frame    0x00000000     0x30c0
 .debug_frame   0x00000000      0x30c ./synergy/ssp/src/driver/r_sci_i2c/r_sci_i2c.o
 .debug_frame   0x0000030c      0x284 ./synergy/ssp/src/driver/r_ioport/r_ioport.o
 .debug_frame   0x00000590       0xa0 ./synergy/ssp/src/driver/r_elc/r_elc.o
 .debug_frame   0x00000630      0x188 ./synergy/ssp/src/driver/r_dtc/r_dtc.o
 .debug_frame   0x000007b8      0x48c ./synergy/ssp/src/driver/r_cgc/r_cgc.o
 .debug_frame   0x00000c44      0x184 ./synergy/ssp/src/driver/r_can/hw/hw_can.o
 .debug_frame   0x00000dc8      0x1d4 ./synergy/ssp/src/driver/r_can/r_can.o
 .debug_frame   0x00000f9c      0x280 ./synergy/ssp/src/driver/r_adc/r_adc.o
 .debug_frame   0x0000121c       0x30 ./synergy/ssp/src/bsp/mcu/s5d9/bsp_cache.o
 .debug_frame   0x0000124c       0x74 ./synergy/ssp/src/bsp/mcu/s5d9/bsp_clocks.o
 .debug_frame   0x000012c0      0x100 ./synergy/ssp/src/bsp/mcu/s5d9/bsp_feature.o
 .debug_frame   0x000013c0       0x60 ./synergy/ssp/src/bsp/mcu/s5d9/bsp_group_irq.o
 .debug_frame   0x00001420       0xac ./synergy/ssp/src/bsp/mcu/s5d9/bsp_module_stop.o
 .debug_frame   0x000014cc       0x40 ./synergy/ssp/src/bsp/mcu/all/bsp_common.o
 .debug_frame   0x0000150c       0x44 ./synergy/ssp/src/bsp/mcu/all/bsp_delay.o
 .debug_frame   0x00001550       0x3c ./synergy/ssp/src/bsp/mcu/all/bsp_irq.o
 .debug_frame   0x0000158c       0x9c ./synergy/ssp/src/bsp/mcu/all/bsp_locking.o
 .debug_frame   0x00001628       0x58 ./synergy/ssp/src/bsp/mcu/all/bsp_register_protection.o
 .debug_frame   0x00001680       0x28 ./synergy/ssp/src/bsp/mcu/all/bsp_sbrk.o
 .debug_frame   0x000016a8       0x38 ./synergy/ssp/src/bsp/cmsis/Device/RENESAS/S5D9/Source/startup_S5D9.o
 .debug_frame   0x000016e0       0x64 ./synergy/ssp/src/bsp/cmsis/Device/RENESAS/S5D9/Source/system_S5D9.o
 .debug_frame   0x00001744       0x58 ./src/synergy_gen/adc_thread.o
 .debug_frame   0x0000179c       0x58 ./src/synergy_gen/can_thread.o
 .debug_frame   0x000017f4       0x20 ./src/synergy_gen/common_data.o
 .debug_frame   0x00001814       0x58 ./src/synergy_gen/drv_thread.o
 .debug_frame   0x0000186c       0x20 ./src/synergy_gen/hal_data.o
 .debug_frame   0x0000188c       0x80 ./src/synergy_gen/main.o
 .debug_frame   0x0000190c       0x58 ./src/synergy_gen/status_thread.o
 .debug_frame   0x00001964       0x80 ./src/adc_thread_entry.o
 .debug_frame   0x000019e4       0x54 ./src/can_thread_entry.o
 .debug_frame   0x00001a38      0x2dc ./src/drv_thread_entry.o
 .debug_frame   0x00001d14       0x28 ./src/status_thread_entry.o
 .debug_frame   0x00001d3c       0x3c C:\Users\khurr\e2_studio_latest\workspace\VerticalControl\synergy\ssp\src\framework\el\tx\cm4_gcc\libtx.a(txe_semaphore_create.o)
 .debug_frame   0x00001d78       0x20 C:\Users\khurr\e2_studio_latest\workspace\VerticalControl\synergy\ssp\src\framework\el\tx\cm4_gcc\libtx.a(txe_semaphore_get.o)
 .debug_frame   0x00001d98       0x20 C:\Users\khurr\e2_studio_latest\workspace\VerticalControl\synergy\ssp\src\framework\el\tx\cm4_gcc\libtx.a(txe_semaphore_put.o)
 .debug_frame   0x00001db8       0x58 C:\Users\khurr\e2_studio_latest\workspace\VerticalControl\synergy\ssp\src\framework\el\tx\cm4_gcc\libtx.a(txe_thread_create.o)
 .debug_frame   0x00001e10       0x2c C:\Users\khurr\e2_studio_latest\workspace\VerticalControl\synergy\ssp\src\framework\el\tx\cm4_gcc\libtx.a(tx_initialize_high_level.o)
 .debug_frame   0x00001e3c       0x2c C:\Users\khurr\e2_studio_latest\workspace\VerticalControl\synergy\ssp\src\framework\el\tx\cm4_gcc\libtx.a(tx_initialize_kernel_enter.o)
 .debug_frame   0x00001e68       0x20 C:\Users\khurr\e2_studio_latest\workspace\VerticalControl\synergy\ssp\src\framework\el\tx\cm4_gcc\libtx.a(tx_isr_end.o)
 .debug_frame   0x00001e88       0x20 C:\Users\khurr\e2_studio_latest\workspace\VerticalControl\synergy\ssp\src\framework\el\tx\cm4_gcc\libtx.a(tx_isr_start.o)
 .debug_frame   0x00001ea8       0x30 C:\Users\khurr\e2_studio_latest\workspace\VerticalControl\synergy\ssp\src\framework\el\tx\cm4_gcc\libtx.a(tx_semaphore_create.o)
 .debug_frame   0x00001ed8       0x30 C:\Users\khurr\e2_studio_latest\workspace\VerticalControl\synergy\ssp\src\framework\el\tx\cm4_gcc\libtx.a(tx_semaphore_get.o)
 .debug_frame   0x00001f08       0x2c C:\Users\khurr\e2_studio_latest\workspace\VerticalControl\synergy\ssp\src\framework\el\tx\cm4_gcc\libtx.a(tx_semaphore_put.o)
 .debug_frame   0x00001f34       0x38 C:\Users\khurr\e2_studio_latest\workspace\VerticalControl\synergy\ssp\src\framework\el\tx\cm4_gcc\libtx.a(tx_thread_create.o)
 .debug_frame   0x00001f6c       0x28 C:\Users\khurr\e2_studio_latest\workspace\VerticalControl\synergy\ssp\src\framework\el\tx\cm4_gcc\libtx.a(tx_thread_initialize.o)
 .debug_frame   0x00001f94       0x2c C:\Users\khurr\e2_studio_latest\workspace\VerticalControl\synergy\ssp\src\framework\el\tx\cm4_gcc\libtx.a(tx_thread_shell_entry.o)
 .debug_frame   0x00001fc0       0x28 C:\Users\khurr\e2_studio_latest\workspace\VerticalControl\synergy\ssp\src\framework\el\tx\cm4_gcc\libtx.a(tx_thread_sleep.o)
 .debug_frame   0x00001fe8       0x20 C:\Users\khurr\e2_studio_latest\workspace\VerticalControl\synergy\ssp\src\framework\el\tx\cm4_gcc\libtx.a(tx_thread_system_preempt_check.o)
 .debug_frame   0x00002008       0x30 C:\Users\khurr\e2_studio_latest\workspace\VerticalControl\synergy\ssp\src\framework\el\tx\cm4_gcc\libtx.a(tx_thread_system_resume.o)
 .debug_frame   0x00002038       0x30 C:\Users\khurr\e2_studio_latest\workspace\VerticalControl\synergy\ssp\src\framework\el\tx\cm4_gcc\libtx.a(tx_thread_system_suspend.o)
 .debug_frame   0x00002068       0x20 C:\Users\khurr\e2_studio_latest\workspace\VerticalControl\synergy\ssp\src\framework\el\tx\cm4_gcc\libtx.a(tx_thread_timeout.o)
 .debug_frame   0x00002088       0x28 C:\Users\khurr\e2_studio_latest\workspace\VerticalControl\synergy\ssp\src\framework\el\tx\cm4_gcc\libtx.a(tx_timer_initialize.o)
 .debug_frame   0x000020b0       0x20 C:\Users\khurr\e2_studio_latest\workspace\VerticalControl\synergy\ssp\src\framework\el\tx\cm4_gcc\libtx.a(tx_timer_system_activate.o)
 .debug_frame   0x000020d0       0x20 C:\Users\khurr\e2_studio_latest\workspace\VerticalControl\synergy\ssp\src\framework\el\tx\cm4_gcc\libtx.a(tx_timer_system_deactivate.o)
 .debug_frame   0x000020f0       0x2c C:\Users\khurr\e2_studio_latest\workspace\VerticalControl\synergy\ssp\src\framework\el\tx\cm4_gcc\libtx.a(tx_initialize_low_level.o)
 .debug_frame   0x0000211c       0x64 C:\Users\khurr\e2_studio_latest\workspace\VerticalControl\synergy\ssp\src\framework\el\tx\cm4_gcc\libtx.a(tx_thread_schedule.o)
 .debug_frame   0x00002180       0x20 C:\Users\khurr\e2_studio_latest\workspace\VerticalControl\synergy\ssp\src\framework\el\tx\cm4_gcc\libtx.a(tx_thread_stack_build.o)
 .debug_frame   0x000021a0       0x28 C:\Users\khurr\e2_studio_latest\workspace\VerticalControl\synergy\ssp\src\framework\el\tx\cm4_gcc\libtx.a(tx_timer_interrupt.o)
 .debug_frame   0x000021c8       0x28 C:\Users\khurr\e2_studio_latest\workspace\VerticalControl\synergy\ssp\src\framework\el\tx\cm4_gcc\libtx.a(tx_semaphore_cleanup.o)
 .debug_frame   0x000021f0       0x30 C:\Users\khurr\e2_studio_latest\workspace\VerticalControl\synergy\ssp\src\framework\el\tx\cm4_gcc\libtx.a(tx_thread_time_slice.o)
 .debug_frame   0x00002220       0x40 C:\Users\khurr\e2_studio_latest\workspace\VerticalControl\synergy\ssp\src\framework\el\tx\cm4_gcc\libtx.a(tx_timer_expiration_process.o)
 .debug_frame   0x00002260       0x2c c:/renesas/synergy/e2studio_v2022-10_ssp_v2.4.0/toolchains/gcc_arm/gcc-arm-none-eabi-10.3-2021.10/bin/../lib/gcc/arm-none-eabi/10.3.1/thumb/v7e-m+fp/hard\libgcc.a(_aeabi_uldivmod.o)
 .debug_frame   0x0000228c       0x34 c:/renesas/synergy/e2studio_v2022-10_ssp_v2.4.0/toolchains/gcc_arm/gcc-arm-none-eabi-10.3-2021.10/bin/../lib/gcc/arm-none-eabi/10.3.1/thumb/v7e-m+fp/hard\libgcc.a(_udivmoddi4.o)
 .debug_frame   0x000022c0       0x20 c:/renesas/synergy/e2studio_v2022-10_ssp_v2.4.0/toolchains/gcc_arm/gcc-arm-none-eabi-10.3-2021.10/bin/../lib/gcc/arm-none-eabi/10.3.1/../../../../arm-none-eabi/lib/thumb/v7e-m+fp/hard\libg_nano.a(lib_a-errno.o)
 .debug_frame   0x000022e0       0x28 c:/renesas/synergy/e2studio_v2022-10_ssp_v2.4.0/toolchains/gcc_arm/gcc-arm-none-eabi-10.3-2021.10/bin/../lib/gcc/arm-none-eabi/10.3.1/../../../../arm-none-eabi/lib/thumb/v7e-m+fp/hard\libg_nano.a(lib_a-memcpy-stub.o)
 .debug_frame   0x00002308       0x20 c:/renesas/synergy/e2studio_v2022-10_ssp_v2.4.0/toolchains/gcc_arm/gcc-arm-none-eabi-10.3-2021.10/bin/../lib/gcc/arm-none-eabi/10.3.1/../../../../arm-none-eabi/lib/thumb/v7e-m+fp/hard\libg_nano.a(lib_a-memset.o)
 .debug_frame   0x00002328       0x44 c:/renesas/synergy/e2studio_v2022-10_ssp_v2.4.0/toolchains/gcc_arm/gcc-arm-none-eabi-10.3-2021.10/bin/../lib/gcc/arm-none-eabi/10.3.1/../../../../arm-none-eabi/lib/thumb/v7e-m+fp/hard\libg_nano.a(lib_a-rand.o)
 .debug_frame   0x0000236c       0x40 c:/renesas/synergy/e2studio_v2022-10_ssp_v2.4.0/toolchains/gcc_arm/gcc-arm-none-eabi-10.3-2021.10/bin/../lib/gcc/arm-none-eabi/10.3.1/../../../../arm-none-eabi/lib/thumb/v7e-m+fp/hard\libg_nano.a(lib_a-assert.o)
 .debug_frame   0x000023ac       0x64 c:/renesas/synergy/e2studio_v2022-10_ssp_v2.4.0/toolchains/gcc_arm/gcc-arm-none-eabi-10.3-2021.10/bin/../lib/gcc/arm-none-eabi/10.3.1/../../../../arm-none-eabi/lib/thumb/v7e-m+fp/hard\libg_nano.a(lib_a-fprintf.o)
 .debug_frame   0x00002410       0x30 c:/renesas/synergy/e2studio_v2022-10_ssp_v2.4.0/toolchains/gcc_arm/gcc-arm-none-eabi-10.3-2021.10/bin/../lib/gcc/arm-none-eabi/10.3.1/../../../../arm-none-eabi/lib/thumb/v7e-m+fp/hard\libg_nano.a(lib_a-malloc.o)
 .debug_frame   0x00002440       0x38 c:/renesas/synergy/e2studio_v2022-10_ssp_v2.4.0/toolchains/gcc_arm/gcc-arm-none-eabi-10.3-2021.10/bin/../lib/gcc/arm-none-eabi/10.3.1/../../../../arm-none-eabi/lib/thumb/v7e-m+fp/hard\libg_nano.a(lib_a-nano-freer.o)
 .debug_frame   0x00002478       0x4c c:/renesas/synergy/e2studio_v2022-10_ssp_v2.4.0/toolchains/gcc_arm/gcc-arm-none-eabi-10.3-2021.10/bin/../lib/gcc/arm-none-eabi/10.3.1/../../../../arm-none-eabi/lib/thumb/v7e-m+fp/hard\libg_nano.a(lib_a-nano-mallocr.o)
 .debug_frame   0x000024c4       0xac c:/renesas/synergy/e2studio_v2022-10_ssp_v2.4.0/toolchains/gcc_arm/gcc-arm-none-eabi-10.3-2021.10/bin/../lib/gcc/arm-none-eabi/10.3.1/../../../../arm-none-eabi/lib/thumb/v7e-m+fp/hard\libg_nano.a(lib_a-nano-vfprintf.o)
 .debug_frame   0x00002570       0x60 c:/renesas/synergy/e2studio_v2022-10_ssp_v2.4.0/toolchains/gcc_arm/gcc-arm-none-eabi-10.3-2021.10/bin/../lib/gcc/arm-none-eabi/10.3.1/../../../../arm-none-eabi/lib/thumb/v7e-m+fp/hard\libg_nano.a(lib_a-nano-vfprintf_i.o)
 .debug_frame   0x000025d0       0x2c c:/renesas/synergy/e2studio_v2022-10_ssp_v2.4.0/toolchains/gcc_arm/gcc-arm-none-eabi-10.3-2021.10/bin/../lib/gcc/arm-none-eabi/10.3.1/../../../../arm-none-eabi/lib/thumb/v7e-m+fp/hard\libg_nano.a(lib_a-sbrkr.o)
 .debug_frame   0x000025fc       0x40 c:/renesas/synergy/e2studio_v2022-10_ssp_v2.4.0/toolchains/gcc_arm/gcc-arm-none-eabi-10.3-2021.10/bin/../lib/gcc/arm-none-eabi/10.3.1/../../../../arm-none-eabi/lib/thumb/v7e-m+fp/hard\libg_nano.a(lib_a-wbuf.o)
 .debug_frame   0x0000263c       0x2c c:/renesas/synergy/e2studio_v2022-10_ssp_v2.4.0/toolchains/gcc_arm/gcc-arm-none-eabi-10.3-2021.10/bin/../lib/gcc/arm-none-eabi/10.3.1/../../../../arm-none-eabi/lib/thumb/v7e-m+fp/hard\libg_nano.a(lib_a-wsetup.o)
 .debug_frame   0x00002668       0x28 c:/renesas/synergy/e2studio_v2022-10_ssp_v2.4.0/toolchains/gcc_arm/gcc-arm-none-eabi-10.3-2021.10/bin/../lib/gcc/arm-none-eabi/10.3.1/../../../../arm-none-eabi/lib/thumb/v7e-m+fp/hard\libg_nano.a(lib_a-abort.o)
 .debug_frame   0x00002690       0x5c c:/renesas/synergy/e2studio_v2022-10_ssp_v2.4.0/toolchains/gcc_arm/gcc-arm-none-eabi-10.3-2021.10/bin/../lib/gcc/arm-none-eabi/10.3.1/../../../../arm-none-eabi/lib/thumb/v7e-m+fp/hard\libg_nano.a(lib_a-fflush.o)
 .debug_frame   0x000026ec      0x14c c:/renesas/synergy/e2studio_v2022-10_ssp_v2.4.0/toolchains/gcc_arm/gcc-arm-none-eabi-10.3-2021.10/bin/../lib/gcc/arm-none-eabi/10.3.1/../../../../arm-none-eabi/lib/thumb/v7e-m+fp/hard\libg_nano.a(lib_a-findfp.o)
 .debug_frame   0x00002838       0x54 c:/renesas/synergy/e2studio_v2022-10_ssp_v2.4.0/toolchains/gcc_arm/gcc-arm-none-eabi-10.3-2021.10/bin/../lib/gcc/arm-none-eabi/10.3.1/../../../../arm-none-eabi/lib/thumb/v7e-m+fp/hard\libg_nano.a(lib_a-fwalk.o)
 .debug_frame   0x0000288c       0xb0 c:/renesas/synergy/e2studio_v2022-10_ssp_v2.4.0/toolchains/gcc_arm/gcc-arm-none-eabi-10.3-2021.10/bin/../lib/gcc/arm-none-eabi/10.3.1/../../../../arm-none-eabi/lib/thumb/v7e-m+fp/hard\libg_nano.a(lib_a-lock.o)
 .debug_frame   0x0000293c       0x58 c:/renesas/synergy/e2studio_v2022-10_ssp_v2.4.0/toolchains/gcc_arm/gcc-arm-none-eabi-10.3-2021.10/bin/../lib/gcc/arm-none-eabi/10.3.1/../../../../arm-none-eabi/lib/thumb/v7e-m+fp/hard\libg_nano.a(lib_a-makebuf.o)
 .debug_frame   0x00002994       0x30 c:/renesas/synergy/e2studio_v2022-10_ssp_v2.4.0/toolchains/gcc_arm/gcc-arm-none-eabi-10.3-2021.10/bin/../lib/gcc/arm-none-eabi/10.3.1/../../../../arm-none-eabi/lib/thumb/v7e-m+fp/hard\libg_nano.a(lib_a-mlock.o)
 .debug_frame   0x000029c4       0x5c c:/renesas/synergy/e2studio_v2022-10_ssp_v2.4.0/toolchains/gcc_arm/gcc-arm-none-eabi-10.3-2021.10/bin/../lib/gcc/arm-none-eabi/10.3.1/../../../../arm-none-eabi/lib/thumb/v7e-m+fp/hard\libg_nano.a(lib_a-reent.o)
 .debug_frame   0x00002a20       0xcc c:/renesas/synergy/e2studio_v2022-10_ssp_v2.4.0/toolchains/gcc_arm/gcc-arm-none-eabi-10.3-2021.10/bin/../lib/gcc/arm-none-eabi/10.3.1/../../../../arm-none-eabi/lib/thumb/v7e-m+fp/hard\libg_nano.a(lib_a-signal.o)
 .debug_frame   0x00002aec       0x3c c:/renesas/synergy/e2studio_v2022-10_ssp_v2.4.0/toolchains/gcc_arm/gcc-arm-none-eabi-10.3-2021.10/bin/../lib/gcc/arm-none-eabi/10.3.1/../../../../arm-none-eabi/lib/thumb/v7e-m+fp/hard\libg_nano.a(lib_a-signalr.o)
 .debug_frame   0x00002b28       0x88 c:/renesas/synergy/e2studio_v2022-10_ssp_v2.4.0/toolchains/gcc_arm/gcc-arm-none-eabi-10.3-2021.10/bin/../lib/gcc/arm-none-eabi/10.3.1/../../../../arm-none-eabi/lib/thumb/v7e-m+fp/hard\libg_nano.a(lib_a-stdio.o)
 .debug_frame   0x00002bb0       0x2c c:/renesas/synergy/e2studio_v2022-10_ssp_v2.4.0/toolchains/gcc_arm/gcc-arm-none-eabi-10.3-2021.10/bin/../lib/gcc/arm-none-eabi/10.3.1/../../../../arm-none-eabi/lib/thumb/v7e-m+fp/hard\libg_nano.a(lib_a-writer.o)
 .debug_frame   0x00002bdc       0x2c c:/renesas/synergy/e2studio_v2022-10_ssp_v2.4.0/toolchains/gcc_arm/gcc-arm-none-eabi-10.3-2021.10/bin/../lib/gcc/arm-none-eabi/10.3.1/../../../../arm-none-eabi/lib/thumb/v7e-m+fp/hard\libg_nano.a(lib_a-closer.o)
 .debug_frame   0x00002c08       0x2c c:/renesas/synergy/e2studio_v2022-10_ssp_v2.4.0/toolchains/gcc_arm/gcc-arm-none-eabi-10.3-2021.10/bin/../lib/gcc/arm-none-eabi/10.3.1/../../../../arm-none-eabi/lib/thumb/v7e-m+fp/hard\libg_nano.a(lib_a-fstatr.o)
 .debug_frame   0x00002c34       0x2c c:/renesas/synergy/e2studio_v2022-10_ssp_v2.4.0/toolchains/gcc_arm/gcc-arm-none-eabi-10.3-2021.10/bin/../lib/gcc/arm-none-eabi/10.3.1/../../../../arm-none-eabi/lib/thumb/v7e-m+fp/hard\libg_nano.a(lib_a-isattyr.o)
 .debug_frame   0x00002c60       0x2c c:/renesas/synergy/e2studio_v2022-10_ssp_v2.4.0/toolchains/gcc_arm/gcc-arm-none-eabi-10.3-2021.10/bin/../lib/gcc/arm-none-eabi/10.3.1/../../../../arm-none-eabi/lib/thumb/v7e-m+fp/hard\libg_nano.a(lib_a-lseekr.o)
 .debug_frame   0x00002c8c       0x2c c:/renesas/synergy/e2studio_v2022-10_ssp_v2.4.0/toolchains/gcc_arm/gcc-arm-none-eabi-10.3-2021.10/bin/../lib/gcc/arm-none-eabi/10.3.1/../../../../arm-none-eabi/lib/thumb/v7e-m+fp/hard\libg_nano.a(lib_a-readr.o)
 .debug_frame   0x00002cb8      0x3a0 c:/renesas/synergy/e2studio_v2022-10_ssp_v2.4.0/toolchains/gcc_arm/gcc-arm-none-eabi-10.3-2021.10/bin/../lib/gcc/arm-none-eabi/10.3.1/../../../../arm-none-eabi/lib/thumb/v7e-m+fp/hard\librdimon_nano.a(rdimon-syscalls.o)
 .debug_frame   0x00003058       0x28 c:/renesas/synergy/e2studio_v2022-10_ssp_v2.4.0/toolchains/gcc_arm/gcc-arm-none-eabi-10.3-2021.10/bin/../lib/gcc/arm-none-eabi/10.3.1/../../../../arm-none-eabi/lib/thumb/v7e-m+fp/hard\librdimon_nano.a(rdimon-_exit.o)
 .debug_frame   0x00003080       0x40 c:/renesas/synergy/e2studio_v2022-10_ssp_v2.4.0/toolchains/gcc_arm/gcc-arm-none-eabi-10.3-2021.10/bin/../lib/gcc/arm-none-eabi/10.3.1/../../../../arm-none-eabi/lib/thumb/v7e-m+fp/hard\librdimon_nano.a(rdimon-_kill.o)
