Archive member included to satisfy reference by file (symbol)

C:\Users\khurr\e2_studio_latest\workspace\COPJunction\synergy\ssp\src\driver\r_fmi\libs\libfmi_cm4_s3a7_gcc.a(r_fmi.o)
                              ./synergy/ssp/src/driver/r_sci_i2c/r_sci_i2c.o (g_fmi_on_fmi)
C:\Users\khurr\e2_studio_latest\workspace\COPJunction\synergy\ssp\src\framework\el\tx\cm4_gcc\libtx.a(txe_semaphore_create.o)
                              ./src/synergy_gen/main.o (_txe_semaphore_create)
C:\Users\khurr\e2_studio_latest\workspace\COPJunction\synergy\ssp\src\framework\el\tx\cm4_gcc\libtx.a(txe_semaphore_get.o)
                              ./src/synergy_gen/main.o (_txe_semaphore_get)
C:\Users\khurr\e2_studio_latest\workspace\COPJunction\synergy\ssp\src\framework\el\tx\cm4_gcc\libtx.a(txe_semaphore_put.o)
                              ./src/synergy_gen/main.o (_txe_semaphore_put)
C:\Users\khurr\e2_studio_latest\workspace\COPJunction\synergy\ssp\src\framework\el\tx\cm4_gcc\libtx.a(txe_thread_create.o)
                              ./src/synergy_gen/adc_thread.o (_txe_thread_create)
C:\Users\khurr\e2_studio_latest\workspace\COPJunction\synergy\ssp\src\framework\el\tx\cm4_gcc\libtx.a(tx_initialize_high_level.o)
                              C:\Users\khurr\e2_studio_latest\workspace\COPJunction\synergy\ssp\src\framework\el\tx\cm4_gcc\libtx.a(txe_semaphore_create.o) (_tx_semaphore_created_count)
C:\Users\khurr\e2_studio_latest\workspace\COPJunction\synergy\ssp\src\framework\el\tx\cm4_gcc\libtx.a(tx_initialize_kernel_enter.o)
                              ./src/synergy_gen/main.o (_tx_initialize_kernel_enter)
C:\Users\khurr\e2_studio_latest\workspace\COPJunction\synergy\ssp\src\framework\el\tx\cm4_gcc\libtx.a(tx_isr_end.o)
                              ./synergy/ssp/src/driver/r_sci_i2c/r_sci_i2c.o (tx_isr_end)
C:\Users\khurr\e2_studio_latest\workspace\COPJunction\synergy\ssp\src\framework\el\tx\cm4_gcc\libtx.a(tx_isr_start.o)
                              ./synergy/ssp/src/driver/r_sci_i2c/r_sci_i2c.o (tx_isr_start)
C:\Users\khurr\e2_studio_latest\workspace\COPJunction\synergy\ssp\src\framework\el\tx\cm4_gcc\libtx.a(tx_semaphore_create.o)
                              C:\Users\khurr\e2_studio_latest\workspace\COPJunction\synergy\ssp\src\framework\el\tx\cm4_gcc\libtx.a(txe_semaphore_create.o) (_tx_semaphore_create)
C:\Users\khurr\e2_studio_latest\workspace\COPJunction\synergy\ssp\src\framework\el\tx\cm4_gcc\libtx.a(tx_semaphore_get.o)
                              C:\Users\khurr\e2_studio_latest\workspace\COPJunction\synergy\ssp\src\framework\el\tx\cm4_gcc\libtx.a(txe_semaphore_get.o) (_tx_semaphore_get)
C:\Users\khurr\e2_studio_latest\workspace\COPJunction\synergy\ssp\src\framework\el\tx\cm4_gcc\libtx.a(tx_semaphore_put.o)
                              C:\Users\khurr\e2_studio_latest\workspace\COPJunction\synergy\ssp\src\framework\el\tx\cm4_gcc\libtx.a(txe_semaphore_put.o) (_tx_semaphore_put)
C:\Users\khurr\e2_studio_latest\workspace\COPJunction\synergy\ssp\src\framework\el\tx\cm4_gcc\libtx.a(tx_thread_create.o)
                              C:\Users\khurr\e2_studio_latest\workspace\COPJunction\synergy\ssp\src\framework\el\tx\cm4_gcc\libtx.a(txe_thread_create.o) (_tx_thread_create)
C:\Users\khurr\e2_studio_latest\workspace\COPJunction\synergy\ssp\src\framework\el\tx\cm4_gcc\libtx.a(tx_thread_initialize.o)
                              C:\Users\khurr\e2_studio_latest\workspace\COPJunction\synergy\ssp\src\framework\el\tx\cm4_gcc\libtx.a(tx_initialize_high_level.o) (_tx_thread_initialize)
C:\Users\khurr\e2_studio_latest\workspace\COPJunction\synergy\ssp\src\framework\el\tx\cm4_gcc\libtx.a(tx_thread_shell_entry.o)
                              C:\Users\khurr\e2_studio_latest\workspace\COPJunction\synergy\ssp\src\framework\el\tx\cm4_gcc\libtx.a(tx_thread_create.o) (_tx_thread_shell_entry)
C:\Users\khurr\e2_studio_latest\workspace\COPJunction\synergy\ssp\src\framework\el\tx\cm4_gcc\libtx.a(tx_thread_sleep.o)
                              ./src/adc_thread_entry.o (_tx_thread_sleep)
C:\Users\khurr\e2_studio_latest\workspace\COPJunction\synergy\ssp\src\framework\el\tx\cm4_gcc\libtx.a(tx_thread_system_preempt_check.o)
                              C:\Users\khurr\e2_studio_latest\workspace\COPJunction\synergy\ssp\src\framework\el\tx\cm4_gcc\libtx.a(txe_semaphore_create.o) (_tx_thread_system_preempt_check)
C:\Users\khurr\e2_studio_latest\workspace\COPJunction\synergy\ssp\src\framework\el\tx\cm4_gcc\libtx.a(tx_thread_system_resume.o)
                              C:\Users\khurr\e2_studio_latest\workspace\COPJunction\synergy\ssp\src\framework\el\tx\cm4_gcc\libtx.a(tx_semaphore_put.o) (_tx_thread_system_resume)
C:\Users\khurr\e2_studio_latest\workspace\COPJunction\synergy\ssp\src\framework\el\tx\cm4_gcc\libtx.a(tx_thread_system_suspend.o)
                              C:\Users\khurr\e2_studio_latest\workspace\COPJunction\synergy\ssp\src\framework\el\tx\cm4_gcc\libtx.a(tx_semaphore_get.o) (_tx_thread_system_suspend)
C:\Users\khurr\e2_studio_latest\workspace\COPJunction\synergy\ssp\src\framework\el\tx\cm4_gcc\libtx.a(tx_thread_timeout.o)
                              C:\Users\khurr\e2_studio_latest\workspace\COPJunction\synergy\ssp\src\framework\el\tx\cm4_gcc\libtx.a(tx_thread_create.o) (_tx_thread_timeout)
C:\Users\khurr\e2_studio_latest\workspace\COPJunction\synergy\ssp\src\framework\el\tx\cm4_gcc\libtx.a(tx_timer_initialize.o)
                              C:\Users\khurr\e2_studio_latest\workspace\COPJunction\synergy\ssp\src\framework\el\tx\cm4_gcc\libtx.a(tx_initialize_high_level.o) (_tx_timer_initialize)
C:\Users\khurr\e2_studio_latest\workspace\COPJunction\synergy\ssp\src\framework\el\tx\cm4_gcc\libtx.a(tx_timer_system_activate.o)
                              C:\Users\khurr\e2_studio_latest\workspace\COPJunction\synergy\ssp\src\framework\el\tx\cm4_gcc\libtx.a(tx_thread_system_suspend.o) (_tx_timer_system_activate)
C:\Users\khurr\e2_studio_latest\workspace\COPJunction\synergy\ssp\src\framework\el\tx\cm4_gcc\libtx.a(tx_timer_system_deactivate.o)
                              C:\Users\khurr\e2_studio_latest\workspace\COPJunction\synergy\ssp\src\framework\el\tx\cm4_gcc\libtx.a(tx_thread_system_resume.o) (_tx_timer_system_deactivate)
C:\Users\khurr\e2_studio_latest\workspace\COPJunction\synergy\ssp\src\framework\el\tx\cm4_gcc\libtx.a(tx_initialize_low_level.o)
                              C:\Users\khurr\e2_studio_latest\workspace\COPJunction\synergy\ssp\src\framework\el\tx\cm4_gcc\libtx.a(tx_initialize_kernel_enter.o) (_tx_initialize_low_level)
C:\Users\khurr\e2_studio_latest\workspace\COPJunction\synergy\ssp\src\framework\el\tx\cm4_gcc\libtx.a(tx_thread_schedule.o)
                              C:\Users\khurr\e2_studio_latest\workspace\COPJunction\synergy\ssp\src\framework\el\tx\cm4_gcc\libtx.a(tx_initialize_kernel_enter.o) (_tx_thread_schedule)
C:\Users\khurr\e2_studio_latest\workspace\COPJunction\synergy\ssp\src\framework\el\tx\cm4_gcc\libtx.a(tx_thread_stack_build.o)
                              C:\Users\khurr\e2_studio_latest\workspace\COPJunction\synergy\ssp\src\framework\el\tx\cm4_gcc\libtx.a(tx_thread_create.o) (_tx_thread_stack_build)
C:\Users\khurr\e2_studio_latest\workspace\COPJunction\synergy\ssp\src\framework\el\tx\cm4_gcc\libtx.a(tx_timer_interrupt.o)
                              C:\Users\khurr\e2_studio_latest\workspace\COPJunction\synergy\ssp\src\framework\el\tx\cm4_gcc\libtx.a(tx_thread_schedule.o) (_tx_timer_interrupt)
C:\Users\khurr\e2_studio_latest\workspace\COPJunction\synergy\ssp\src\framework\el\tx\cm4_gcc\libtx.a(tx_semaphore_cleanup.o)
                              C:\Users\khurr\e2_studio_latest\workspace\COPJunction\synergy\ssp\src\framework\el\tx\cm4_gcc\libtx.a(tx_semaphore_get.o) (_tx_semaphore_cleanup)
C:\Users\khurr\e2_studio_latest\workspace\COPJunction\synergy\ssp\src\framework\el\tx\cm4_gcc\libtx.a(tx_thread_time_slice.o)
                              C:\Users\khurr\e2_studio_latest\workspace\COPJunction\synergy\ssp\src\framework\el\tx\cm4_gcc\libtx.a(tx_timer_interrupt.o) (_tx_thread_time_slice)
C:\Users\khurr\e2_studio_latest\workspace\COPJunction\synergy\ssp\src\framework\el\tx\cm4_gcc\libtx.a(tx_timer_expiration_process.o)
                              C:\Users\khurr\e2_studio_latest\workspace\COPJunction\synergy\ssp\src\framework\el\tx\cm4_gcc\libtx.a(tx_timer_interrupt.o) (_tx_timer_expiration_process)
C:\Users\khurr\e2_studio_latest\workspace\COPJunction\synergy\ssp\src\bsp\mcu\s3a7\libfmi_R7FS3A77C3A01CFM_gcc.a(bsp_fmi_R7FS3A77C3A01CFM.o)
                              C:\Users\khurr\e2_studio_latest\workspace\COPJunction\synergy\ssp\src\driver\r_fmi\libs\libfmi_cm4_s3a7_gcc.a(r_fmi.o) (g_fmi_data)
c:/renesas/synergy/e2studio_v2022-10_ssp_v2.4.0/toolchains/gcc_arm/gcc-arm-none-eabi-10.3-2021.10/bin/../lib/gcc/arm-none-eabi/10.3.1/thumb/v7e-m+fp/hard\libgcc.a(_aeabi_ldivmod.o)
                              ./synergy/ssp/src/driver/r_sci_i2c/r_sci_i2c.o (__aeabi_ldivmod)
c:/renesas/synergy/e2studio_v2022-10_ssp_v2.4.0/toolchains/gcc_arm/gcc-arm-none-eabi-10.3-2021.10/bin/../lib/gcc/arm-none-eabi/10.3.1/thumb/v7e-m+fp/hard\libgcc.a(_aeabi_uldivmod.o)
                              ./synergy/ssp/src/driver/r_sci_i2c/r_sci_i2c.o (__aeabi_uldivmod)
c:/renesas/synergy/e2studio_v2022-10_ssp_v2.4.0/toolchains/gcc_arm/gcc-arm-none-eabi-10.3-2021.10/bin/../lib/gcc/arm-none-eabi/10.3.1/thumb/v7e-m+fp/hard\libgcc.a(_udivmoddi4.o)
                              c:/renesas/synergy/e2studio_v2022-10_ssp_v2.4.0/toolchains/gcc_arm/gcc-arm-none-eabi-10.3-2021.10/bin/../lib/gcc/arm-none-eabi/10.3.1/thumb/v7e-m+fp/hard\libgcc.a(_aeabi_ldivmod.o) (__udivmoddi4)
c:/renesas/synergy/e2studio_v2022-10_ssp_v2.4.0/toolchains/gcc_arm/gcc-arm-none-eabi-10.3-2021.10/bin/../lib/gcc/arm-none-eabi/10.3.1/thumb/v7e-m+fp/hard\libgcc.a(_dvmd_tls.o)
                              c:/renesas/synergy/e2studio_v2022-10_ssp_v2.4.0/toolchains/gcc_arm/gcc-arm-none-eabi-10.3-2021.10/bin/../lib/gcc/arm-none-eabi/10.3.1/thumb/v7e-m+fp/hard\libgcc.a(_aeabi_ldivmod.o) (__aeabi_ldiv0)
c:/renesas/synergy/e2studio_v2022-10_ssp_v2.4.0/toolchains/gcc_arm/gcc-arm-none-eabi-10.3-2021.10/bin/../lib/gcc/arm-none-eabi/10.3.1/../../../../arm-none-eabi/lib/thumb/v7e-m+fp/hard\libg_nano.a(lib_a-errno.o)
                              ./synergy/ssp/src/bsp/mcu/all/bsp_sbrk.o (__errno)
c:/renesas/synergy/e2studio_v2022-10_ssp_v2.4.0/toolchains/gcc_arm/gcc-arm-none-eabi-10.3-2021.10/bin/../lib/gcc/arm-none-eabi/10.3.1/../../../../arm-none-eabi/lib/thumb/v7e-m+fp/hard\libg_nano.a(lib_a-exit.o)
                              c:/renesas/synergy/e2studio_v2022-10_ssp_v2.4.0/toolchains/gcc_arm/gcc-arm-none-eabi-10.3-2021.10/bin/../lib/gcc/arm-none-eabi/10.3.1/../../../../arm-none-eabi/lib/thumb/v7e-m+fp/hard/rdimon-crt0.o (exit)
c:/renesas/synergy/e2studio_v2022-10_ssp_v2.4.0/toolchains/gcc_arm/gcc-arm-none-eabi-10.3-2021.10/bin/../lib/gcc/arm-none-eabi/10.3.1/../../../../arm-none-eabi/lib/thumb/v7e-m+fp/hard\libg_nano.a(lib_a-impure.o)
                              c:/renesas/synergy/e2studio_v2022-10_ssp_v2.4.0/toolchains/gcc_arm/gcc-arm-none-eabi-10.3-2021.10/bin/../lib/gcc/arm-none-eabi/10.3.1/../../../../arm-none-eabi/lib/thumb/v7e-m+fp/hard\libg_nano.a(lib_a-exit.o) (_global_impure_ptr)
c:/renesas/synergy/e2studio_v2022-10_ssp_v2.4.0/toolchains/gcc_arm/gcc-arm-none-eabi-10.3-2021.10/bin/../lib/gcc/arm-none-eabi/10.3.1/../../../../arm-none-eabi/lib/thumb/v7e-m+fp/hard\libg_nano.a(lib_a-init.o)
                              c:/renesas/synergy/e2studio_v2022-10_ssp_v2.4.0/toolchains/gcc_arm/gcc-arm-none-eabi-10.3-2021.10/bin/../lib/gcc/arm-none-eabi/10.3.1/../../../../arm-none-eabi/lib/thumb/v7e-m+fp/hard/rdimon-crt0.o (__libc_init_array)
c:/renesas/synergy/e2studio_v2022-10_ssp_v2.4.0/toolchains/gcc_arm/gcc-arm-none-eabi-10.3-2021.10/bin/../lib/gcc/arm-none-eabi/10.3.1/../../../../arm-none-eabi/lib/thumb/v7e-m+fp/hard\libg_nano.a(lib_a-memcpy-stub.o)
                              ./synergy/ssp/src/bsp/cmsis/Device/RENESAS/S3A7/Source/system_S3A7.o (memcpy)
c:/renesas/synergy/e2studio_v2022-10_ssp_v2.4.0/toolchains/gcc_arm/gcc-arm-none-eabi-10.3-2021.10/bin/../lib/gcc/arm-none-eabi/10.3.1/../../../../arm-none-eabi/lib/thumb/v7e-m+fp/hard\libg_nano.a(lib_a-memset.o)
                              c:/renesas/synergy/e2studio_v2022-10_ssp_v2.4.0/toolchains/gcc_arm/gcc-arm-none-eabi-10.3-2021.10/bin/../lib/gcc/arm-none-eabi/10.3.1/../../../../arm-none-eabi/lib/thumb/v7e-m+fp/hard/rdimon-crt0.o (memset)
c:/renesas/synergy/e2studio_v2022-10_ssp_v2.4.0/toolchains/gcc_arm/gcc-arm-none-eabi-10.3-2021.10/bin/../lib/gcc/arm-none-eabi/10.3.1/../../../../arm-none-eabi/lib/thumb/v7e-m+fp/hard\libg_nano.a(lib_a-rand.o)
                              ./synergy/ssp/src/bsp/cmsis/Device/RENESAS/S3A7/Source/system_S3A7.o (srand)
c:/renesas/synergy/e2studio_v2022-10_ssp_v2.4.0/toolchains/gcc_arm/gcc-arm-none-eabi-10.3-2021.10/bin/../lib/gcc/arm-none-eabi/10.3.1/../../../../arm-none-eabi/lib/thumb/v7e-m+fp/hard\libg_nano.a(lib_a-assert.o)
                              c:/renesas/synergy/e2studio_v2022-10_ssp_v2.4.0/toolchains/gcc_arm/gcc-arm-none-eabi-10.3-2021.10/bin/../lib/gcc/arm-none-eabi/10.3.1/../../../../arm-none-eabi/lib/thumb/v7e-m+fp/hard\libg_nano.a(lib_a-rand.o) (__assert_func)
c:/renesas/synergy/e2studio_v2022-10_ssp_v2.4.0/toolchains/gcc_arm/gcc-arm-none-eabi-10.3-2021.10/bin/../lib/gcc/arm-none-eabi/10.3.1/../../../../arm-none-eabi/lib/thumb/v7e-m+fp/hard\libg_nano.a(lib_a-fprintf.o)
                              c:/renesas/synergy/e2studio_v2022-10_ssp_v2.4.0/toolchains/gcc_arm/gcc-arm-none-eabi-10.3-2021.10/bin/../lib/gcc/arm-none-eabi/10.3.1/../../../../arm-none-eabi/lib/thumb/v7e-m+fp/hard\libg_nano.a(lib_a-assert.o) (fiprintf)
c:/renesas/synergy/e2studio_v2022-10_ssp_v2.4.0/toolchains/gcc_arm/gcc-arm-none-eabi-10.3-2021.10/bin/../lib/gcc/arm-none-eabi/10.3.1/../../../../arm-none-eabi/lib/thumb/v7e-m+fp/hard\libg_nano.a(lib_a-malloc.o)
                              c:/renesas/synergy/e2studio_v2022-10_ssp_v2.4.0/toolchains/gcc_arm/gcc-arm-none-eabi-10.3-2021.10/bin/../lib/gcc/arm-none-eabi/10.3.1/../../../../arm-none-eabi/lib/thumb/v7e-m+fp/hard\libg_nano.a(lib_a-rand.o) (malloc)
c:/renesas/synergy/e2studio_v2022-10_ssp_v2.4.0/toolchains/gcc_arm/gcc-arm-none-eabi-10.3-2021.10/bin/../lib/gcc/arm-none-eabi/10.3.1/../../../../arm-none-eabi/lib/thumb/v7e-m+fp/hard\libg_nano.a(lib_a-nano-freer.o)
                              c:/renesas/synergy/e2studio_v2022-10_ssp_v2.4.0/toolchains/gcc_arm/gcc-arm-none-eabi-10.3-2021.10/bin/../lib/gcc/arm-none-eabi/10.3.1/../../../../arm-none-eabi/lib/thumb/v7e-m+fp/hard\libg_nano.a(lib_a-malloc.o) (_free_r)
c:/renesas/synergy/e2studio_v2022-10_ssp_v2.4.0/toolchains/gcc_arm/gcc-arm-none-eabi-10.3-2021.10/bin/../lib/gcc/arm-none-eabi/10.3.1/../../../../arm-none-eabi/lib/thumb/v7e-m+fp/hard\libg_nano.a(lib_a-nano-mallocr.o)
                              c:/renesas/synergy/e2studio_v2022-10_ssp_v2.4.0/toolchains/gcc_arm/gcc-arm-none-eabi-10.3-2021.10/bin/../lib/gcc/arm-none-eabi/10.3.1/../../../../arm-none-eabi/lib/thumb/v7e-m+fp/hard\libg_nano.a(lib_a-malloc.o) (_malloc_r)
c:/renesas/synergy/e2studio_v2022-10_ssp_v2.4.0/toolchains/gcc_arm/gcc-arm-none-eabi-10.3-2021.10/bin/../lib/gcc/arm-none-eabi/10.3.1/../../../../arm-none-eabi/lib/thumb/v7e-m+fp/hard\libg_nano.a(lib_a-nano-vfprintf.o)
                              c:/renesas/synergy/e2studio_v2022-10_ssp_v2.4.0/toolchains/gcc_arm/gcc-arm-none-eabi-10.3-2021.10/bin/../lib/gcc/arm-none-eabi/10.3.1/../../../../arm-none-eabi/lib/thumb/v7e-m+fp/hard\libg_nano.a(lib_a-fprintf.o) (_vfprintf_r)
c:/renesas/synergy/e2studio_v2022-10_ssp_v2.4.0/toolchains/gcc_arm/gcc-arm-none-eabi-10.3-2021.10/bin/../lib/gcc/arm-none-eabi/10.3.1/../../../../arm-none-eabi/lib/thumb/v7e-m+fp/hard\libg_nano.a(lib_a-nano-vfprintf_i.o)
                              c:/renesas/synergy/e2studio_v2022-10_ssp_v2.4.0/toolchains/gcc_arm/gcc-arm-none-eabi-10.3-2021.10/bin/../lib/gcc/arm-none-eabi/10.3.1/../../../../arm-none-eabi/lib/thumb/v7e-m+fp/hard\libg_nano.a(lib_a-nano-vfprintf.o) (_printf_i)
c:/renesas/synergy/e2studio_v2022-10_ssp_v2.4.0/toolchains/gcc_arm/gcc-arm-none-eabi-10.3-2021.10/bin/../lib/gcc/arm-none-eabi/10.3.1/../../../../arm-none-eabi/lib/thumb/v7e-m+fp/hard\libg_nano.a(lib_a-sbrkr.o)
                              c:/renesas/synergy/e2studio_v2022-10_ssp_v2.4.0/toolchains/gcc_arm/gcc-arm-none-eabi-10.3-2021.10/bin/../lib/gcc/arm-none-eabi/10.3.1/../../../../arm-none-eabi/lib/thumb/v7e-m+fp/hard\libg_nano.a(lib_a-nano-mallocr.o) (_sbrk_r)
c:/renesas/synergy/e2studio_v2022-10_ssp_v2.4.0/toolchains/gcc_arm/gcc-arm-none-eabi-10.3-2021.10/bin/../lib/gcc/arm-none-eabi/10.3.1/../../../../arm-none-eabi/lib/thumb/v7e-m+fp/hard\libg_nano.a(lib_a-wbuf.o)
                              c:/renesas/synergy/e2studio_v2022-10_ssp_v2.4.0/toolchains/gcc_arm/gcc-arm-none-eabi-10.3-2021.10/bin/../lib/gcc/arm-none-eabi/10.3.1/../../../../arm-none-eabi/lib/thumb/v7e-m+fp/hard\libg_nano.a(lib_a-nano-vfprintf.o) (__swbuf_r)
c:/renesas/synergy/e2studio_v2022-10_ssp_v2.4.0/toolchains/gcc_arm/gcc-arm-none-eabi-10.3-2021.10/bin/../lib/gcc/arm-none-eabi/10.3.1/../../../../arm-none-eabi/lib/thumb/v7e-m+fp/hard\libg_nano.a(lib_a-wsetup.o)
                              c:/renesas/synergy/e2studio_v2022-10_ssp_v2.4.0/toolchains/gcc_arm/gcc-arm-none-eabi-10.3-2021.10/bin/../lib/gcc/arm-none-eabi/10.3.1/../../../../arm-none-eabi/lib/thumb/v7e-m+fp/hard\libg_nano.a(lib_a-nano-vfprintf.o) (__swsetup_r)
c:/renesas/synergy/e2studio_v2022-10_ssp_v2.4.0/toolchains/gcc_arm/gcc-arm-none-eabi-10.3-2021.10/bin/../lib/gcc/arm-none-eabi/10.3.1/../../../../arm-none-eabi/lib/thumb/v7e-m+fp/hard\libg_nano.a(lib_a-abort.o)
                              c:/renesas/synergy/e2studio_v2022-10_ssp_v2.4.0/toolchains/gcc_arm/gcc-arm-none-eabi-10.3-2021.10/bin/../lib/gcc/arm-none-eabi/10.3.1/../../../../arm-none-eabi/lib/thumb/v7e-m+fp/hard\libg_nano.a(lib_a-assert.o) (abort)
c:/renesas/synergy/e2studio_v2022-10_ssp_v2.4.0/toolchains/gcc_arm/gcc-arm-none-eabi-10.3-2021.10/bin/../lib/gcc/arm-none-eabi/10.3.1/../../../../arm-none-eabi/lib/thumb/v7e-m+fp/hard\libg_nano.a(lib_a-fflush.o)
                              c:/renesas/synergy/e2studio_v2022-10_ssp_v2.4.0/toolchains/gcc_arm/gcc-arm-none-eabi-10.3-2021.10/bin/../lib/gcc/arm-none-eabi/10.3.1/../../../../arm-none-eabi/lib/thumb/v7e-m+fp/hard\libg_nano.a(lib_a-wbuf.o) (_fflush_r)
c:/renesas/synergy/e2studio_v2022-10_ssp_v2.4.0/toolchains/gcc_arm/gcc-arm-none-eabi-10.3-2021.10/bin/../lib/gcc/arm-none-eabi/10.3.1/../../../../arm-none-eabi/lib/thumb/v7e-m+fp/hard\libg_nano.a(lib_a-findfp.o)
                              c:/renesas/synergy/e2studio_v2022-10_ssp_v2.4.0/toolchains/gcc_arm/gcc-arm-none-eabi-10.3-2021.10/bin/../lib/gcc/arm-none-eabi/10.3.1/../../../../arm-none-eabi/lib/thumb/v7e-m+fp/hard\libg_nano.a(lib_a-nano-vfprintf.o) (__sinit)
c:/renesas/synergy/e2studio_v2022-10_ssp_v2.4.0/toolchains/gcc_arm/gcc-arm-none-eabi-10.3-2021.10/bin/../lib/gcc/arm-none-eabi/10.3.1/../../../../arm-none-eabi/lib/thumb/v7e-m+fp/hard\libg_nano.a(lib_a-fvwrite.o)
                              c:/renesas/synergy/e2studio_v2022-10_ssp_v2.4.0/toolchains/gcc_arm/gcc-arm-none-eabi-10.3-2021.10/bin/../lib/gcc/arm-none-eabi/10.3.1/../../../../arm-none-eabi/lib/thumb/v7e-m+fp/hard\libg_nano.a(lib_a-nano-vfprintf.o) (__sfvwrite_r)
c:/renesas/synergy/e2studio_v2022-10_ssp_v2.4.0/toolchains/gcc_arm/gcc-arm-none-eabi-10.3-2021.10/bin/../lib/gcc/arm-none-eabi/10.3.1/../../../../arm-none-eabi/lib/thumb/v7e-m+fp/hard\libg_nano.a(lib_a-fwalk.o)
                              c:/renesas/synergy/e2studio_v2022-10_ssp_v2.4.0/toolchains/gcc_arm/gcc-arm-none-eabi-10.3-2021.10/bin/../lib/gcc/arm-none-eabi/10.3.1/../../../../arm-none-eabi/lib/thumb/v7e-m+fp/hard\libg_nano.a(lib_a-findfp.o) (_fwalk)
c:/renesas/synergy/e2studio_v2022-10_ssp_v2.4.0/toolchains/gcc_arm/gcc-arm-none-eabi-10.3-2021.10/bin/../lib/gcc/arm-none-eabi/10.3.1/../../../../arm-none-eabi/lib/thumb/v7e-m+fp/hard\libg_nano.a(lib_a-lock.o)
                              c:/renesas/synergy/e2studio_v2022-10_ssp_v2.4.0/toolchains/gcc_arm/gcc-arm-none-eabi-10.3-2021.10/bin/../lib/gcc/arm-none-eabi/10.3.1/../../../../arm-none-eabi/lib/thumb/v7e-m+fp/hard\libg_nano.a(lib_a-findfp.o) (__retarget_lock_init_recursive)
c:/renesas/synergy/e2studio_v2022-10_ssp_v2.4.0/toolchains/gcc_arm/gcc-arm-none-eabi-10.3-2021.10/bin/../lib/gcc/arm-none-eabi/10.3.1/../../../../arm-none-eabi/lib/thumb/v7e-m+fp/hard\libg_nano.a(lib_a-makebuf.o)
                              c:/renesas/synergy/e2studio_v2022-10_ssp_v2.4.0/toolchains/gcc_arm/gcc-arm-none-eabi-10.3-2021.10/bin/../lib/gcc/arm-none-eabi/10.3.1/../../../../arm-none-eabi/lib/thumb/v7e-m+fp/hard\libg_nano.a(lib_a-wsetup.o) (__smakebuf_r)
c:/renesas/synergy/e2studio_v2022-10_ssp_v2.4.0/toolchains/gcc_arm/gcc-arm-none-eabi-10.3-2021.10/bin/../lib/gcc/arm-none-eabi/10.3.1/../../../../arm-none-eabi/lib/thumb/v7e-m+fp/hard\libg_nano.a(lib_a-memchr.o)
                              c:/renesas/synergy/e2studio_v2022-10_ssp_v2.4.0/toolchains/gcc_arm/gcc-arm-none-eabi-10.3-2021.10/bin/../lib/gcc/arm-none-eabi/10.3.1/../../../../arm-none-eabi/lib/thumb/v7e-m+fp/hard\libg_nano.a(lib_a-nano-vfprintf.o) (memchr)
c:/renesas/synergy/e2studio_v2022-10_ssp_v2.4.0/toolchains/gcc_arm/gcc-arm-none-eabi-10.3-2021.10/bin/../lib/gcc/arm-none-eabi/10.3.1/../../../../arm-none-eabi/lib/thumb/v7e-m+fp/hard\libg_nano.a(lib_a-memmove.o)
                              c:/renesas/synergy/e2studio_v2022-10_ssp_v2.4.0/toolchains/gcc_arm/gcc-arm-none-eabi-10.3-2021.10/bin/../lib/gcc/arm-none-eabi/10.3.1/../../../../arm-none-eabi/lib/thumb/v7e-m+fp/hard\libg_nano.a(lib_a-fvwrite.o) (memmove)
c:/renesas/synergy/e2studio_v2022-10_ssp_v2.4.0/toolchains/gcc_arm/gcc-arm-none-eabi-10.3-2021.10/bin/../lib/gcc/arm-none-eabi/10.3.1/../../../../arm-none-eabi/lib/thumb/v7e-m+fp/hard\libg_nano.a(lib_a-mlock.o)
                              c:/renesas/synergy/e2studio_v2022-10_ssp_v2.4.0/toolchains/gcc_arm/gcc-arm-none-eabi-10.3-2021.10/bin/../lib/gcc/arm-none-eabi/10.3.1/../../../../arm-none-eabi/lib/thumb/v7e-m+fp/hard\libg_nano.a(lib_a-nano-freer.o) (__malloc_lock)
c:/renesas/synergy/e2studio_v2022-10_ssp_v2.4.0/toolchains/gcc_arm/gcc-arm-none-eabi-10.3-2021.10/bin/../lib/gcc/arm-none-eabi/10.3.1/../../../../arm-none-eabi/lib/thumb/v7e-m+fp/hard\libg_nano.a(lib_a-nano-reallocr.o)
                              c:/renesas/synergy/e2studio_v2022-10_ssp_v2.4.0/toolchains/gcc_arm/gcc-arm-none-eabi-10.3-2021.10/bin/../lib/gcc/arm-none-eabi/10.3.1/../../../../arm-none-eabi/lib/thumb/v7e-m+fp/hard\libg_nano.a(lib_a-fvwrite.o) (_realloc_r)
c:/renesas/synergy/e2studio_v2022-10_ssp_v2.4.0/toolchains/gcc_arm/gcc-arm-none-eabi-10.3-2021.10/bin/../lib/gcc/arm-none-eabi/10.3.1/../../../../arm-none-eabi/lib/thumb/v7e-m+fp/hard\libg_nano.a(lib_a-reent.o)
                              c:/renesas/synergy/e2studio_v2022-10_ssp_v2.4.0/toolchains/gcc_arm/gcc-arm-none-eabi-10.3-2021.10/bin/../lib/gcc/arm-none-eabi/10.3.1/../../../../arm-none-eabi/lib/thumb/v7e-m+fp/hard\libg_nano.a(lib_a-sbrkr.o) (errno)
c:/renesas/synergy/e2studio_v2022-10_ssp_v2.4.0/toolchains/gcc_arm/gcc-arm-none-eabi-10.3-2021.10/bin/../lib/gcc/arm-none-eabi/10.3.1/../../../../arm-none-eabi/lib/thumb/v7e-m+fp/hard\libg_nano.a(lib_a-signal.o)
                              c:/renesas/synergy/e2studio_v2022-10_ssp_v2.4.0/toolchains/gcc_arm/gcc-arm-none-eabi-10.3-2021.10/bin/../lib/gcc/arm-none-eabi/10.3.1/../../../../arm-none-eabi/lib/thumb/v7e-m+fp/hard\libg_nano.a(lib_a-abort.o) (raise)
c:/renesas/synergy/e2studio_v2022-10_ssp_v2.4.0/toolchains/gcc_arm/gcc-arm-none-eabi-10.3-2021.10/bin/../lib/gcc/arm-none-eabi/10.3.1/../../../../arm-none-eabi/lib/thumb/v7e-m+fp/hard\libg_nano.a(lib_a-signalr.o)
                              c:/renesas/synergy/e2studio_v2022-10_ssp_v2.4.0/toolchains/gcc_arm/gcc-arm-none-eabi-10.3-2021.10/bin/../lib/gcc/arm-none-eabi/10.3.1/../../../../arm-none-eabi/lib/thumb/v7e-m+fp/hard\libg_nano.a(lib_a-signal.o) (_kill_r)
c:/renesas/synergy/e2studio_v2022-10_ssp_v2.4.0/toolchains/gcc_arm/gcc-arm-none-eabi-10.3-2021.10/bin/../lib/gcc/arm-none-eabi/10.3.1/../../../../arm-none-eabi/lib/thumb/v7e-m+fp/hard\libg_nano.a(lib_a-stdio.o)
                              c:/renesas/synergy/e2studio_v2022-10_ssp_v2.4.0/toolchains/gcc_arm/gcc-arm-none-eabi-10.3-2021.10/bin/../lib/gcc/arm-none-eabi/10.3.1/../../../../arm-none-eabi/lib/thumb/v7e-m+fp/hard\libg_nano.a(lib_a-findfp.o) (__sread)
c:/renesas/synergy/e2studio_v2022-10_ssp_v2.4.0/toolchains/gcc_arm/gcc-arm-none-eabi-10.3-2021.10/bin/../lib/gcc/arm-none-eabi/10.3.1/../../../../arm-none-eabi/lib/thumb/v7e-m+fp/hard\libg_nano.a(lib_a-writer.o)
                              c:/renesas/synergy/e2studio_v2022-10_ssp_v2.4.0/toolchains/gcc_arm/gcc-arm-none-eabi-10.3-2021.10/bin/../lib/gcc/arm-none-eabi/10.3.1/../../../../arm-none-eabi/lib/thumb/v7e-m+fp/hard\libg_nano.a(lib_a-stdio.o) (_write_r)
c:/renesas/synergy/e2studio_v2022-10_ssp_v2.4.0/toolchains/gcc_arm/gcc-arm-none-eabi-10.3-2021.10/bin/../lib/gcc/arm-none-eabi/10.3.1/../../../../arm-none-eabi/lib/thumb/v7e-m+fp/hard\libg_nano.a(lib_a-closer.o)
                              c:/renesas/synergy/e2studio_v2022-10_ssp_v2.4.0/toolchains/gcc_arm/gcc-arm-none-eabi-10.3-2021.10/bin/../lib/gcc/arm-none-eabi/10.3.1/../../../../arm-none-eabi/lib/thumb/v7e-m+fp/hard\libg_nano.a(lib_a-stdio.o) (_close_r)
c:/renesas/synergy/e2studio_v2022-10_ssp_v2.4.0/toolchains/gcc_arm/gcc-arm-none-eabi-10.3-2021.10/bin/../lib/gcc/arm-none-eabi/10.3.1/../../../../arm-none-eabi/lib/thumb/v7e-m+fp/hard\libg_nano.a(lib_a-fstatr.o)
                              c:/renesas/synergy/e2studio_v2022-10_ssp_v2.4.0/toolchains/gcc_arm/gcc-arm-none-eabi-10.3-2021.10/bin/../lib/gcc/arm-none-eabi/10.3.1/../../../../arm-none-eabi/lib/thumb/v7e-m+fp/hard\libg_nano.a(lib_a-makebuf.o) (_fstat_r)
c:/renesas/synergy/e2studio_v2022-10_ssp_v2.4.0/toolchains/gcc_arm/gcc-arm-none-eabi-10.3-2021.10/bin/../lib/gcc/arm-none-eabi/10.3.1/../../../../arm-none-eabi/lib/thumb/v7e-m+fp/hard\libg_nano.a(lib_a-isattyr.o)
                              c:/renesas/synergy/e2studio_v2022-10_ssp_v2.4.0/toolchains/gcc_arm/gcc-arm-none-eabi-10.3-2021.10/bin/../lib/gcc/arm-none-eabi/10.3.1/../../../../arm-none-eabi/lib/thumb/v7e-m+fp/hard\libg_nano.a(lib_a-makebuf.o) (_isatty_r)
c:/renesas/synergy/e2studio_v2022-10_ssp_v2.4.0/toolchains/gcc_arm/gcc-arm-none-eabi-10.3-2021.10/bin/../lib/gcc/arm-none-eabi/10.3.1/../../../../arm-none-eabi/lib/thumb/v7e-m+fp/hard\libg_nano.a(lib_a-lseekr.o)
                              c:/renesas/synergy/e2studio_v2022-10_ssp_v2.4.0/toolchains/gcc_arm/gcc-arm-none-eabi-10.3-2021.10/bin/../lib/gcc/arm-none-eabi/10.3.1/../../../../arm-none-eabi/lib/thumb/v7e-m+fp/hard\libg_nano.a(lib_a-stdio.o) (_lseek_r)
c:/renesas/synergy/e2studio_v2022-10_ssp_v2.4.0/toolchains/gcc_arm/gcc-arm-none-eabi-10.3-2021.10/bin/../lib/gcc/arm-none-eabi/10.3.1/../../../../arm-none-eabi/lib/thumb/v7e-m+fp/hard\libg_nano.a(lib_a-nano-msizer.o)
                              c:/renesas/synergy/e2studio_v2022-10_ssp_v2.4.0/toolchains/gcc_arm/gcc-arm-none-eabi-10.3-2021.10/bin/../lib/gcc/arm-none-eabi/10.3.1/../../../../arm-none-eabi/lib/thumb/v7e-m+fp/hard\libg_nano.a(lib_a-nano-reallocr.o) (_malloc_usable_size_r)
c:/renesas/synergy/e2studio_v2022-10_ssp_v2.4.0/toolchains/gcc_arm/gcc-arm-none-eabi-10.3-2021.10/bin/../lib/gcc/arm-none-eabi/10.3.1/../../../../arm-none-eabi/lib/thumb/v7e-m+fp/hard\libg_nano.a(lib_a-readr.o)
                              c:/renesas/synergy/e2studio_v2022-10_ssp_v2.4.0/toolchains/gcc_arm/gcc-arm-none-eabi-10.3-2021.10/bin/../lib/gcc/arm-none-eabi/10.3.1/../../../../arm-none-eabi/lib/thumb/v7e-m+fp/hard\libg_nano.a(lib_a-stdio.o) (_read_r)
c:/renesas/synergy/e2studio_v2022-10_ssp_v2.4.0/toolchains/gcc_arm/gcc-arm-none-eabi-10.3-2021.10/bin/../lib/gcc/arm-none-eabi/10.3.1/../../../../arm-none-eabi/lib/thumb/v7e-m+fp/hard\librdimon_nano.a(rdimon-syscalls.o)
                              c:/renesas/synergy/e2studio_v2022-10_ssp_v2.4.0/toolchains/gcc_arm/gcc-arm-none-eabi-10.3-2021.10/bin/../lib/gcc/arm-none-eabi/10.3.1/../../../../arm-none-eabi/lib/thumb/v7e-m+fp/hard\libg_nano.a(lib_a-readr.o) (_read)
c:/renesas/synergy/e2studio_v2022-10_ssp_v2.4.0/toolchains/gcc_arm/gcc-arm-none-eabi-10.3-2021.10/bin/../lib/gcc/arm-none-eabi/10.3.1/../../../../arm-none-eabi/lib/thumb/v7e-m+fp/hard\librdimon_nano.a(rdimon-_exit.o)
                              c:/renesas/synergy/e2studio_v2022-10_ssp_v2.4.0/toolchains/gcc_arm/gcc-arm-none-eabi-10.3-2021.10/bin/../lib/gcc/arm-none-eabi/10.3.1/../../../../arm-none-eabi/lib/thumb/v7e-m+fp/hard\libg_nano.a(lib_a-exit.o) (_exit)
c:/renesas/synergy/e2studio_v2022-10_ssp_v2.4.0/toolchains/gcc_arm/gcc-arm-none-eabi-10.3-2021.10/bin/../lib/gcc/arm-none-eabi/10.3.1/../../../../arm-none-eabi/lib/thumb/v7e-m+fp/hard\librdimon_nano.a(rdimon-_kill.o)
                              c:/renesas/synergy/e2studio_v2022-10_ssp_v2.4.0/toolchains/gcc_arm/gcc-arm-none-eabi-10.3-2021.10/bin/../lib/gcc/arm-none-eabi/10.3.1/../../../../arm-none-eabi/lib/thumb/v7e-m+fp/hard\librdimon_nano.a(rdimon-_exit.o) (_kill_shared)
c:/renesas/synergy/e2studio_v2022-10_ssp_v2.4.0/toolchains/gcc_arm/gcc-arm-none-eabi-10.3-2021.10/bin/../lib/gcc/arm-none-eabi/10.3.1/../../../../arm-none-eabi/lib/thumb/v7e-m+fp/hard\libc_nano.a(lib_a-strlen.o)
                              c:/renesas/synergy/e2studio_v2022-10_ssp_v2.4.0/toolchains/gcc_arm/gcc-arm-none-eabi-10.3-2021.10/bin/../lib/gcc/arm-none-eabi/10.3.1/../../../../arm-none-eabi/lib/thumb/v7e-m+fp/hard\librdimon_nano.a(rdimon-syscalls.o) (strlen)

Discarded input sections

 .text          0x00000000        0x0 c:/renesas/synergy/e2studio_v2022-10_ssp_v2.4.0/toolchains/gcc_arm/gcc-arm-none-eabi-10.3-2021.10/bin/../lib/gcc/arm-none-eabi/10.3.1/thumb/v7e-m+fp/hard/crti.o
 .data          0x00000000        0x0 c:/renesas/synergy/e2studio_v2022-10_ssp_v2.4.0/toolchains/gcc_arm/gcc-arm-none-eabi-10.3-2021.10/bin/../lib/gcc/arm-none-eabi/10.3.1/thumb/v7e-m+fp/hard/crti.o
 .bss           0x00000000        0x0 c:/renesas/synergy/e2studio_v2022-10_ssp_v2.4.0/toolchains/gcc_arm/gcc-arm-none-eabi-10.3-2021.10/bin/../lib/gcc/arm-none-eabi/10.3.1/thumb/v7e-m+fp/hard/crti.o
 .data          0x00000000        0x4 c:/renesas/synergy/e2studio_v2022-10_ssp_v2.4.0/toolchains/gcc_arm/gcc-arm-none-eabi-10.3-2021.10/bin/../lib/gcc/arm-none-eabi/10.3.1/thumb/v7e-m+fp/hard/crtbegin.o
 .rodata        0x00000000       0x24 c:/renesas/synergy/e2studio_v2022-10_ssp_v2.4.0/toolchains/gcc_arm/gcc-arm-none-eabi-10.3-2021.10/bin/../lib/gcc/arm-none-eabi/10.3.1/thumb/v7e-m+fp/hard/crtbegin.o
 .text          0x00000000       0xf8 c:/renesas/synergy/e2studio_v2022-10_ssp_v2.4.0/toolchains/gcc_arm/gcc-arm-none-eabi-10.3-2021.10/bin/../lib/gcc/arm-none-eabi/10.3.1/../../../../arm-none-eabi/lib/thumb/v7e-m+fp/hard/rdimon-crt0.o
 .data          0x00000000      0x118 c:/renesas/synergy/e2studio_v2022-10_ssp_v2.4.0/toolchains/gcc_arm/gcc-arm-none-eabi-10.3-2021.10/bin/../lib/gcc/arm-none-eabi/10.3.1/../../../../arm-none-eabi/lib/thumb/v7e-m+fp/hard/rdimon-crt0.o
 .bss           0x00000000        0x0 c:/renesas/synergy/e2studio_v2022-10_ssp_v2.4.0/toolchains/gcc_arm/gcc-arm-none-eabi-10.3-2021.10/bin/../lib/gcc/arm-none-eabi/10.3.1/../../../../arm-none-eabi/lib/thumb/v7e-m+fp/hard/rdimon-crt0.o
 .ARM.extab     0x00000000        0x0 c:/renesas/synergy/e2studio_v2022-10_ssp_v2.4.0/toolchains/gcc_arm/gcc-arm-none-eabi-10.3-2021.10/bin/../lib/gcc/arm-none-eabi/10.3.1/../../../../arm-none-eabi/lib/thumb/v7e-m+fp/hard/rdimon-crt0.o
 .ARM.exidx     0x00000000       0x10 c:/renesas/synergy/e2studio_v2022-10_ssp_v2.4.0/toolchains/gcc_arm/gcc-arm-none-eabi-10.3-2021.10/bin/../lib/gcc/arm-none-eabi/10.3.1/../../../../arm-none-eabi/lib/thumb/v7e-m+fp/hard/rdimon-crt0.o
 .ARM.attributes
                0x00000000       0x1c c:/renesas/synergy/e2studio_v2022-10_ssp_v2.4.0/toolchains/gcc_arm/gcc-arm-none-eabi-10.3-2021.10/bin/../lib/gcc/arm-none-eabi/10.3.1/../../../../arm-none-eabi/lib/thumb/v7e-m+fp/hard/rdimon-crt0.o
 .text          0x00000000        0x0 ./synergy/ssp/src/driver/r_sci_i2c/r_sci_i2c.o
 .data          0x00000000        0x0 ./synergy/ssp/src/driver/r_sci_i2c/r_sci_i2c.o
 .bss           0x00000000        0x0 ./synergy/ssp/src/driver/r_sci_i2c/r_sci_i2c.o
 .text.R_SCI_SIIC_MasterVersionGet
                0x00000000       0x10 ./synergy/ssp/src/driver/r_sci_i2c/r_sci_i2c.o
 .text.R_SCI_SIIC_MasterSlaveAddressSet
                0x00000000       0x38 ./synergy/ssp/src/driver/r_sci_i2c/r_sci_i2c.o
 .text.sci_siic_stop_transfer_interface
                0x00000000       0x50 ./synergy/ssp/src/driver/r_sci_i2c/r_sci_i2c.o
 .text.R_SCI_SIIC_MasterOpen
                0x00000000      0x728 ./synergy/ssp/src/driver/r_sci_i2c/r_sci_i2c.o
 .text.sci_siic_abort_hw_master
                0x00000000      0x130 ./synergy/ssp/src/driver/r_sci_i2c/r_sci_i2c.o
 .text.sci_siic_run_hw_master
                0x00000000      0x254 ./synergy/ssp/src/driver/r_sci_i2c/r_sci_i2c.o
 .text.R_SCI_SIIC_MasterRead
                0x00000000       0xb4 ./synergy/ssp/src/driver/r_sci_i2c/r_sci_i2c.o
 .text.R_SCI_SIIC_MasterWrite
                0x00000000       0xc4 ./synergy/ssp/src/driver/r_sci_i2c/r_sci_i2c.o
 .text.R_SCI_SIIC_MasterReset
                0x00000000       0x74 ./synergy/ssp/src/driver/r_sci_i2c/r_sci_i2c.o
 .text.R_SCI_SIIC_MasterClose
                0x00000000      0x1a8 ./synergy/ssp/src/driver/r_sci_i2c/r_sci_i2c.o
 .text.sci_siic_notify
                0x00000000       0x34 ./synergy/ssp/src/driver/r_sci_i2c/r_sci_i2c.o
 .rodata.g_dummy_write_data_for_read_op
                0x00000000        0x1 ./synergy/ssp/src/driver/r_sci_i2c/r_sci_i2c.o
 .rodata.g_i2c_master_on_sci
                0x00000000       0x1c ./synergy/ssp/src/driver/r_sci_i2c/r_sci_i2c.o
 .rodata.sync_baud
                0x00000000       0x18 ./synergy/ssp/src/driver/r_sci_i2c/r_sci_i2c.o
 .text          0x00000000        0x0 ./synergy/ssp/src/driver/r_ioport/r_ioport.o
 .data          0x00000000        0x0 ./synergy/ssp/src/driver/r_ioport/r_ioport.o
 .bss           0x00000000        0x0 ./synergy/ssp/src/driver/r_ioport/r_ioport.o
 .text          0x00000000        0x0 ./synergy/ssp/src/driver/r_elc/r_elc.o
 .data          0x00000000        0x0 ./synergy/ssp/src/driver/r_elc/r_elc.o
 .bss           0x00000000        0x0 ./synergy/ssp/src/driver/r_elc/r_elc.o
 .text          0x00000000        0x0 ./synergy/ssp/src/driver/r_dtc/r_dtc.o
 .data          0x00000000        0x0 ./synergy/ssp/src/driver/r_dtc/r_dtc.o
 .bss           0x00000000        0x0 ./synergy/ssp/src/driver/r_dtc/r_dtc.o
 .text.R_DTC_Start
                0x00000000        0x4 ./synergy/ssp/src/driver/r_dtc/r_dtc.o
 .text.R_DTC_Stop
                0x00000000        0x4 ./synergy/ssp/src/driver/r_dtc/r_dtc.o
 .text.R_DTC_Disable
                0x00000000       0x34 ./synergy/ssp/src/driver/r_dtc/r_dtc.o
 .text.R_DTC_VersionGet
                0x00000000       0x10 ./synergy/ssp/src/driver/r_dtc/r_dtc.o
 .text.R_DTC_InfoGet
                0x00000000       0x78 ./synergy/ssp/src/driver/r_dtc/r_dtc.o
 .text.R_DTC_Close
                0x00000000       0x58 ./synergy/ssp/src/driver/r_dtc/r_dtc.o
 .text.R_DTC_Enable
                0x00000000       0x8c ./synergy/ssp/src/driver/r_dtc/r_dtc.o
 .text.R_DTC_Reset
                0x00000000       0xac ./synergy/ssp/src/driver/r_dtc/r_dtc.o
 .text.R_DTC_BlockReset
                0x00000000       0xbc ./synergy/ssp/src/driver/r_dtc/r_dtc.o
 .text.R_DTC_Open
                0x00000000      0x17c ./synergy/ssp/src/driver/r_dtc/r_dtc.o
 .text.R_DTC_Stop_ActivationRequest
                0x00000000        0x4 ./synergy/ssp/src/driver/r_dtc/r_dtc.o
 .text.elc_software_event_isr
                0x00000000       0x50 ./synergy/ssp/src/driver/r_dtc/r_dtc.o
 .bss.g_dtc_state_initialized
                0x00000000        0x1 ./synergy/ssp/src/driver/r_dtc/r_dtc.o
 .bss.gp_dtc_regs
                0x00000000        0x4 ./synergy/ssp/src/driver/r_dtc/r_dtc.o
 .bss.gp_icu_regs
                0x00000000        0x4 ./synergy/ssp/src/driver/r_dtc/r_dtc.o
 .rodata.g_transfer_on_dtc
                0x00000000       0x2c ./synergy/ssp/src/driver/r_dtc/r_dtc.o
 .ssp_dtc_vector_table
                0x00000000      0x140 ./synergy/ssp/src/driver/r_dtc/r_dtc.o
 .debug_info    0x00000000     0x3c80 ./synergy/ssp/src/driver/r_dtc/r_dtc.o
 .debug_abbrev  0x00000000      0x66a ./synergy/ssp/src/driver/r_dtc/r_dtc.o
 .debug_loc     0x00000000     0x1507 ./synergy/ssp/src/driver/r_dtc/r_dtc.o
 .debug_aranges
                0x00000000       0x70 ./synergy/ssp/src/driver/r_dtc/r_dtc.o
 .debug_ranges  0x00000000      0x3d8 ./synergy/ssp/src/driver/r_dtc/r_dtc.o
 .debug_line    0x00000000      0xf83 ./synergy/ssp/src/driver/r_dtc/r_dtc.o
 .debug_str     0x00000000     0x5778 ./synergy/ssp/src/driver/r_dtc/r_dtc.o
 .comment       0x00000000       0x4a ./synergy/ssp/src/driver/r_dtc/r_dtc.o
 .debug_frame   0x00000000      0x188 ./synergy/ssp/src/driver/r_dtc/r_dtc.o
 .ARM.attributes
                0x00000000       0x34 ./synergy/ssp/src/driver/r_dtc/r_dtc.o
 .text          0x00000000        0x0 ./synergy/ssp/src/driver/r_cgc/r_cgc.o
 .data          0x00000000        0x0 ./synergy/ssp/src/driver/r_cgc/r_cgc.o
 .bss           0x00000000        0x0 ./synergy/ssp/src/driver/r_cgc/r_cgc.o
 .text.r_cgc_operating_mode_get
                0x00000000       0x14 ./synergy/ssp/src/driver/r_cgc/r_cgc.o
 .text.r_cgc_hoco_wait_control_set
                0x00000000       0x24 ./synergy/ssp/src/driver/r_cgc/r_cgc.o
 .text          0x00000000        0x0 ./synergy/ssp/src/driver/r_can/hw/hw_can.o
 .data          0x00000000        0x0 ./synergy/ssp/src/driver/r_can/hw/hw_can.o
 .bss           0x00000000        0x0 ./synergy/ssp/src/driver/r_can/hw/hw_can.o
 .text.HW_CAN_ReceiveIdGet
                0x00000000       0x10 ./synergy/ssp/src/driver/r_can/hw/hw_can.o
 .text.HW_CAN_ReceiveDataCountGet
                0x00000000       0x14 ./synergy/ssp/src/driver/r_can/hw/hw_can.o
 .text          0x00000000        0x0 ./synergy/ssp/src/driver/r_can/r_can.o
 .data          0x00000000        0x0 ./synergy/ssp/src/driver/r_can/r_can.o
 .bss           0x00000000        0x0 ./synergy/ssp/src/driver/r_can/r_can.o
 .text          0x00000000        0x0 ./synergy/ssp/src/driver/r_adc/r_adc.o
 .data          0x00000000        0x0 ./synergy/ssp/src/driver/r_adc/r_adc.o
 .bss           0x00000000        0x0 ./synergy/ssp/src/driver/r_adc/r_adc.o
 .text.r_adc_open_configure_pga_settings
                0x00000000        0xc ./synergy/ssp/src/driver/r_adc/r_adc.o
 .text.adc_scan_end_isr
                0x00000000       0x5c ./synergy/ssp/src/driver/r_adc/r_adc.o
 .text.adc_scan_end_b_isr
                0x00000000       0x5c ./synergy/ssp/src/driver/r_adc/r_adc.o
 .text          0x00000000        0x0 ./synergy/ssp/src/bsp/mcu/s3a7/bsp_cache.o
 .data          0x00000000        0x0 ./synergy/ssp/src/bsp/mcu/s3a7/bsp_cache.o
 .bss           0x00000000        0x0 ./synergy/ssp/src/bsp/mcu/s3a7/bsp_cache.o
 .text          0x00000000        0x0 ./synergy/ssp/src/bsp/mcu/s3a7/bsp_clocks.o
 .data          0x00000000        0x0 ./synergy/ssp/src/bsp/mcu/s3a7/bsp_clocks.o
 .bss           0x00000000        0x0 ./synergy/ssp/src/bsp/mcu/s3a7/bsp_clocks.o
 .text          0x00000000        0x0 ./synergy/ssp/src/bsp/mcu/s3a7/bsp_feature.o
 .data          0x00000000        0x0 ./synergy/ssp/src/bsp/mcu/s3a7/bsp_feature.o
 .bss           0x00000000        0x0 ./synergy/ssp/src/bsp/mcu/s3a7/bsp_feature.o
 .text.R_BSP_FeatureSciGet
                0x00000000        0x8 ./synergy/ssp/src/bsp/mcu/s3a7/bsp_feature.o
 .text.R_BSP_FeatureRspiGet
                0x00000000       0x14 ./synergy/ssp/src/bsp/mcu/s3a7/bsp_feature.o
 .text.R_BSP_FeatureLvdGet
                0x00000000       0x18 ./synergy/ssp/src/bsp/mcu/s3a7/bsp_feature.o
 .text.R_BSP_FeatureAcmphsGet
                0x00000000        0x8 ./synergy/ssp/src/bsp/mcu/s3a7/bsp_feature.o
 .text.R_BSP_FeatureDacGet
                0x00000000       0x10 ./synergy/ssp/src/bsp/mcu/s3a7/bsp_feature.o
 .text.R_BSP_FeatureFlashLpGet
                0x00000000       0x10 ./synergy/ssp/src/bsp/mcu/s3a7/bsp_feature.o
 .text.R_BSP_FeatureCtsuGet
                0x00000000       0x1c ./synergy/ssp/src/bsp/mcu/s3a7/bsp_feature.o
 .text.R_BSP_FeatureSdhiGet
                0x00000000       0x18 ./synergy/ssp/src/bsp/mcu/s3a7/bsp_feature.o
 .text.R_BSP_FeatureSsiGet
                0x00000000        0x8 ./synergy/ssp/src/bsp/mcu/s3a7/bsp_feature.o
 .text.R_BSP_FeatureOpampGet
                0x00000000       0x14 ./synergy/ssp/src/bsp/mcu/s3a7/bsp_feature.o
 .text.R_BSP_FeatureICUGet
                0x00000000        0xc ./synergy/ssp/src/bsp/mcu/s3a7/bsp_feature.o
 .text.R_BSP_FeatureLPMV2Get
                0x00000000        0xc ./synergy/ssp/src/bsp/mcu/s3a7/bsp_feature.o
 .text.R_BSP_FeatureRIICGet
                0x00000000        0xc ./synergy/ssp/src/bsp/mcu/s3a7/bsp_feature.o
 .text          0x00000000        0x0 ./synergy/ssp/src/bsp/mcu/s3a7/bsp_group_irq.o
 .data          0x00000000        0x0 ./synergy/ssp/src/bsp/mcu/s3a7/bsp_group_irq.o
 .bss           0x00000000        0x0 ./synergy/ssp/src/bsp/mcu/s3a7/bsp_group_irq.o
 .text.bsp_group_irq_call
                0x00000000       0x18 ./synergy/ssp/src/bsp/mcu/s3a7/bsp_group_irq.o
 .text          0x00000000        0x0 ./synergy/ssp/src/bsp/mcu/s3a7/bsp_hw_locks.o
 .data          0x00000000        0x0 ./synergy/ssp/src/bsp/mcu/s3a7/bsp_hw_locks.o
 .bss           0x00000000        0x0 ./synergy/ssp/src/bsp/mcu/s3a7/bsp_hw_locks.o
 .text          0x00000000        0x0 ./synergy/ssp/src/bsp/mcu/s3a7/bsp_module_stop.o
 .data          0x00000000        0x0 ./synergy/ssp/src/bsp/mcu/s3a7/bsp_module_stop.o
 .bss           0x00000000        0x0 ./synergy/ssp/src/bsp/mcu/s3a7/bsp_module_stop.o
 .text.R_BSP_ModuleStopAlways
                0x00000000       0x88 ./synergy/ssp/src/bsp/mcu/s3a7/bsp_module_stop.o
 .text.R_BSP_ModuleStateGet
                0x00000000       0x84 ./synergy/ssp/src/bsp/mcu/s3a7/bsp_module_stop.o
 .text          0x00000000        0x0 ./synergy/ssp/src/bsp/mcu/s3a7/bsp_rom_registers.o
 .data          0x00000000        0x0 ./synergy/ssp/src/bsp/mcu/s3a7/bsp_rom_registers.o
 .bss           0x00000000        0x0 ./synergy/ssp/src/bsp/mcu/s3a7/bsp_rom_registers.o
 .text          0x00000000        0x0 ./synergy/ssp/src/bsp/mcu/all/bsp_common.o
 .data          0x00000000        0x0 ./synergy/ssp/src/bsp/mcu/all/bsp_common.o
 .bss           0x00000000        0x0 ./synergy/ssp/src/bsp/mcu/all/bsp_common.o
 .text.R_BSP_VersionGet
                0x00000000       0x10 ./synergy/ssp/src/bsp/mcu/all/bsp_common.o
 .text.R_SSP_VersionGet
                0x00000000       0x10 ./synergy/ssp/src/bsp/mcu/all/bsp_common.o
 .text          0x00000000        0x0 ./synergy/ssp/src/bsp/mcu/all/bsp_common_leds.o
 .data          0x00000000        0x0 ./synergy/ssp/src/bsp/mcu/all/bsp_common_leds.o
 .bss           0x00000000        0x0 ./synergy/ssp/src/bsp/mcu/all/bsp_common_leds.o
 .text.R_BSP_LedsGet
                0x00000000       0x24 ./synergy/ssp/src/bsp/mcu/all/bsp_common_leds.o
 .debug_info    0x00000000      0xbcc ./synergy/ssp/src/bsp/mcu/all/bsp_common_leds.o
 .debug_abbrev  0x00000000       0xef ./synergy/ssp/src/bsp/mcu/all/bsp_common_leds.o
 .debug_loc     0x00000000       0x3c ./synergy/ssp/src/bsp/mcu/all/bsp_common_leds.o
 .debug_aranges
                0x00000000       0x20 ./synergy/ssp/src/bsp/mcu/all/bsp_common_leds.o
 .debug_ranges  0x00000000       0x10 ./synergy/ssp/src/bsp/mcu/all/bsp_common_leds.o
 .debug_line    0x00000000      0x2c7 ./synergy/ssp/src/bsp/mcu/all/bsp_common_leds.o
 .debug_str     0x00000000     0x2617 ./synergy/ssp/src/bsp/mcu/all/bsp_common_leds.o
 .comment       0x00000000       0x4a ./synergy/ssp/src/bsp/mcu/all/bsp_common_leds.o
 .debug_frame   0x00000000       0x20 ./synergy/ssp/src/bsp/mcu/all/bsp_common_leds.o
 .ARM.attributes
                0x00000000       0x34 ./synergy/ssp/src/bsp/mcu/all/bsp_common_leds.o
 .text          0x00000000        0x0 ./synergy/ssp/src/bsp/mcu/all/bsp_delay.o
 .data          0x00000000        0x0 ./synergy/ssp/src/bsp/mcu/all/bsp_delay.o
 .bss           0x00000000        0x0 ./synergy/ssp/src/bsp/mcu/all/bsp_delay.o
 .text          0x00000000        0x0 ./synergy/ssp/src/bsp/mcu/all/bsp_irq.o
 .data          0x00000000        0x0 ./synergy/ssp/src/bsp/mcu/all/bsp_irq.o
 .bss           0x00000000        0x0 ./synergy/ssp/src/bsp/mcu/all/bsp_irq.o
 .text          0x00000000        0x0 ./synergy/ssp/src/bsp/mcu/all/bsp_locking.o
 .data          0x00000000        0x0 ./synergy/ssp/src/bsp/mcu/all/bsp_locking.o
 .bss           0x00000000        0x0 ./synergy/ssp/src/bsp/mcu/all/bsp_locking.o
 .text.R_BSP_SoftwareLock
                0x00000000       0x20 ./synergy/ssp/src/bsp/mcu/all/bsp_locking.o
 .text.R_BSP_SoftwareUnlock
                0x00000000        0x8 ./synergy/ssp/src/bsp/mcu/all/bsp_locking.o
 .text.R_BSP_SoftwareLockInit
                0x00000000        0x8 ./synergy/ssp/src/bsp/mcu/all/bsp_locking.o
 .text          0x00000000        0x0 ./synergy/ssp/src/bsp/mcu/all/bsp_register_protection.o
 .data          0x00000000        0x0 ./synergy/ssp/src/bsp/mcu/all/bsp_register_protection.o
 .bss           0x00000000        0x0 ./synergy/ssp/src/bsp/mcu/all/bsp_register_protection.o
 .text          0x00000000        0x0 ./synergy/ssp/src/bsp/mcu/all/bsp_sbrk.o
 .data          0x00000000        0x0 ./synergy/ssp/src/bsp/mcu/all/bsp_sbrk.o
 .bss           0x00000000        0x0 ./synergy/ssp/src/bsp/mcu/all/bsp_sbrk.o
 .text          0x00000000        0x0 ./synergy/ssp/src/bsp/cmsis/Device/RENESAS/S3A7/Source/startup_S3A7.o
 .data          0x00000000        0x0 ./synergy/ssp/src/bsp/cmsis/Device/RENESAS/S3A7/Source/startup_S3A7.o
 .bss           0x00000000        0x0 ./synergy/ssp/src/bsp/cmsis/Device/RENESAS/S3A7/Source/startup_S3A7.o
 .text          0x00000000        0x0 ./synergy/ssp/src/bsp/cmsis/Device/RENESAS/S3A7/Source/system_S3A7.o
 .data          0x00000000        0x0 ./synergy/ssp/src/bsp/cmsis/Device/RENESAS/S3A7/Source/system_S3A7.o
 .bss           0x00000000        0x0 ./synergy/ssp/src/bsp/cmsis/Device/RENESAS/S3A7/Source/system_S3A7.o
 .text.SystemCoreClockUpdate
                0x00000000       0x10 ./synergy/ssp/src/bsp/cmsis/Device/RENESAS/S3A7/Source/system_S3A7.o
 .text          0x00000000        0x0 ./src/synergy_gen/adc_thread.o
 .data          0x00000000        0x0 ./src/synergy_gen/adc_thread.o
 .bss           0x00000000        0x0 ./src/synergy_gen/adc_thread.o
 .text          0x00000000        0x0 ./src/synergy_gen/can_thread.o
 .data          0x00000000        0x0 ./src/synergy_gen/can_thread.o
 .bss           0x00000000        0x0 ./src/synergy_gen/can_thread.o
 .text          0x00000000        0x0 ./src/synergy_gen/common_data.o
 .data          0x00000000        0x0 ./src/synergy_gen/common_data.o
 .bss           0x00000000        0x0 ./src/synergy_gen/common_data.o
 .rodata.g_cgc  0x00000000        0x8 ./src/synergy_gen/common_data.o
 .rodata.g_elc  0x00000000        0x8 ./src/synergy_gen/common_data.o
 .rodata.g_fmi  0x00000000        0x4 ./src/synergy_gen/common_data.o
 .text          0x00000000        0x0 ./src/synergy_gen/drv_thread.o
 .data          0x00000000        0x0 ./src/synergy_gen/drv_thread.o
 .bss           0x00000000        0x0 ./src/synergy_gen/drv_thread.o
 .bss.g_i2c0_ctrl
                0x00000000       0x5c ./src/synergy_gen/drv_thread.o
 .bss.g_transfer0_ctrl
                0x00000000       0x10 ./src/synergy_gen/drv_thread.o
 .bss.g_transfer1_ctrl
                0x00000000       0x10 ./src/synergy_gen/drv_thread.o
 .data.g_transfer0_info
                0x00000000       0x10 ./src/synergy_gen/drv_thread.o
 .data.g_transfer1_info
                0x00000000       0x10 ./src/synergy_gen/drv_thread.o
 .rodata.g_i2c0
                0x00000000        0xc ./src/synergy_gen/drv_thread.o
 .rodata.g_i2c0_cfg
                0x00000000       0x28 ./src/synergy_gen/drv_thread.o
 .rodata.g_i2c0_cfg_extend
                0x00000000        0x1 ./src/synergy_gen/drv_thread.o
 .rodata.g_transfer0
                0x00000000        0xc ./src/synergy_gen/drv_thread.o
 .rodata.g_transfer0_cfg
                0x00000000       0x14 ./src/synergy_gen/drv_thread.o
 .rodata.g_transfer1
                0x00000000        0xc ./src/synergy_gen/drv_thread.o
 .rodata.g_transfer1_cfg
                0x00000000       0x14 ./src/synergy_gen/drv_thread.o
 .text          0x00000000        0x0 ./src/synergy_gen/hal_data.o
 .data          0x00000000        0x0 ./src/synergy_gen/hal_data.o
 .bss           0x00000000        0x0 ./src/synergy_gen/hal_data.o
 .text          0x00000000        0x0 ./src/synergy_gen/lcd_thread.o
 .data          0x00000000        0x0 ./src/synergy_gen/lcd_thread.o
 .bss           0x00000000        0x0 ./src/synergy_gen/lcd_thread.o
 .text          0x00000000        0x0 ./src/synergy_gen/main.o
 .data          0x00000000        0x0 ./src/synergy_gen/main.o
 .bss           0x00000000        0x0 ./src/synergy_gen/main.o
 .text          0x00000000        0x0 ./src/synergy_gen/pin_data.o
 .data          0x00000000        0x0 ./src/synergy_gen/pin_data.o
 .bss           0x00000000        0x0 ./src/synergy_gen/pin_data.o
 .text          0x00000000        0x0 ./src/synergy_gen/status_led.o
 .data          0x00000000        0x0 ./src/synergy_gen/status_led.o
 .bss           0x00000000        0x0 ./src/synergy_gen/status_led.o
 .text          0x00000000        0x0 ./src/adc_thread_entry.o
 .data          0x00000000        0x0 ./src/adc_thread_entry.o
 .bss           0x00000000        0x0 ./src/adc_thread_entry.o
 .text          0x00000000        0x0 ./src/can_thread_entry.o
 .data          0x00000000        0x0 ./src/can_thread_entry.o
 .bss           0x00000000        0x0 ./src/can_thread_entry.o
 .text.can_rx   0x00000000       0x10 ./src/can_thread_entry.o
 .bss.tx_data   0x00000000        0x8 ./src/can_thread_entry.o
 .text          0x00000000        0x0 ./src/drv_thread_entry.o
 .data          0x00000000        0x0 ./src/drv_thread_entry.o
 .bss           0x00000000        0x0 ./src/drv_thread_entry.o
 .text          0x00000000        0x0 ./src/hal_entry.o
 .data          0x00000000        0x0 ./src/hal_entry.o
 .bss           0x00000000        0x0 ./src/hal_entry.o
 .text.hal_entry
                0x00000000        0x4 ./src/hal_entry.o
 .debug_info    0x00000000       0x8c ./src/hal_entry.o
 .debug_abbrev  0x00000000       0x44 ./src/hal_entry.o
 .debug_aranges
                0x00000000       0x20 ./src/hal_entry.o
 .debug_ranges  0x00000000       0x10 ./src/hal_entry.o
 .debug_line    0x00000000       0x43 ./src/hal_entry.o
 .debug_str     0x00000000      0x1ae ./src/hal_entry.o
 .comment       0x00000000       0x4a ./src/hal_entry.o
 .debug_frame   0x00000000       0x20 ./src/hal_entry.o
 .ARM.attributes
                0x00000000       0x34 ./src/hal_entry.o
 .text          0x00000000        0x0 ./src/lcd_thread_entry.o
 .data          0x00000000        0x0 ./src/lcd_thread_entry.o
 .bss           0x00000000        0x0 ./src/lcd_thread_entry.o
 .text.LCD_Command
                0x00000000       0x30 ./src/lcd_thread_entry.o
 .text.LCD_Data
                0x00000000       0x30 ./src/lcd_thread_entry.o
 .text.Disp_XY  0x00000000       0x38 ./src/lcd_thread_entry.o
 .text.DispOneChar
                0x00000000       0x64 ./src/lcd_thread_entry.o
 .bss.error     0x00000000        0x4 ./src/lcd_thread_entry.o
 .bss.ulAborted
                0x00000000        0x4 ./src/lcd_thread_entry.o
 .bss.ulSent    0x00000000        0x4 ./src/lcd_thread_entry.o
 .data.address  0x00000000        0x2 ./src/lcd_thread_entry.o
 .data.delay    0x00000000        0x2 ./src/lcd_thread_entry.o
 .text          0x00000000        0x0 ./src/status_led_entry.o
 .data          0x00000000        0x0 ./src/status_led_entry.o
 .bss           0x00000000        0x0 ./src/status_led_entry.o
 .text          0x00000000        0x0 C:\Users\khurr\e2_studio_latest\workspace\COPJunction\synergy\ssp\src\driver\r_fmi\libs\libfmi_cm4_s3a7_gcc.a(r_fmi.o)
 .data          0x00000000        0x0 C:\Users\khurr\e2_studio_latest\workspace\COPJunction\synergy\ssp\src\driver\r_fmi\libs\libfmi_cm4_s3a7_gcc.a(r_fmi.o)
 .bss           0x00000000        0x0 C:\Users\khurr\e2_studio_latest\workspace\COPJunction\synergy\ssp\src\driver\r_fmi\libs\libfmi_cm4_s3a7_gcc.a(r_fmi.o)
 .text          0x00000000        0x0 C:\Users\khurr\e2_studio_latest\workspace\COPJunction\synergy\ssp\src\framework\el\tx\cm4_gcc\libtx.a(txe_semaphore_create.o)
 .data          0x00000000        0x0 C:\Users\khurr\e2_studio_latest\workspace\COPJunction\synergy\ssp\src\framework\el\tx\cm4_gcc\libtx.a(txe_semaphore_create.o)
 .bss           0x00000000        0x0 C:\Users\khurr\e2_studio_latest\workspace\COPJunction\synergy\ssp\src\framework\el\tx\cm4_gcc\libtx.a(txe_semaphore_create.o)
 .text          0x00000000        0x0 C:\Users\khurr\e2_studio_latest\workspace\COPJunction\synergy\ssp\src\framework\el\tx\cm4_gcc\libtx.a(txe_semaphore_get.o)
 .data          0x00000000        0x0 C:\Users\khurr\e2_studio_latest\workspace\COPJunction\synergy\ssp\src\framework\el\tx\cm4_gcc\libtx.a(txe_semaphore_get.o)
 .bss           0x00000000        0x0 C:\Users\khurr\e2_studio_latest\workspace\COPJunction\synergy\ssp\src\framework\el\tx\cm4_gcc\libtx.a(txe_semaphore_get.o)
 .text          0x00000000        0x0 C:\Users\khurr\e2_studio_latest\workspace\COPJunction\synergy\ssp\src\framework\el\tx\cm4_gcc\libtx.a(txe_semaphore_put.o)
 .data          0x00000000        0x0 C:\Users\khurr\e2_studio_latest\workspace\COPJunction\synergy\ssp\src\framework\el\tx\cm4_gcc\libtx.a(txe_semaphore_put.o)
 .bss           0x00000000        0x0 C:\Users\khurr\e2_studio_latest\workspace\COPJunction\synergy\ssp\src\framework\el\tx\cm4_gcc\libtx.a(txe_semaphore_put.o)
 .text          0x00000000        0x0 C:\Users\khurr\e2_studio_latest\workspace\COPJunction\synergy\ssp\src\framework\el\tx\cm4_gcc\libtx.a(txe_thread_create.o)
 .data          0x00000000        0x0 C:\Users\khurr\e2_studio_latest\workspace\COPJunction\synergy\ssp\src\framework\el\tx\cm4_gcc\libtx.a(txe_thread_create.o)
 .bss           0x00000000        0x0 C:\Users\khurr\e2_studio_latest\workspace\COPJunction\synergy\ssp\src\framework\el\tx\cm4_gcc\libtx.a(txe_thread_create.o)
 .text          0x00000000        0x0 C:\Users\khurr\e2_studio_latest\workspace\COPJunction\synergy\ssp\src\framework\el\tx\cm4_gcc\libtx.a(tx_initialize_high_level.o)
 .data          0x00000000        0x0 C:\Users\khurr\e2_studio_latest\workspace\COPJunction\synergy\ssp\src\framework\el\tx\cm4_gcc\libtx.a(tx_initialize_high_level.o)
 .bss           0x00000000        0x0 C:\Users\khurr\e2_studio_latest\workspace\COPJunction\synergy\ssp\src\framework\el\tx\cm4_gcc\libtx.a(tx_initialize_high_level.o)
 .text          0x00000000        0x0 C:\Users\khurr\e2_studio_latest\workspace\COPJunction\synergy\ssp\src\framework\el\tx\cm4_gcc\libtx.a(tx_initialize_kernel_enter.o)
 .data          0x00000000        0x0 C:\Users\khurr\e2_studio_latest\workspace\COPJunction\synergy\ssp\src\framework\el\tx\cm4_gcc\libtx.a(tx_initialize_kernel_enter.o)
 .bss           0x00000000        0x0 C:\Users\khurr\e2_studio_latest\workspace\COPJunction\synergy\ssp\src\framework\el\tx\cm4_gcc\libtx.a(tx_initialize_kernel_enter.o)
 .text          0x00000000        0x0 C:\Users\khurr\e2_studio_latest\workspace\COPJunction\synergy\ssp\src\framework\el\tx\cm4_gcc\libtx.a(tx_isr_end.o)
 .data          0x00000000        0x0 C:\Users\khurr\e2_studio_latest\workspace\COPJunction\synergy\ssp\src\framework\el\tx\cm4_gcc\libtx.a(tx_isr_end.o)
 .bss           0x00000000        0x0 C:\Users\khurr\e2_studio_latest\workspace\COPJunction\synergy\ssp\src\framework\el\tx\cm4_gcc\libtx.a(tx_isr_end.o)
 .text          0x00000000        0x0 C:\Users\khurr\e2_studio_latest\workspace\COPJunction\synergy\ssp\src\framework\el\tx\cm4_gcc\libtx.a(tx_isr_start.o)
 .data          0x00000000        0x0 C:\Users\khurr\e2_studio_latest\workspace\COPJunction\synergy\ssp\src\framework\el\tx\cm4_gcc\libtx.a(tx_isr_start.o)
 .bss           0x00000000        0x0 C:\Users\khurr\e2_studio_latest\workspace\COPJunction\synergy\ssp\src\framework\el\tx\cm4_gcc\libtx.a(tx_isr_start.o)
 .text          0x00000000        0x0 C:\Users\khurr\e2_studio_latest\workspace\COPJunction\synergy\ssp\src\framework\el\tx\cm4_gcc\libtx.a(tx_semaphore_create.o)
 .data          0x00000000        0x0 C:\Users\khurr\e2_studio_latest\workspace\COPJunction\synergy\ssp\src\framework\el\tx\cm4_gcc\libtx.a(tx_semaphore_create.o)
 .bss           0x00000000        0x0 C:\Users\khurr\e2_studio_latest\workspace\COPJunction\synergy\ssp\src\framework\el\tx\cm4_gcc\libtx.a(tx_semaphore_create.o)
 .text          0x00000000        0x0 C:\Users\khurr\e2_studio_latest\workspace\COPJunction\synergy\ssp\src\framework\el\tx\cm4_gcc\libtx.a(tx_semaphore_get.o)
 .data          0x00000000        0x0 C:\Users\khurr\e2_studio_latest\workspace\COPJunction\synergy\ssp\src\framework\el\tx\cm4_gcc\libtx.a(tx_semaphore_get.o)
 .bss           0x00000000        0x0 C:\Users\khurr\e2_studio_latest\workspace\COPJunction\synergy\ssp\src\framework\el\tx\cm4_gcc\libtx.a(tx_semaphore_get.o)
 .text          0x00000000        0x0 C:\Users\khurr\e2_studio_latest\workspace\COPJunction\synergy\ssp\src\framework\el\tx\cm4_gcc\libtx.a(tx_semaphore_put.o)
 .data          0x00000000        0x0 C:\Users\khurr\e2_studio_latest\workspace\COPJunction\synergy\ssp\src\framework\el\tx\cm4_gcc\libtx.a(tx_semaphore_put.o)
 .bss           0x00000000        0x0 C:\Users\khurr\e2_studio_latest\workspace\COPJunction\synergy\ssp\src\framework\el\tx\cm4_gcc\libtx.a(tx_semaphore_put.o)
 .text          0x00000000        0x0 C:\Users\khurr\e2_studio_latest\workspace\COPJunction\synergy\ssp\src\framework\el\tx\cm4_gcc\libtx.a(tx_thread_create.o)
 .data          0x00000000        0x0 C:\Users\khurr\e2_studio_latest\workspace\COPJunction\synergy\ssp\src\framework\el\tx\cm4_gcc\libtx.a(tx_thread_create.o)
 .bss           0x00000000        0x0 C:\Users\khurr\e2_studio_latest\workspace\COPJunction\synergy\ssp\src\framework\el\tx\cm4_gcc\libtx.a(tx_thread_create.o)
 .text          0x00000000        0x0 C:\Users\khurr\e2_studio_latest\workspace\COPJunction\synergy\ssp\src\framework\el\tx\cm4_gcc\libtx.a(tx_thread_initialize.o)
 .data          0x00000000        0x0 C:\Users\khurr\e2_studio_latest\workspace\COPJunction\synergy\ssp\src\framework\el\tx\cm4_gcc\libtx.a(tx_thread_initialize.o)
 .bss           0x00000000        0x0 C:\Users\khurr\e2_studio_latest\workspace\COPJunction\synergy\ssp\src\framework\el\tx\cm4_gcc\libtx.a(tx_thread_initialize.o)
 .data._tx_version_id
                0x00000000       0x65 C:\Users\khurr\e2_studio_latest\workspace\COPJunction\synergy\ssp\src\framework\el\tx\cm4_gcc\libtx.a(tx_thread_initialize.o)
 .rodata._tx_thread_special_string
                0x00000000       0x57 C:\Users\khurr\e2_studio_latest\workspace\COPJunction\synergy\ssp\src\framework\el\tx\cm4_gcc\libtx.a(tx_thread_initialize.o)
 .text          0x00000000        0x0 C:\Users\khurr\e2_studio_latest\workspace\COPJunction\synergy\ssp\src\framework\el\tx\cm4_gcc\libtx.a(tx_thread_shell_entry.o)
 .data          0x00000000        0x0 C:\Users\khurr\e2_studio_latest\workspace\COPJunction\synergy\ssp\src\framework\el\tx\cm4_gcc\libtx.a(tx_thread_shell_entry.o)
 .bss           0x00000000        0x0 C:\Users\khurr\e2_studio_latest\workspace\COPJunction\synergy\ssp\src\framework\el\tx\cm4_gcc\libtx.a(tx_thread_shell_entry.o)
 .text          0x00000000        0x0 C:\Users\khurr\e2_studio_latest\workspace\COPJunction\synergy\ssp\src\framework\el\tx\cm4_gcc\libtx.a(tx_thread_sleep.o)
 .data          0x00000000        0x0 C:\Users\khurr\e2_studio_latest\workspace\COPJunction\synergy\ssp\src\framework\el\tx\cm4_gcc\libtx.a(tx_thread_sleep.o)
 .bss           0x00000000        0x0 C:\Users\khurr\e2_studio_latest\workspace\COPJunction\synergy\ssp\src\framework\el\tx\cm4_gcc\libtx.a(tx_thread_sleep.o)
 .text          0x00000000        0x0 C:\Users\khurr\e2_studio_latest\workspace\COPJunction\synergy\ssp\src\framework\el\tx\cm4_gcc\libtx.a(tx_thread_system_preempt_check.o)
 .data          0x00000000        0x0 C:\Users\khurr\e2_studio_latest\workspace\COPJunction\synergy\ssp\src\framework\el\tx\cm4_gcc\libtx.a(tx_thread_system_preempt_check.o)
 .bss           0x00000000        0x0 C:\Users\khurr\e2_studio_latest\workspace\COPJunction\synergy\ssp\src\framework\el\tx\cm4_gcc\libtx.a(tx_thread_system_preempt_check.o)
 .text          0x00000000        0x0 C:\Users\khurr\e2_studio_latest\workspace\COPJunction\synergy\ssp\src\framework\el\tx\cm4_gcc\libtx.a(tx_thread_system_resume.o)
 .data          0x00000000        0x0 C:\Users\khurr\e2_studio_latest\workspace\COPJunction\synergy\ssp\src\framework\el\tx\cm4_gcc\libtx.a(tx_thread_system_resume.o)
 .bss           0x00000000        0x0 C:\Users\khurr\e2_studio_latest\workspace\COPJunction\synergy\ssp\src\framework\el\tx\cm4_gcc\libtx.a(tx_thread_system_resume.o)
 .text          0x00000000        0x0 C:\Users\khurr\e2_studio_latest\workspace\COPJunction\synergy\ssp\src\framework\el\tx\cm4_gcc\libtx.a(tx_thread_system_suspend.o)
 .data          0x00000000        0x0 C:\Users\khurr\e2_studio_latest\workspace\COPJunction\synergy\ssp\src\framework\el\tx\cm4_gcc\libtx.a(tx_thread_system_suspend.o)
 .bss           0x00000000        0x0 C:\Users\khurr\e2_studio_latest\workspace\COPJunction\synergy\ssp\src\framework\el\tx\cm4_gcc\libtx.a(tx_thread_system_suspend.o)
 .text          0x00000000        0x0 C:\Users\khurr\e2_studio_latest\workspace\COPJunction\synergy\ssp\src\framework\el\tx\cm4_gcc\libtx.a(tx_thread_timeout.o)
 .data          0x00000000        0x0 C:\Users\khurr\e2_studio_latest\workspace\COPJunction\synergy\ssp\src\framework\el\tx\cm4_gcc\libtx.a(tx_thread_timeout.o)
 .bss           0x00000000        0x0 C:\Users\khurr\e2_studio_latest\workspace\COPJunction\synergy\ssp\src\framework\el\tx\cm4_gcc\libtx.a(tx_thread_timeout.o)
 .text          0x00000000        0x0 C:\Users\khurr\e2_studio_latest\workspace\COPJunction\synergy\ssp\src\framework\el\tx\cm4_gcc\libtx.a(tx_timer_initialize.o)
 .data          0x00000000        0x0 C:\Users\khurr\e2_studio_latest\workspace\COPJunction\synergy\ssp\src\framework\el\tx\cm4_gcc\libtx.a(tx_timer_initialize.o)
 .bss           0x00000000        0x0 C:\Users\khurr\e2_studio_latest\workspace\COPJunction\synergy\ssp\src\framework\el\tx\cm4_gcc\libtx.a(tx_timer_initialize.o)
 .text          0x00000000        0x0 C:\Users\khurr\e2_studio_latest\workspace\COPJunction\synergy\ssp\src\framework\el\tx\cm4_gcc\libtx.a(tx_timer_system_activate.o)
 .data          0x00000000        0x0 C:\Users\khurr\e2_studio_latest\workspace\COPJunction\synergy\ssp\src\framework\el\tx\cm4_gcc\libtx.a(tx_timer_system_activate.o)
 .bss           0x00000000        0x0 C:\Users\khurr\e2_studio_latest\workspace\COPJunction\synergy\ssp\src\framework\el\tx\cm4_gcc\libtx.a(tx_timer_system_activate.o)
 .text          0x00000000        0x0 C:\Users\khurr\e2_studio_latest\workspace\COPJunction\synergy\ssp\src\framework\el\tx\cm4_gcc\libtx.a(tx_timer_system_deactivate.o)
 .data          0x00000000        0x0 C:\Users\khurr\e2_studio_latest\workspace\COPJunction\synergy\ssp\src\framework\el\tx\cm4_gcc\libtx.a(tx_timer_system_deactivate.o)
 .bss           0x00000000        0x0 C:\Users\khurr\e2_studio_latest\workspace\COPJunction\synergy\ssp\src\framework\el\tx\cm4_gcc\libtx.a(tx_timer_system_deactivate.o)
 .text          0x00000000        0x0 C:\Users\khurr\e2_studio_latest\workspace\COPJunction\synergy\ssp\src\framework\el\tx\cm4_gcc\libtx.a(tx_initialize_low_level.o)
 .data          0x00000000        0x0 C:\Users\khurr\e2_studio_latest\workspace\COPJunction\synergy\ssp\src\framework\el\tx\cm4_gcc\libtx.a(tx_initialize_low_level.o)
 .bss           0x00000000        0x0 C:\Users\khurr\e2_studio_latest\workspace\COPJunction\synergy\ssp\src\framework\el\tx\cm4_gcc\libtx.a(tx_initialize_low_level.o)
 .text          0x00000000        0x0 C:\Users\khurr\e2_studio_latest\workspace\COPJunction\synergy\ssp\src\framework\el\tx\cm4_gcc\libtx.a(tx_thread_schedule.o)
 .data          0x00000000        0x0 C:\Users\khurr\e2_studio_latest\workspace\COPJunction\synergy\ssp\src\framework\el\tx\cm4_gcc\libtx.a(tx_thread_schedule.o)
 .bss           0x00000000        0x0 C:\Users\khurr\e2_studio_latest\workspace\COPJunction\synergy\ssp\src\framework\el\tx\cm4_gcc\libtx.a(tx_thread_schedule.o)
 .text          0x00000000        0x0 C:\Users\khurr\e2_studio_latest\workspace\COPJunction\synergy\ssp\src\framework\el\tx\cm4_gcc\libtx.a(tx_thread_stack_build.o)
 .data          0x00000000        0x0 C:\Users\khurr\e2_studio_latest\workspace\COPJunction\synergy\ssp\src\framework\el\tx\cm4_gcc\libtx.a(tx_thread_stack_build.o)
 .bss           0x00000000        0x0 C:\Users\khurr\e2_studio_latest\workspace\COPJunction\synergy\ssp\src\framework\el\tx\cm4_gcc\libtx.a(tx_thread_stack_build.o)
 .text          0x00000000        0x0 C:\Users\khurr\e2_studio_latest\workspace\COPJunction\synergy\ssp\src\framework\el\tx\cm4_gcc\libtx.a(tx_timer_interrupt.o)
 .data          0x00000000        0x0 C:\Users\khurr\e2_studio_latest\workspace\COPJunction\synergy\ssp\src\framework\el\tx\cm4_gcc\libtx.a(tx_timer_interrupt.o)
 .bss           0x00000000        0x0 C:\Users\khurr\e2_studio_latest\workspace\COPJunction\synergy\ssp\src\framework\el\tx\cm4_gcc\libtx.a(tx_timer_interrupt.o)
 .text          0x00000000        0x0 C:\Users\khurr\e2_studio_latest\workspace\COPJunction\synergy\ssp\src\framework\el\tx\cm4_gcc\libtx.a(tx_semaphore_cleanup.o)
 .data          0x00000000        0x0 C:\Users\khurr\e2_studio_latest\workspace\COPJunction\synergy\ssp\src\framework\el\tx\cm4_gcc\libtx.a(tx_semaphore_cleanup.o)
 .bss           0x00000000        0x0 C:\Users\khurr\e2_studio_latest\workspace\COPJunction\synergy\ssp\src\framework\el\tx\cm4_gcc\libtx.a(tx_semaphore_cleanup.o)
 .text          0x00000000        0x0 C:\Users\khurr\e2_studio_latest\workspace\COPJunction\synergy\ssp\src\framework\el\tx\cm4_gcc\libtx.a(tx_thread_time_slice.o)
 .data          0x00000000        0x0 C:\Users\khurr\e2_studio_latest\workspace\COPJunction\synergy\ssp\src\framework\el\tx\cm4_gcc\libtx.a(tx_thread_time_slice.o)
 .bss           0x00000000        0x0 C:\Users\khurr\e2_studio_latest\workspace\COPJunction\synergy\ssp\src\framework\el\tx\cm4_gcc\libtx.a(tx_thread_time_slice.o)
 .text          0x00000000        0x0 C:\Users\khurr\e2_studio_latest\workspace\COPJunction\synergy\ssp\src\framework\el\tx\cm4_gcc\libtx.a(tx_timer_expiration_process.o)
 .data          0x00000000        0x0 C:\Users\khurr\e2_studio_latest\workspace\COPJunction\synergy\ssp\src\framework\el\tx\cm4_gcc\libtx.a(tx_timer_expiration_process.o)
 .bss           0x00000000        0x0 C:\Users\khurr\e2_studio_latest\workspace\COPJunction\synergy\ssp\src\framework\el\tx\cm4_gcc\libtx.a(tx_timer_expiration_process.o)
 .text          0x00000000        0x0 C:\Users\khurr\e2_studio_latest\workspace\COPJunction\synergy\ssp\src\bsp\mcu\s3a7\libfmi_R7FS3A77C3A01CFM_gcc.a(bsp_fmi_R7FS3A77C3A01CFM.o)
 .data          0x00000000        0x0 C:\Users\khurr\e2_studio_latest\workspace\COPJunction\synergy\ssp\src\bsp\mcu\s3a7\libfmi_R7FS3A77C3A01CFM_gcc.a(bsp_fmi_R7FS3A77C3A01CFM.o)
 .bss           0x00000000        0x0 C:\Users\khurr\e2_studio_latest\workspace\COPJunction\synergy\ssp\src\bsp\mcu\s3a7\libfmi_R7FS3A77C3A01CFM_gcc.a(bsp_fmi_R7FS3A77C3A01CFM.o)
 .text          0x00000000       0xa0 c:/renesas/synergy/e2studio_v2022-10_ssp_v2.4.0/toolchains/gcc_arm/gcc-arm-none-eabi-10.3-2021.10/bin/../lib/gcc/arm-none-eabi/10.3.1/thumb/v7e-m+fp/hard\libgcc.a(_aeabi_ldivmod.o)
 .data          0x00000000        0x0 c:/renesas/synergy/e2studio_v2022-10_ssp_v2.4.0/toolchains/gcc_arm/gcc-arm-none-eabi-10.3-2021.10/bin/../lib/gcc/arm-none-eabi/10.3.1/thumb/v7e-m+fp/hard\libgcc.a(_aeabi_ldivmod.o)
 .bss           0x00000000        0x0 c:/renesas/synergy/e2studio_v2022-10_ssp_v2.4.0/toolchains/gcc_arm/gcc-arm-none-eabi-10.3-2021.10/bin/../lib/gcc/arm-none-eabi/10.3.1/thumb/v7e-m+fp/hard\libgcc.a(_aeabi_ldivmod.o)
 .debug_frame   0x00000000       0x44 c:/renesas/synergy/e2studio_v2022-10_ssp_v2.4.0/toolchains/gcc_arm/gcc-arm-none-eabi-10.3-2021.10/bin/../lib/gcc/arm-none-eabi/10.3.1/thumb/v7e-m+fp/hard\libgcc.a(_aeabi_ldivmod.o)
 .ARM.attributes
                0x00000000       0x1e c:/renesas/synergy/e2studio_v2022-10_ssp_v2.4.0/toolchains/gcc_arm/gcc-arm-none-eabi-10.3-2021.10/bin/../lib/gcc/arm-none-eabi/10.3.1/thumb/v7e-m+fp/hard\libgcc.a(_aeabi_ldivmod.o)
 .text          0x00000000       0x30 c:/renesas/synergy/e2studio_v2022-10_ssp_v2.4.0/toolchains/gcc_arm/gcc-arm-none-eabi-10.3-2021.10/bin/../lib/gcc/arm-none-eabi/10.3.1/thumb/v7e-m+fp/hard\libgcc.a(_aeabi_uldivmod.o)
 .data          0x00000000        0x0 c:/renesas/synergy/e2studio_v2022-10_ssp_v2.4.0/toolchains/gcc_arm/gcc-arm-none-eabi-10.3-2021.10/bin/../lib/gcc/arm-none-eabi/10.3.1/thumb/v7e-m+fp/hard\libgcc.a(_aeabi_uldivmod.o)
 .bss           0x00000000        0x0 c:/renesas/synergy/e2studio_v2022-10_ssp_v2.4.0/toolchains/gcc_arm/gcc-arm-none-eabi-10.3-2021.10/bin/../lib/gcc/arm-none-eabi/10.3.1/thumb/v7e-m+fp/hard\libgcc.a(_aeabi_uldivmod.o)
 .debug_frame   0x00000000       0x2c c:/renesas/synergy/e2studio_v2022-10_ssp_v2.4.0/toolchains/gcc_arm/gcc-arm-none-eabi-10.3-2021.10/bin/../lib/gcc/arm-none-eabi/10.3.1/thumb/v7e-m+fp/hard\libgcc.a(_aeabi_uldivmod.o)
 .ARM.attributes
                0x00000000       0x1e c:/renesas/synergy/e2studio_v2022-10_ssp_v2.4.0/toolchains/gcc_arm/gcc-arm-none-eabi-10.3-2021.10/bin/../lib/gcc/arm-none-eabi/10.3.1/thumb/v7e-m+fp/hard\libgcc.a(_aeabi_uldivmod.o)
 .text          0x00000000      0x2d0 c:/renesas/synergy/e2studio_v2022-10_ssp_v2.4.0/toolchains/gcc_arm/gcc-arm-none-eabi-10.3-2021.10/bin/../lib/gcc/arm-none-eabi/10.3.1/thumb/v7e-m+fp/hard\libgcc.a(_udivmoddi4.o)
 .data          0x00000000        0x0 c:/renesas/synergy/e2studio_v2022-10_ssp_v2.4.0/toolchains/gcc_arm/gcc-arm-none-eabi-10.3-2021.10/bin/../lib/gcc/arm-none-eabi/10.3.1/thumb/v7e-m+fp/hard\libgcc.a(_udivmoddi4.o)
 .bss           0x00000000        0x0 c:/renesas/synergy/e2studio_v2022-10_ssp_v2.4.0/toolchains/gcc_arm/gcc-arm-none-eabi-10.3-2021.10/bin/../lib/gcc/arm-none-eabi/10.3.1/thumb/v7e-m+fp/hard\libgcc.a(_udivmoddi4.o)
 .ARM.extab     0x00000000        0x0 c:/renesas/synergy/e2studio_v2022-10_ssp_v2.4.0/toolchains/gcc_arm/gcc-arm-none-eabi-10.3-2021.10/bin/../lib/gcc/arm-none-eabi/10.3.1/thumb/v7e-m+fp/hard\libgcc.a(_udivmoddi4.o)
 .ARM.exidx     0x00000000        0x8 c:/renesas/synergy/e2studio_v2022-10_ssp_v2.4.0/toolchains/gcc_arm/gcc-arm-none-eabi-10.3-2021.10/bin/../lib/gcc/arm-none-eabi/10.3.1/thumb/v7e-m+fp/hard\libgcc.a(_udivmoddi4.o)
 .debug_frame   0x00000000       0x34 c:/renesas/synergy/e2studio_v2022-10_ssp_v2.4.0/toolchains/gcc_arm/gcc-arm-none-eabi-10.3-2021.10/bin/../lib/gcc/arm-none-eabi/10.3.1/thumb/v7e-m+fp/hard\libgcc.a(_udivmoddi4.o)
 .ARM.attributes
                0x00000000       0x34 c:/renesas/synergy/e2studio_v2022-10_ssp_v2.4.0/toolchains/gcc_arm/gcc-arm-none-eabi-10.3-2021.10/bin/../lib/gcc/arm-none-eabi/10.3.1/thumb/v7e-m+fp/hard\libgcc.a(_udivmoddi4.o)
 .text          0x00000000        0x4 c:/renesas/synergy/e2studio_v2022-10_ssp_v2.4.0/toolchains/gcc_arm/gcc-arm-none-eabi-10.3-2021.10/bin/../lib/gcc/arm-none-eabi/10.3.1/thumb/v7e-m+fp/hard\libgcc.a(_dvmd_tls.o)
 .data          0x00000000        0x0 c:/renesas/synergy/e2studio_v2022-10_ssp_v2.4.0/toolchains/gcc_arm/gcc-arm-none-eabi-10.3-2021.10/bin/../lib/gcc/arm-none-eabi/10.3.1/thumb/v7e-m+fp/hard\libgcc.a(_dvmd_tls.o)
 .bss           0x00000000        0x0 c:/renesas/synergy/e2studio_v2022-10_ssp_v2.4.0/toolchains/gcc_arm/gcc-arm-none-eabi-10.3-2021.10/bin/../lib/gcc/arm-none-eabi/10.3.1/thumb/v7e-m+fp/hard\libgcc.a(_dvmd_tls.o)
 .ARM.attributes
                0x00000000       0x1e c:/renesas/synergy/e2studio_v2022-10_ssp_v2.4.0/toolchains/gcc_arm/gcc-arm-none-eabi-10.3-2021.10/bin/../lib/gcc/arm-none-eabi/10.3.1/thumb/v7e-m+fp/hard\libgcc.a(_dvmd_tls.o)
 .text          0x00000000        0x0 c:/renesas/synergy/e2studio_v2022-10_ssp_v2.4.0/toolchains/gcc_arm/gcc-arm-none-eabi-10.3-2021.10/bin/../lib/gcc/arm-none-eabi/10.3.1/../../../../arm-none-eabi/lib/thumb/v7e-m+fp/hard\libg_nano.a(lib_a-errno.o)
 .data          0x00000000        0x0 c:/renesas/synergy/e2studio_v2022-10_ssp_v2.4.0/toolchains/gcc_arm/gcc-arm-none-eabi-10.3-2021.10/bin/../lib/gcc/arm-none-eabi/10.3.1/../../../../arm-none-eabi/lib/thumb/v7e-m+fp/hard\libg_nano.a(lib_a-errno.o)
 .bss           0x00000000        0x0 c:/renesas/synergy/e2studio_v2022-10_ssp_v2.4.0/toolchains/gcc_arm/gcc-arm-none-eabi-10.3-2021.10/bin/../lib/gcc/arm-none-eabi/10.3.1/../../../../arm-none-eabi/lib/thumb/v7e-m+fp/hard\libg_nano.a(lib_a-errno.o)
 .text          0x00000000        0x0 c:/renesas/synergy/e2studio_v2022-10_ssp_v2.4.0/toolchains/gcc_arm/gcc-arm-none-eabi-10.3-2021.10/bin/../lib/gcc/arm-none-eabi/10.3.1/../../../../arm-none-eabi/lib/thumb/v7e-m+fp/hard\libg_nano.a(lib_a-exit.o)
 .data          0x00000000        0x0 c:/renesas/synergy/e2studio_v2022-10_ssp_v2.4.0/toolchains/gcc_arm/gcc-arm-none-eabi-10.3-2021.10/bin/../lib/gcc/arm-none-eabi/10.3.1/../../../../arm-none-eabi/lib/thumb/v7e-m+fp/hard\libg_nano.a(lib_a-exit.o)
 .bss           0x00000000        0x0 c:/renesas/synergy/e2studio_v2022-10_ssp_v2.4.0/toolchains/gcc_arm/gcc-arm-none-eabi-10.3-2021.10/bin/../lib/gcc/arm-none-eabi/10.3.1/../../../../arm-none-eabi/lib/thumb/v7e-m+fp/hard\libg_nano.a(lib_a-exit.o)
 .text.exit     0x00000000       0x28 c:/renesas/synergy/e2studio_v2022-10_ssp_v2.4.0/toolchains/gcc_arm/gcc-arm-none-eabi-10.3-2021.10/bin/../lib/gcc/arm-none-eabi/10.3.1/../../../../arm-none-eabi/lib/thumb/v7e-m+fp/hard\libg_nano.a(lib_a-exit.o)
 .debug_frame   0x00000000       0x28 c:/renesas/synergy/e2studio_v2022-10_ssp_v2.4.0/toolchains/gcc_arm/gcc-arm-none-eabi-10.3-2021.10/bin/../lib/gcc/arm-none-eabi/10.3.1/../../../../arm-none-eabi/lib/thumb/v7e-m+fp/hard\libg_nano.a(lib_a-exit.o)
 .ARM.attributes
                0x00000000       0x34 c:/renesas/synergy/e2studio_v2022-10_ssp_v2.4.0/toolchains/gcc_arm/gcc-arm-none-eabi-10.3-2021.10/bin/../lib/gcc/arm-none-eabi/10.3.1/../../../../arm-none-eabi/lib/thumb/v7e-m+fp/hard\libg_nano.a(lib_a-exit.o)
 .text          0x00000000        0x0 c:/renesas/synergy/e2studio_v2022-10_ssp_v2.4.0/toolchains/gcc_arm/gcc-arm-none-eabi-10.3-2021.10/bin/../lib/gcc/arm-none-eabi/10.3.1/../../../../arm-none-eabi/lib/thumb/v7e-m+fp/hard\libg_nano.a(lib_a-impure.o)
 .data          0x00000000        0x0 c:/renesas/synergy/e2studio_v2022-10_ssp_v2.4.0/toolchains/gcc_arm/gcc-arm-none-eabi-10.3-2021.10/bin/../lib/gcc/arm-none-eabi/10.3.1/../../../../arm-none-eabi/lib/thumb/v7e-m+fp/hard\libg_nano.a(lib_a-impure.o)
 .bss           0x00000000        0x0 c:/renesas/synergy/e2studio_v2022-10_ssp_v2.4.0/toolchains/gcc_arm/gcc-arm-none-eabi-10.3-2021.10/bin/../lib/gcc/arm-none-eabi/10.3.1/../../../../arm-none-eabi/lib/thumb/v7e-m+fp/hard\libg_nano.a(lib_a-impure.o)
 .text          0x00000000        0x0 c:/renesas/synergy/e2studio_v2022-10_ssp_v2.4.0/toolchains/gcc_arm/gcc-arm-none-eabi-10.3-2021.10/bin/../lib/gcc/arm-none-eabi/10.3.1/../../../../arm-none-eabi/lib/thumb/v7e-m+fp/hard\libg_nano.a(lib_a-init.o)
 .data          0x00000000        0x0 c:/renesas/synergy/e2studio_v2022-10_ssp_v2.4.0/toolchains/gcc_arm/gcc-arm-none-eabi-10.3-2021.10/bin/../lib/gcc/arm-none-eabi/10.3.1/../../../../arm-none-eabi/lib/thumb/v7e-m+fp/hard\libg_nano.a(lib_a-init.o)
 .bss           0x00000000        0x0 c:/renesas/synergy/e2studio_v2022-10_ssp_v2.4.0/toolchains/gcc_arm/gcc-arm-none-eabi-10.3-2021.10/bin/../lib/gcc/arm-none-eabi/10.3.1/../../../../arm-none-eabi/lib/thumb/v7e-m+fp/hard\libg_nano.a(lib_a-init.o)
 .text.__libc_init_array
                0x00000000       0x48 c:/renesas/synergy/e2studio_v2022-10_ssp_v2.4.0/toolchains/gcc_arm/gcc-arm-none-eabi-10.3-2021.10/bin/../lib/gcc/arm-none-eabi/10.3.1/../../../../arm-none-eabi/lib/thumb/v7e-m+fp/hard\libg_nano.a(lib_a-init.o)
 .debug_frame   0x00000000       0x2c c:/renesas/synergy/e2studio_v2022-10_ssp_v2.4.0/toolchains/gcc_arm/gcc-arm-none-eabi-10.3-2021.10/bin/../lib/gcc/arm-none-eabi/10.3.1/../../../../arm-none-eabi/lib/thumb/v7e-m+fp/hard\libg_nano.a(lib_a-init.o)
 .ARM.attributes
                0x00000000       0x34 c:/renesas/synergy/e2studio_v2022-10_ssp_v2.4.0/toolchains/gcc_arm/gcc-arm-none-eabi-10.3-2021.10/bin/../lib/gcc/arm-none-eabi/10.3.1/../../../../arm-none-eabi/lib/thumb/v7e-m+fp/hard\libg_nano.a(lib_a-init.o)
 .text          0x00000000        0x0 c:/renesas/synergy/e2studio_v2022-10_ssp_v2.4.0/toolchains/gcc_arm/gcc-arm-none-eabi-10.3-2021.10/bin/../lib/gcc/arm-none-eabi/10.3.1/../../../../arm-none-eabi/lib/thumb/v7e-m+fp/hard\libg_nano.a(lib_a-memcpy-stub.o)
 .data          0x00000000        0x0 c:/renesas/synergy/e2studio_v2022-10_ssp_v2.4.0/toolchains/gcc_arm/gcc-arm-none-eabi-10.3-2021.10/bin/../lib/gcc/arm-none-eabi/10.3.1/../../../../arm-none-eabi/lib/thumb/v7e-m+fp/hard\libg_nano.a(lib_a-memcpy-stub.o)
 .bss           0x00000000        0x0 c:/renesas/synergy/e2studio_v2022-10_ssp_v2.4.0/toolchains/gcc_arm/gcc-arm-none-eabi-10.3-2021.10/bin/../lib/gcc/arm-none-eabi/10.3.1/../../../../arm-none-eabi/lib/thumb/v7e-m+fp/hard\libg_nano.a(lib_a-memcpy-stub.o)
 .text          0x00000000        0x0 c:/renesas/synergy/e2studio_v2022-10_ssp_v2.4.0/toolchains/gcc_arm/gcc-arm-none-eabi-10.3-2021.10/bin/../lib/gcc/arm-none-eabi/10.3.1/../../../../arm-none-eabi/lib/thumb/v7e-m+fp/hard\libg_nano.a(lib_a-memset.o)
 .data          0x00000000        0x0 c:/renesas/synergy/e2studio_v2022-10_ssp_v2.4.0/toolchains/gcc_arm/gcc-arm-none-eabi-10.3-2021.10/bin/../lib/gcc/arm-none-eabi/10.3.1/../../../../arm-none-eabi/lib/thumb/v7e-m+fp/hard\libg_nano.a(lib_a-memset.o)
 .bss           0x00000000        0x0 c:/renesas/synergy/e2studio_v2022-10_ssp_v2.4.0/toolchains/gcc_arm/gcc-arm-none-eabi-10.3-2021.10/bin/../lib/gcc/arm-none-eabi/10.3.1/../../../../arm-none-eabi/lib/thumb/v7e-m+fp/hard\libg_nano.a(lib_a-memset.o)
 .text          0x00000000        0x0 c:/renesas/synergy/e2studio_v2022-10_ssp_v2.4.0/toolchains/gcc_arm/gcc-arm-none-eabi-10.3-2021.10/bin/../lib/gcc/arm-none-eabi/10.3.1/../../../../arm-none-eabi/lib/thumb/v7e-m+fp/hard\libg_nano.a(lib_a-rand.o)
 .data          0x00000000        0x0 c:/renesas/synergy/e2studio_v2022-10_ssp_v2.4.0/toolchains/gcc_arm/gcc-arm-none-eabi-10.3-2021.10/bin/../lib/gcc/arm-none-eabi/10.3.1/../../../../arm-none-eabi/lib/thumb/v7e-m+fp/hard\libg_nano.a(lib_a-rand.o)
 .bss           0x00000000        0x0 c:/renesas/synergy/e2studio_v2022-10_ssp_v2.4.0/toolchains/gcc_arm/gcc-arm-none-eabi-10.3-2021.10/bin/../lib/gcc/arm-none-eabi/10.3.1/../../../../arm-none-eabi/lib/thumb/v7e-m+fp/hard\libg_nano.a(lib_a-rand.o)
 .text.rand     0x00000000       0x7c c:/renesas/synergy/e2studio_v2022-10_ssp_v2.4.0/toolchains/gcc_arm/gcc-arm-none-eabi-10.3-2021.10/bin/../lib/gcc/arm-none-eabi/10.3.1/../../../../arm-none-eabi/lib/thumb/v7e-m+fp/hard\libg_nano.a(lib_a-rand.o)
 .text          0x00000000        0x0 c:/renesas/synergy/e2studio_v2022-10_ssp_v2.4.0/toolchains/gcc_arm/gcc-arm-none-eabi-10.3-2021.10/bin/../lib/gcc/arm-none-eabi/10.3.1/../../../../arm-none-eabi/lib/thumb/v7e-m+fp/hard\libg_nano.a(lib_a-assert.o)
 .data          0x00000000        0x0 c:/renesas/synergy/e2studio_v2022-10_ssp_v2.4.0/toolchains/gcc_arm/gcc-arm-none-eabi-10.3-2021.10/bin/../lib/gcc/arm-none-eabi/10.3.1/../../../../arm-none-eabi/lib/thumb/v7e-m+fp/hard\libg_nano.a(lib_a-assert.o)
 .bss           0x00000000        0x0 c:/renesas/synergy/e2studio_v2022-10_ssp_v2.4.0/toolchains/gcc_arm/gcc-arm-none-eabi-10.3-2021.10/bin/../lib/gcc/arm-none-eabi/10.3.1/../../../../arm-none-eabi/lib/thumb/v7e-m+fp/hard\libg_nano.a(lib_a-assert.o)
 .text.__assert
                0x00000000        0xa c:/renesas/synergy/e2studio_v2022-10_ssp_v2.4.0/toolchains/gcc_arm/gcc-arm-none-eabi-10.3-2021.10/bin/../lib/gcc/arm-none-eabi/10.3.1/../../../../arm-none-eabi/lib/thumb/v7e-m+fp/hard\libg_nano.a(lib_a-assert.o)
 .text          0x00000000        0x0 c:/renesas/synergy/e2studio_v2022-10_ssp_v2.4.0/toolchains/gcc_arm/gcc-arm-none-eabi-10.3-2021.10/bin/../lib/gcc/arm-none-eabi/10.3.1/../../../../arm-none-eabi/lib/thumb/v7e-m+fp/hard\libg_nano.a(lib_a-fprintf.o)
 .data          0x00000000        0x0 c:/renesas/synergy/e2studio_v2022-10_ssp_v2.4.0/toolchains/gcc_arm/gcc-arm-none-eabi-10.3-2021.10/bin/../lib/gcc/arm-none-eabi/10.3.1/../../../../arm-none-eabi/lib/thumb/v7e-m+fp/hard\libg_nano.a(lib_a-fprintf.o)
 .bss           0x00000000        0x0 c:/renesas/synergy/e2studio_v2022-10_ssp_v2.4.0/toolchains/gcc_arm/gcc-arm-none-eabi-10.3-2021.10/bin/../lib/gcc/arm-none-eabi/10.3.1/../../../../arm-none-eabi/lib/thumb/v7e-m+fp/hard\libg_nano.a(lib_a-fprintf.o)
 .text._fprintf_r
                0x00000000       0x1a c:/renesas/synergy/e2studio_v2022-10_ssp_v2.4.0/toolchains/gcc_arm/gcc-arm-none-eabi-10.3-2021.10/bin/../lib/gcc/arm-none-eabi/10.3.1/../../../../arm-none-eabi/lib/thumb/v7e-m+fp/hard\libg_nano.a(lib_a-fprintf.o)
 .text          0x00000000        0x0 c:/renesas/synergy/e2studio_v2022-10_ssp_v2.4.0/toolchains/gcc_arm/gcc-arm-none-eabi-10.3-2021.10/bin/../lib/gcc/arm-none-eabi/10.3.1/../../../../arm-none-eabi/lib/thumb/v7e-m+fp/hard\libg_nano.a(lib_a-malloc.o)
 .data          0x00000000        0x0 c:/renesas/synergy/e2studio_v2022-10_ssp_v2.4.0/toolchains/gcc_arm/gcc-arm-none-eabi-10.3-2021.10/bin/../lib/gcc/arm-none-eabi/10.3.1/../../../../arm-none-eabi/lib/thumb/v7e-m+fp/hard\libg_nano.a(lib_a-malloc.o)
 .bss           0x00000000        0x0 c:/renesas/synergy/e2studio_v2022-10_ssp_v2.4.0/toolchains/gcc_arm/gcc-arm-none-eabi-10.3-2021.10/bin/../lib/gcc/arm-none-eabi/10.3.1/../../../../arm-none-eabi/lib/thumb/v7e-m+fp/hard\libg_nano.a(lib_a-malloc.o)
 .text.free     0x00000000       0x10 c:/renesas/synergy/e2studio_v2022-10_ssp_v2.4.0/toolchains/gcc_arm/gcc-arm-none-eabi-10.3-2021.10/bin/../lib/gcc/arm-none-eabi/10.3.1/../../../../arm-none-eabi/lib/thumb/v7e-m+fp/hard\libg_nano.a(lib_a-malloc.o)
 .text          0x00000000        0x0 c:/renesas/synergy/e2studio_v2022-10_ssp_v2.4.0/toolchains/gcc_arm/gcc-arm-none-eabi-10.3-2021.10/bin/../lib/gcc/arm-none-eabi/10.3.1/../../../../arm-none-eabi/lib/thumb/v7e-m+fp/hard\libg_nano.a(lib_a-nano-freer.o)
 .data          0x00000000        0x0 c:/renesas/synergy/e2studio_v2022-10_ssp_v2.4.0/toolchains/gcc_arm/gcc-arm-none-eabi-10.3-2021.10/bin/../lib/gcc/arm-none-eabi/10.3.1/../../../../arm-none-eabi/lib/thumb/v7e-m+fp/hard\libg_nano.a(lib_a-nano-freer.o)
 .bss           0x00000000        0x0 c:/renesas/synergy/e2studio_v2022-10_ssp_v2.4.0/toolchains/gcc_arm/gcc-arm-none-eabi-10.3-2021.10/bin/../lib/gcc/arm-none-eabi/10.3.1/../../../../arm-none-eabi/lib/thumb/v7e-m+fp/hard\libg_nano.a(lib_a-nano-freer.o)
 .text          0x00000000        0x0 c:/renesas/synergy/e2studio_v2022-10_ssp_v2.4.0/toolchains/gcc_arm/gcc-arm-none-eabi-10.3-2021.10/bin/../lib/gcc/arm-none-eabi/10.3.1/../../../../arm-none-eabi/lib/thumb/v7e-m+fp/hard\libg_nano.a(lib_a-nano-mallocr.o)
 .data          0x00000000        0x0 c:/renesas/synergy/e2studio_v2022-10_ssp_v2.4.0/toolchains/gcc_arm/gcc-arm-none-eabi-10.3-2021.10/bin/../lib/gcc/arm-none-eabi/10.3.1/../../../../arm-none-eabi/lib/thumb/v7e-m+fp/hard\libg_nano.a(lib_a-nano-mallocr.o)
 .bss           0x00000000        0x0 c:/renesas/synergy/e2studio_v2022-10_ssp_v2.4.0/toolchains/gcc_arm/gcc-arm-none-eabi-10.3-2021.10/bin/../lib/gcc/arm-none-eabi/10.3.1/../../../../arm-none-eabi/lib/thumb/v7e-m+fp/hard\libg_nano.a(lib_a-nano-mallocr.o)
 .text          0x00000000        0x0 c:/renesas/synergy/e2studio_v2022-10_ssp_v2.4.0/toolchains/gcc_arm/gcc-arm-none-eabi-10.3-2021.10/bin/../lib/gcc/arm-none-eabi/10.3.1/../../../../arm-none-eabi/lib/thumb/v7e-m+fp/hard\libg_nano.a(lib_a-nano-vfprintf.o)
 .data          0x00000000        0x0 c:/renesas/synergy/e2studio_v2022-10_ssp_v2.4.0/toolchains/gcc_arm/gcc-arm-none-eabi-10.3-2021.10/bin/../lib/gcc/arm-none-eabi/10.3.1/../../../../arm-none-eabi/lib/thumb/v7e-m+fp/hard\libg_nano.a(lib_a-nano-vfprintf.o)
 .bss           0x00000000        0x0 c:/renesas/synergy/e2studio_v2022-10_ssp_v2.4.0/toolchains/gcc_arm/gcc-arm-none-eabi-10.3-2021.10/bin/../lib/gcc/arm-none-eabi/10.3.1/../../../../arm-none-eabi/lib/thumb/v7e-m+fp/hard\libg_nano.a(lib_a-nano-vfprintf.o)
 .text.__sprint_r
                0x00000000       0x1a c:/renesas/synergy/e2studio_v2022-10_ssp_v2.4.0/toolchains/gcc_arm/gcc-arm-none-eabi-10.3-2021.10/bin/../lib/gcc/arm-none-eabi/10.3.1/../../../../arm-none-eabi/lib/thumb/v7e-m+fp/hard\libg_nano.a(lib_a-nano-vfprintf.o)
 .text.vfprintf
                0x00000000       0x14 c:/renesas/synergy/e2studio_v2022-10_ssp_v2.4.0/toolchains/gcc_arm/gcc-arm-none-eabi-10.3-2021.10/bin/../lib/gcc/arm-none-eabi/10.3.1/../../../../arm-none-eabi/lib/thumb/v7e-m+fp/hard\libg_nano.a(lib_a-nano-vfprintf.o)
 .text          0x00000000        0x0 c:/renesas/synergy/e2studio_v2022-10_ssp_v2.4.0/toolchains/gcc_arm/gcc-arm-none-eabi-10.3-2021.10/bin/../lib/gcc/arm-none-eabi/10.3.1/../../../../arm-none-eabi/lib/thumb/v7e-m+fp/hard\libg_nano.a(lib_a-nano-vfprintf_i.o)
 .data          0x00000000        0x0 c:/renesas/synergy/e2studio_v2022-10_ssp_v2.4.0/toolchains/gcc_arm/gcc-arm-none-eabi-10.3-2021.10/bin/../lib/gcc/arm-none-eabi/10.3.1/../../../../arm-none-eabi/lib/thumb/v7e-m+fp/hard\libg_nano.a(lib_a-nano-vfprintf_i.o)
 .bss           0x00000000        0x0 c:/renesas/synergy/e2studio_v2022-10_ssp_v2.4.0/toolchains/gcc_arm/gcc-arm-none-eabi-10.3-2021.10/bin/../lib/gcc/arm-none-eabi/10.3.1/../../../../arm-none-eabi/lib/thumb/v7e-m+fp/hard\libg_nano.a(lib_a-nano-vfprintf_i.o)
 .text          0x00000000        0x0 c:/renesas/synergy/e2studio_v2022-10_ssp_v2.4.0/toolchains/gcc_arm/gcc-arm-none-eabi-10.3-2021.10/bin/../lib/gcc/arm-none-eabi/10.3.1/../../../../arm-none-eabi/lib/thumb/v7e-m+fp/hard\libg_nano.a(lib_a-sbrkr.o)
 .data          0x00000000        0x0 c:/renesas/synergy/e2studio_v2022-10_ssp_v2.4.0/toolchains/gcc_arm/gcc-arm-none-eabi-10.3-2021.10/bin/../lib/gcc/arm-none-eabi/10.3.1/../../../../arm-none-eabi/lib/thumb/v7e-m+fp/hard\libg_nano.a(lib_a-sbrkr.o)
 .bss           0x00000000        0x0 c:/renesas/synergy/e2studio_v2022-10_ssp_v2.4.0/toolchains/gcc_arm/gcc-arm-none-eabi-10.3-2021.10/bin/../lib/gcc/arm-none-eabi/10.3.1/../../../../arm-none-eabi/lib/thumb/v7e-m+fp/hard\libg_nano.a(lib_a-sbrkr.o)
 .text          0x00000000        0x0 c:/renesas/synergy/e2studio_v2022-10_ssp_v2.4.0/toolchains/gcc_arm/gcc-arm-none-eabi-10.3-2021.10/bin/../lib/gcc/arm-none-eabi/10.3.1/../../../../arm-none-eabi/lib/thumb/v7e-m+fp/hard\libg_nano.a(lib_a-wbuf.o)
 .data          0x00000000        0x0 c:/renesas/synergy/e2studio_v2022-10_ssp_v2.4.0/toolchains/gcc_arm/gcc-arm-none-eabi-10.3-2021.10/bin/../lib/gcc/arm-none-eabi/10.3.1/../../../../arm-none-eabi/lib/thumb/v7e-m+fp/hard\libg_nano.a(lib_a-wbuf.o)
 .bss           0x00000000        0x0 c:/renesas/synergy/e2studio_v2022-10_ssp_v2.4.0/toolchains/gcc_arm/gcc-arm-none-eabi-10.3-2021.10/bin/../lib/gcc/arm-none-eabi/10.3.1/../../../../arm-none-eabi/lib/thumb/v7e-m+fp/hard\libg_nano.a(lib_a-wbuf.o)
 .text.__swbuf  0x00000000       0x10 c:/renesas/synergy/e2studio_v2022-10_ssp_v2.4.0/toolchains/gcc_arm/gcc-arm-none-eabi-10.3-2021.10/bin/../lib/gcc/arm-none-eabi/10.3.1/../../../../arm-none-eabi/lib/thumb/v7e-m+fp/hard\libg_nano.a(lib_a-wbuf.o)
 .text          0x00000000        0x0 c:/renesas/synergy/e2studio_v2022-10_ssp_v2.4.0/toolchains/gcc_arm/gcc-arm-none-eabi-10.3-2021.10/bin/../lib/gcc/arm-none-eabi/10.3.1/../../../../arm-none-eabi/lib/thumb/v7e-m+fp/hard\libg_nano.a(lib_a-wsetup.o)
 .data          0x00000000        0x0 c:/renesas/synergy/e2studio_v2022-10_ssp_v2.4.0/toolchains/gcc_arm/gcc-arm-none-eabi-10.3-2021.10/bin/../lib/gcc/arm-none-eabi/10.3.1/../../../../arm-none-eabi/lib/thumb/v7e-m+fp/hard\libg_nano.a(lib_a-wsetup.o)
 .bss           0x00000000        0x0 c:/renesas/synergy/e2studio_v2022-10_ssp_v2.4.0/toolchains/gcc_arm/gcc-arm-none-eabi-10.3-2021.10/bin/../lib/gcc/arm-none-eabi/10.3.1/../../../../arm-none-eabi/lib/thumb/v7e-m+fp/hard\libg_nano.a(lib_a-wsetup.o)
 .text          0x00000000        0x0 c:/renesas/synergy/e2studio_v2022-10_ssp_v2.4.0/toolchains/gcc_arm/gcc-arm-none-eabi-10.3-2021.10/bin/../lib/gcc/arm-none-eabi/10.3.1/../../../../arm-none-eabi/lib/thumb/v7e-m+fp/hard\libg_nano.a(lib_a-abort.o)
 .data          0x00000000        0x0 c:/renesas/synergy/e2studio_v2022-10_ssp_v2.4.0/toolchains/gcc_arm/gcc-arm-none-eabi-10.3-2021.10/bin/../lib/gcc/arm-none-eabi/10.3.1/../../../../arm-none-eabi/lib/thumb/v7e-m+fp/hard\libg_nano.a(lib_a-abort.o)
 .bss           0x00000000        0x0 c:/renesas/synergy/e2studio_v2022-10_ssp_v2.4.0/toolchains/gcc_arm/gcc-arm-none-eabi-10.3-2021.10/bin/../lib/gcc/arm-none-eabi/10.3.1/../../../../arm-none-eabi/lib/thumb/v7e-m+fp/hard\libg_nano.a(lib_a-abort.o)
 .text          0x00000000        0x0 c:/renesas/synergy/e2studio_v2022-10_ssp_v2.4.0/toolchains/gcc_arm/gcc-arm-none-eabi-10.3-2021.10/bin/../lib/gcc/arm-none-eabi/10.3.1/../../../../arm-none-eabi/lib/thumb/v7e-m+fp/hard\libg_nano.a(lib_a-fflush.o)
 .data          0x00000000        0x0 c:/renesas/synergy/e2studio_v2022-10_ssp_v2.4.0/toolchains/gcc_arm/gcc-arm-none-eabi-10.3-2021.10/bin/../lib/gcc/arm-none-eabi/10.3.1/../../../../arm-none-eabi/lib/thumb/v7e-m+fp/hard\libg_nano.a(lib_a-fflush.o)
 .bss           0x00000000        0x0 c:/renesas/synergy/e2studio_v2022-10_ssp_v2.4.0/toolchains/gcc_arm/gcc-arm-none-eabi-10.3-2021.10/bin/../lib/gcc/arm-none-eabi/10.3.1/../../../../arm-none-eabi/lib/thumb/v7e-m+fp/hard\libg_nano.a(lib_a-fflush.o)
 .text.fflush   0x00000000       0x24 c:/renesas/synergy/e2studio_v2022-10_ssp_v2.4.0/toolchains/gcc_arm/gcc-arm-none-eabi-10.3-2021.10/bin/../lib/gcc/arm-none-eabi/10.3.1/../../../../arm-none-eabi/lib/thumb/v7e-m+fp/hard\libg_nano.a(lib_a-fflush.o)
 .text          0x00000000        0x0 c:/renesas/synergy/e2studio_v2022-10_ssp_v2.4.0/toolchains/gcc_arm/gcc-arm-none-eabi-10.3-2021.10/bin/../lib/gcc/arm-none-eabi/10.3.1/../../../../arm-none-eabi/lib/thumb/v7e-m+fp/hard\libg_nano.a(lib_a-findfp.o)
 .data          0x00000000        0x0 c:/renesas/synergy/e2studio_v2022-10_ssp_v2.4.0/toolchains/gcc_arm/gcc-arm-none-eabi-10.3-2021.10/bin/../lib/gcc/arm-none-eabi/10.3.1/../../../../arm-none-eabi/lib/thumb/v7e-m+fp/hard\libg_nano.a(lib_a-findfp.o)
 .bss           0x00000000        0x0 c:/renesas/synergy/e2studio_v2022-10_ssp_v2.4.0/toolchains/gcc_arm/gcc-arm-none-eabi-10.3-2021.10/bin/../lib/gcc/arm-none-eabi/10.3.1/../../../../arm-none-eabi/lib/thumb/v7e-m+fp/hard\libg_nano.a(lib_a-findfp.o)
 .text.__fp_lock
                0x00000000       0x18 c:/renesas/synergy/e2studio_v2022-10_ssp_v2.4.0/toolchains/gcc_arm/gcc-arm-none-eabi-10.3-2021.10/bin/../lib/gcc/arm-none-eabi/10.3.1/../../../../arm-none-eabi/lib/thumb/v7e-m+fp/hard\libg_nano.a(lib_a-findfp.o)
 .text.__fp_unlock
                0x00000000       0x18 c:/renesas/synergy/e2studio_v2022-10_ssp_v2.4.0/toolchains/gcc_arm/gcc-arm-none-eabi-10.3-2021.10/bin/../lib/gcc/arm-none-eabi/10.3.1/../../../../arm-none-eabi/lib/thumb/v7e-m+fp/hard\libg_nano.a(lib_a-findfp.o)
 .text._cleanup
                0x00000000        0xc c:/renesas/synergy/e2studio_v2022-10_ssp_v2.4.0/toolchains/gcc_arm/gcc-arm-none-eabi-10.3-2021.10/bin/../lib/gcc/arm-none-eabi/10.3.1/../../../../arm-none-eabi/lib/thumb/v7e-m+fp/hard\libg_nano.a(lib_a-findfp.o)
 .text.__fp_lock_all
                0x00000000       0x1c c:/renesas/synergy/e2studio_v2022-10_ssp_v2.4.0/toolchains/gcc_arm/gcc-arm-none-eabi-10.3-2021.10/bin/../lib/gcc/arm-none-eabi/10.3.1/../../../../arm-none-eabi/lib/thumb/v7e-m+fp/hard\libg_nano.a(lib_a-findfp.o)
 .text.__fp_unlock_all
                0x00000000       0x1c c:/renesas/synergy/e2studio_v2022-10_ssp_v2.4.0/toolchains/gcc_arm/gcc-arm-none-eabi-10.3-2021.10/bin/../lib/gcc/arm-none-eabi/10.3.1/../../../../arm-none-eabi/lib/thumb/v7e-m+fp/hard\libg_nano.a(lib_a-findfp.o)
 .text          0x00000000        0x0 c:/renesas/synergy/e2studio_v2022-10_ssp_v2.4.0/toolchains/gcc_arm/gcc-arm-none-eabi-10.3-2021.10/bin/../lib/gcc/arm-none-eabi/10.3.1/../../../../arm-none-eabi/lib/thumb/v7e-m+fp/hard\libg_nano.a(lib_a-fvwrite.o)
 .data          0x00000000        0x0 c:/renesas/synergy/e2studio_v2022-10_ssp_v2.4.0/toolchains/gcc_arm/gcc-arm-none-eabi-10.3-2021.10/bin/../lib/gcc/arm-none-eabi/10.3.1/../../../../arm-none-eabi/lib/thumb/v7e-m+fp/hard\libg_nano.a(lib_a-fvwrite.o)
 .bss           0x00000000        0x0 c:/renesas/synergy/e2studio_v2022-10_ssp_v2.4.0/toolchains/gcc_arm/gcc-arm-none-eabi-10.3-2021.10/bin/../lib/gcc/arm-none-eabi/10.3.1/../../../../arm-none-eabi/lib/thumb/v7e-m+fp/hard\libg_nano.a(lib_a-fvwrite.o)
 .text.__sfvwrite_r
                0x00000000      0x294 c:/renesas/synergy/e2studio_v2022-10_ssp_v2.4.0/toolchains/gcc_arm/gcc-arm-none-eabi-10.3-2021.10/bin/../lib/gcc/arm-none-eabi/10.3.1/../../../../arm-none-eabi/lib/thumb/v7e-m+fp/hard\libg_nano.a(lib_a-fvwrite.o)
 .debug_frame   0x00000000       0x3c c:/renesas/synergy/e2studio_v2022-10_ssp_v2.4.0/toolchains/gcc_arm/gcc-arm-none-eabi-10.3-2021.10/bin/../lib/gcc/arm-none-eabi/10.3.1/../../../../arm-none-eabi/lib/thumb/v7e-m+fp/hard\libg_nano.a(lib_a-fvwrite.o)
 .ARM.attributes
                0x00000000       0x34 c:/renesas/synergy/e2studio_v2022-10_ssp_v2.4.0/toolchains/gcc_arm/gcc-arm-none-eabi-10.3-2021.10/bin/../lib/gcc/arm-none-eabi/10.3.1/../../../../arm-none-eabi/lib/thumb/v7e-m+fp/hard\libg_nano.a(lib_a-fvwrite.o)
 .text          0x00000000        0x0 c:/renesas/synergy/e2studio_v2022-10_ssp_v2.4.0/toolchains/gcc_arm/gcc-arm-none-eabi-10.3-2021.10/bin/../lib/gcc/arm-none-eabi/10.3.1/../../../../arm-none-eabi/lib/thumb/v7e-m+fp/hard\libg_nano.a(lib_a-fwalk.o)
 .data          0x00000000        0x0 c:/renesas/synergy/e2studio_v2022-10_ssp_v2.4.0/toolchains/gcc_arm/gcc-arm-none-eabi-10.3-2021.10/bin/../lib/gcc/arm-none-eabi/10.3.1/../../../../arm-none-eabi/lib/thumb/v7e-m+fp/hard\libg_nano.a(lib_a-fwalk.o)
 .bss           0x00000000        0x0 c:/renesas/synergy/e2studio_v2022-10_ssp_v2.4.0/toolchains/gcc_arm/gcc-arm-none-eabi-10.3-2021.10/bin/../lib/gcc/arm-none-eabi/10.3.1/../../../../arm-none-eabi/lib/thumb/v7e-m+fp/hard\libg_nano.a(lib_a-fwalk.o)
 .text._fwalk   0x00000000       0x3a c:/renesas/synergy/e2studio_v2022-10_ssp_v2.4.0/toolchains/gcc_arm/gcc-arm-none-eabi-10.3-2021.10/bin/../lib/gcc/arm-none-eabi/10.3.1/../../../../arm-none-eabi/lib/thumb/v7e-m+fp/hard\libg_nano.a(lib_a-fwalk.o)
 .text          0x00000000        0x0 c:/renesas/synergy/e2studio_v2022-10_ssp_v2.4.0/toolchains/gcc_arm/gcc-arm-none-eabi-10.3-2021.10/bin/../lib/gcc/arm-none-eabi/10.3.1/../../../../arm-none-eabi/lib/thumb/v7e-m+fp/hard\libg_nano.a(lib_a-lock.o)
 .data          0x00000000        0x0 c:/renesas/synergy/e2studio_v2022-10_ssp_v2.4.0/toolchains/gcc_arm/gcc-arm-none-eabi-10.3-2021.10/bin/../lib/gcc/arm-none-eabi/10.3.1/../../../../arm-none-eabi/lib/thumb/v7e-m+fp/hard\libg_nano.a(lib_a-lock.o)
 .bss           0x00000000        0x0 c:/renesas/synergy/e2studio_v2022-10_ssp_v2.4.0/toolchains/gcc_arm/gcc-arm-none-eabi-10.3-2021.10/bin/../lib/gcc/arm-none-eabi/10.3.1/../../../../arm-none-eabi/lib/thumb/v7e-m+fp/hard\libg_nano.a(lib_a-lock.o)
 .text.__retarget_lock_init
                0x00000000        0x2 c:/renesas/synergy/e2studio_v2022-10_ssp_v2.4.0/toolchains/gcc_arm/gcc-arm-none-eabi-10.3-2021.10/bin/../lib/gcc/arm-none-eabi/10.3.1/../../../../arm-none-eabi/lib/thumb/v7e-m+fp/hard\libg_nano.a(lib_a-lock.o)
 .text.__retarget_lock_close
                0x00000000        0x2 c:/renesas/synergy/e2studio_v2022-10_ssp_v2.4.0/toolchains/gcc_arm/gcc-arm-none-eabi-10.3-2021.10/bin/../lib/gcc/arm-none-eabi/10.3.1/../../../../arm-none-eabi/lib/thumb/v7e-m+fp/hard\libg_nano.a(lib_a-lock.o)
 .text.__retarget_lock_close_recursive
                0x00000000        0x2 c:/renesas/synergy/e2studio_v2022-10_ssp_v2.4.0/toolchains/gcc_arm/gcc-arm-none-eabi-10.3-2021.10/bin/../lib/gcc/arm-none-eabi/10.3.1/../../../../arm-none-eabi/lib/thumb/v7e-m+fp/hard\libg_nano.a(lib_a-lock.o)
 .text.__retarget_lock_acquire
                0x00000000        0x2 c:/renesas/synergy/e2studio_v2022-10_ssp_v2.4.0/toolchains/gcc_arm/gcc-arm-none-eabi-10.3-2021.10/bin/../lib/gcc/arm-none-eabi/10.3.1/../../../../arm-none-eabi/lib/thumb/v7e-m+fp/hard\libg_nano.a(lib_a-lock.o)
 .text.__retarget_lock_try_acquire
                0x00000000        0x4 c:/renesas/synergy/e2studio_v2022-10_ssp_v2.4.0/toolchains/gcc_arm/gcc-arm-none-eabi-10.3-2021.10/bin/../lib/gcc/arm-none-eabi/10.3.1/../../../../arm-none-eabi/lib/thumb/v7e-m+fp/hard\libg_nano.a(lib_a-lock.o)
 .text.__retarget_lock_try_acquire_recursive
                0x00000000        0x4 c:/renesas/synergy/e2studio_v2022-10_ssp_v2.4.0/toolchains/gcc_arm/gcc-arm-none-eabi-10.3-2021.10/bin/../lib/gcc/arm-none-eabi/10.3.1/../../../../arm-none-eabi/lib/thumb/v7e-m+fp/hard\libg_nano.a(lib_a-lock.o)
 .text.__retarget_lock_release
                0x00000000        0x2 c:/renesas/synergy/e2studio_v2022-10_ssp_v2.4.0/toolchains/gcc_arm/gcc-arm-none-eabi-10.3-2021.10/bin/../lib/gcc/arm-none-eabi/10.3.1/../../../../arm-none-eabi/lib/thumb/v7e-m+fp/hard\libg_nano.a(lib_a-lock.o)
 .bss.__lock___arc4random_mutex
                0x00000000        0x1 c:/renesas/synergy/e2studio_v2022-10_ssp_v2.4.0/toolchains/gcc_arm/gcc-arm-none-eabi-10.3-2021.10/bin/../lib/gcc/arm-none-eabi/10.3.1/../../../../arm-none-eabi/lib/thumb/v7e-m+fp/hard\libg_nano.a(lib_a-lock.o)
 .bss.__lock___at_quick_exit_mutex
                0x00000000        0x1 c:/renesas/synergy/e2studio_v2022-10_ssp_v2.4.0/toolchains/gcc_arm/gcc-arm-none-eabi-10.3-2021.10/bin/../lib/gcc/arm-none-eabi/10.3.1/../../../../arm-none-eabi/lib/thumb/v7e-m+fp/hard\libg_nano.a(lib_a-lock.o)
 .bss.__lock___atexit_recursive_mutex
                0x00000000        0x1 c:/renesas/synergy/e2studio_v2022-10_ssp_v2.4.0/toolchains/gcc_arm/gcc-arm-none-eabi-10.3-2021.10/bin/../lib/gcc/arm-none-eabi/10.3.1/../../../../arm-none-eabi/lib/thumb/v7e-m+fp/hard\libg_nano.a(lib_a-lock.o)
 .bss.__lock___dd_hash_mutex
                0x00000000        0x1 c:/renesas/synergy/e2studio_v2022-10_ssp_v2.4.0/toolchains/gcc_arm/gcc-arm-none-eabi-10.3-2021.10/bin/../lib/gcc/arm-none-eabi/10.3.1/../../../../arm-none-eabi/lib/thumb/v7e-m+fp/hard\libg_nano.a(lib_a-lock.o)
 .bss.__lock___env_recursive_mutex
                0x00000000        0x1 c:/renesas/synergy/e2studio_v2022-10_ssp_v2.4.0/toolchains/gcc_arm/gcc-arm-none-eabi-10.3-2021.10/bin/../lib/gcc/arm-none-eabi/10.3.1/../../../../arm-none-eabi/lib/thumb/v7e-m+fp/hard\libg_nano.a(lib_a-lock.o)
 .bss.__lock___tz_mutex
                0x00000000        0x1 c:/renesas/synergy/e2studio_v2022-10_ssp_v2.4.0/toolchains/gcc_arm/gcc-arm-none-eabi-10.3-2021.10/bin/../lib/gcc/arm-none-eabi/10.3.1/../../../../arm-none-eabi/lib/thumb/v7e-m+fp/hard\libg_nano.a(lib_a-lock.o)
 .text          0x00000000        0x0 c:/renesas/synergy/e2studio_v2022-10_ssp_v2.4.0/toolchains/gcc_arm/gcc-arm-none-eabi-10.3-2021.10/bin/../lib/gcc/arm-none-eabi/10.3.1/../../../../arm-none-eabi/lib/thumb/v7e-m+fp/hard\libg_nano.a(lib_a-makebuf.o)
 .data          0x00000000        0x0 c:/renesas/synergy/e2studio_v2022-10_ssp_v2.4.0/toolchains/gcc_arm/gcc-arm-none-eabi-10.3-2021.10/bin/../lib/gcc/arm-none-eabi/10.3.1/../../../../arm-none-eabi/lib/thumb/v7e-m+fp/hard\libg_nano.a(lib_a-makebuf.o)
 .bss           0x00000000        0x0 c:/renesas/synergy/e2studio_v2022-10_ssp_v2.4.0/toolchains/gcc_arm/gcc-arm-none-eabi-10.3-2021.10/bin/../lib/gcc/arm-none-eabi/10.3.1/../../../../arm-none-eabi/lib/thumb/v7e-m+fp/hard\libg_nano.a(lib_a-makebuf.o)
 .data          0x00000000        0x0 c:/renesas/synergy/e2studio_v2022-10_ssp_v2.4.0/toolchains/gcc_arm/gcc-arm-none-eabi-10.3-2021.10/bin/../lib/gcc/arm-none-eabi/10.3.1/../../../../arm-none-eabi/lib/thumb/v7e-m+fp/hard\libg_nano.a(lib_a-memchr.o)
 .bss           0x00000000        0x0 c:/renesas/synergy/e2studio_v2022-10_ssp_v2.4.0/toolchains/gcc_arm/gcc-arm-none-eabi-10.3-2021.10/bin/../lib/gcc/arm-none-eabi/10.3.1/../../../../arm-none-eabi/lib/thumb/v7e-m+fp/hard\libg_nano.a(lib_a-memchr.o)
 .text          0x00000000        0x0 c:/renesas/synergy/e2studio_v2022-10_ssp_v2.4.0/toolchains/gcc_arm/gcc-arm-none-eabi-10.3-2021.10/bin/../lib/gcc/arm-none-eabi/10.3.1/../../../../arm-none-eabi/lib/thumb/v7e-m+fp/hard\libg_nano.a(lib_a-memmove.o)
 .data          0x00000000        0x0 c:/renesas/synergy/e2studio_v2022-10_ssp_v2.4.0/toolchains/gcc_arm/gcc-arm-none-eabi-10.3-2021.10/bin/../lib/gcc/arm-none-eabi/10.3.1/../../../../arm-none-eabi/lib/thumb/v7e-m+fp/hard\libg_nano.a(lib_a-memmove.o)
 .bss           0x00000000        0x0 c:/renesas/synergy/e2studio_v2022-10_ssp_v2.4.0/toolchains/gcc_arm/gcc-arm-none-eabi-10.3-2021.10/bin/../lib/gcc/arm-none-eabi/10.3.1/../../../../arm-none-eabi/lib/thumb/v7e-m+fp/hard\libg_nano.a(lib_a-memmove.o)
 .text.memmove  0x00000000       0x34 c:/renesas/synergy/e2studio_v2022-10_ssp_v2.4.0/toolchains/gcc_arm/gcc-arm-none-eabi-10.3-2021.10/bin/../lib/gcc/arm-none-eabi/10.3.1/../../../../arm-none-eabi/lib/thumb/v7e-m+fp/hard\libg_nano.a(lib_a-memmove.o)
 .debug_frame   0x00000000       0x28 c:/renesas/synergy/e2studio_v2022-10_ssp_v2.4.0/toolchains/gcc_arm/gcc-arm-none-eabi-10.3-2021.10/bin/../lib/gcc/arm-none-eabi/10.3.1/../../../../arm-none-eabi/lib/thumb/v7e-m+fp/hard\libg_nano.a(lib_a-memmove.o)
 .ARM.attributes
                0x00000000       0x34 c:/renesas/synergy/e2studio_v2022-10_ssp_v2.4.0/toolchains/gcc_arm/gcc-arm-none-eabi-10.3-2021.10/bin/../lib/gcc/arm-none-eabi/10.3.1/../../../../arm-none-eabi/lib/thumb/v7e-m+fp/hard\libg_nano.a(lib_a-memmove.o)
 .text          0x00000000        0x0 c:/renesas/synergy/e2studio_v2022-10_ssp_v2.4.0/toolchains/gcc_arm/gcc-arm-none-eabi-10.3-2021.10/bin/../lib/gcc/arm-none-eabi/10.3.1/../../../../arm-none-eabi/lib/thumb/v7e-m+fp/hard\libg_nano.a(lib_a-mlock.o)
 .data          0x00000000        0x0 c:/renesas/synergy/e2studio_v2022-10_ssp_v2.4.0/toolchains/gcc_arm/gcc-arm-none-eabi-10.3-2021.10/bin/../lib/gcc/arm-none-eabi/10.3.1/../../../../arm-none-eabi/lib/thumb/v7e-m+fp/hard\libg_nano.a(lib_a-mlock.o)
 .bss           0x00000000        0x0 c:/renesas/synergy/e2studio_v2022-10_ssp_v2.4.0/toolchains/gcc_arm/gcc-arm-none-eabi-10.3-2021.10/bin/../lib/gcc/arm-none-eabi/10.3.1/../../../../arm-none-eabi/lib/thumb/v7e-m+fp/hard\libg_nano.a(lib_a-mlock.o)
 .text          0x00000000        0x0 c:/renesas/synergy/e2studio_v2022-10_ssp_v2.4.0/toolchains/gcc_arm/gcc-arm-none-eabi-10.3-2021.10/bin/../lib/gcc/arm-none-eabi/10.3.1/../../../../arm-none-eabi/lib/thumb/v7e-m+fp/hard\libg_nano.a(lib_a-nano-reallocr.o)
 .data          0x00000000        0x0 c:/renesas/synergy/e2studio_v2022-10_ssp_v2.4.0/toolchains/gcc_arm/gcc-arm-none-eabi-10.3-2021.10/bin/../lib/gcc/arm-none-eabi/10.3.1/../../../../arm-none-eabi/lib/thumb/v7e-m+fp/hard\libg_nano.a(lib_a-nano-reallocr.o)
 .bss           0x00000000        0x0 c:/renesas/synergy/e2studio_v2022-10_ssp_v2.4.0/toolchains/gcc_arm/gcc-arm-none-eabi-10.3-2021.10/bin/../lib/gcc/arm-none-eabi/10.3.1/../../../../arm-none-eabi/lib/thumb/v7e-m+fp/hard\libg_nano.a(lib_a-nano-reallocr.o)
 .text._realloc_r
                0x00000000       0x5e c:/renesas/synergy/e2studio_v2022-10_ssp_v2.4.0/toolchains/gcc_arm/gcc-arm-none-eabi-10.3-2021.10/bin/../lib/gcc/arm-none-eabi/10.3.1/../../../../arm-none-eabi/lib/thumb/v7e-m+fp/hard\libg_nano.a(lib_a-nano-reallocr.o)
 .debug_frame   0x00000000       0x3c c:/renesas/synergy/e2studio_v2022-10_ssp_v2.4.0/toolchains/gcc_arm/gcc-arm-none-eabi-10.3-2021.10/bin/../lib/gcc/arm-none-eabi/10.3.1/../../../../arm-none-eabi/lib/thumb/v7e-m+fp/hard\libg_nano.a(lib_a-nano-reallocr.o)
 .ARM.attributes
                0x00000000       0x34 c:/renesas/synergy/e2studio_v2022-10_ssp_v2.4.0/toolchains/gcc_arm/gcc-arm-none-eabi-10.3-2021.10/bin/../lib/gcc/arm-none-eabi/10.3.1/../../../../arm-none-eabi/lib/thumb/v7e-m+fp/hard\libg_nano.a(lib_a-nano-reallocr.o)
 .text          0x00000000        0x0 c:/renesas/synergy/e2studio_v2022-10_ssp_v2.4.0/toolchains/gcc_arm/gcc-arm-none-eabi-10.3-2021.10/bin/../lib/gcc/arm-none-eabi/10.3.1/../../../../arm-none-eabi/lib/thumb/v7e-m+fp/hard\libg_nano.a(lib_a-reent.o)
 .data          0x00000000        0x0 c:/renesas/synergy/e2studio_v2022-10_ssp_v2.4.0/toolchains/gcc_arm/gcc-arm-none-eabi-10.3-2021.10/bin/../lib/gcc/arm-none-eabi/10.3.1/../../../../arm-none-eabi/lib/thumb/v7e-m+fp/hard\libg_nano.a(lib_a-reent.o)
 .bss           0x00000000        0x0 c:/renesas/synergy/e2studio_v2022-10_ssp_v2.4.0/toolchains/gcc_arm/gcc-arm-none-eabi-10.3-2021.10/bin/../lib/gcc/arm-none-eabi/10.3.1/../../../../arm-none-eabi/lib/thumb/v7e-m+fp/hard\libg_nano.a(lib_a-reent.o)
 .text.cleanup_glue
                0x00000000       0x1a c:/renesas/synergy/e2studio_v2022-10_ssp_v2.4.0/toolchains/gcc_arm/gcc-arm-none-eabi-10.3-2021.10/bin/../lib/gcc/arm-none-eabi/10.3.1/../../../../arm-none-eabi/lib/thumb/v7e-m+fp/hard\libg_nano.a(lib_a-reent.o)
 .text._reclaim_reent
                0x00000000       0xb8 c:/renesas/synergy/e2studio_v2022-10_ssp_v2.4.0/toolchains/gcc_arm/gcc-arm-none-eabi-10.3-2021.10/bin/../lib/gcc/arm-none-eabi/10.3.1/../../../../arm-none-eabi/lib/thumb/v7e-m+fp/hard\libg_nano.a(lib_a-reent.o)
 .text          0x00000000        0x0 c:/renesas/synergy/e2studio_v2022-10_ssp_v2.4.0/toolchains/gcc_arm/gcc-arm-none-eabi-10.3-2021.10/bin/../lib/gcc/arm-none-eabi/10.3.1/../../../../arm-none-eabi/lib/thumb/v7e-m+fp/hard\libg_nano.a(lib_a-signal.o)
 .data          0x00000000        0x0 c:/renesas/synergy/e2studio_v2022-10_ssp_v2.4.0/toolchains/gcc_arm/gcc-arm-none-eabi-10.3-2021.10/bin/../lib/gcc/arm-none-eabi/10.3.1/../../../../arm-none-eabi/lib/thumb/v7e-m+fp/hard\libg_nano.a(lib_a-signal.o)
 .bss           0x00000000        0x0 c:/renesas/synergy/e2studio_v2022-10_ssp_v2.4.0/toolchains/gcc_arm/gcc-arm-none-eabi-10.3-2021.10/bin/../lib/gcc/arm-none-eabi/10.3.1/../../../../arm-none-eabi/lib/thumb/v7e-m+fp/hard\libg_nano.a(lib_a-signal.o)
 .text._init_signal_r
                0x00000000       0x28 c:/renesas/synergy/e2studio_v2022-10_ssp_v2.4.0/toolchains/gcc_arm/gcc-arm-none-eabi-10.3-2021.10/bin/../lib/gcc/arm-none-eabi/10.3.1/../../../../arm-none-eabi/lib/thumb/v7e-m+fp/hard\libg_nano.a(lib_a-signal.o)
 .text._signal_r
                0x00000000       0x30 c:/renesas/synergy/e2studio_v2022-10_ssp_v2.4.0/toolchains/gcc_arm/gcc-arm-none-eabi-10.3-2021.10/bin/../lib/gcc/arm-none-eabi/10.3.1/../../../../arm-none-eabi/lib/thumb/v7e-m+fp/hard\libg_nano.a(lib_a-signal.o)
 .text.__sigtramp_r
                0x00000000       0x48 c:/renesas/synergy/e2studio_v2022-10_ssp_v2.4.0/toolchains/gcc_arm/gcc-arm-none-eabi-10.3-2021.10/bin/../lib/gcc/arm-none-eabi/10.3.1/../../../../arm-none-eabi/lib/thumb/v7e-m+fp/hard\libg_nano.a(lib_a-signal.o)
 .text.signal   0x00000000       0x10 c:/renesas/synergy/e2studio_v2022-10_ssp_v2.4.0/toolchains/gcc_arm/gcc-arm-none-eabi-10.3-2021.10/bin/../lib/gcc/arm-none-eabi/10.3.1/../../../../arm-none-eabi/lib/thumb/v7e-m+fp/hard\libg_nano.a(lib_a-signal.o)
 .text._init_signal
                0x00000000        0xc c:/renesas/synergy/e2studio_v2022-10_ssp_v2.4.0/toolchains/gcc_arm/gcc-arm-none-eabi-10.3-2021.10/bin/../lib/gcc/arm-none-eabi/10.3.1/../../../../arm-none-eabi/lib/thumb/v7e-m+fp/hard\libg_nano.a(lib_a-signal.o)
 .text.__sigtramp
                0x00000000       0x10 c:/renesas/synergy/e2studio_v2022-10_ssp_v2.4.0/toolchains/gcc_arm/gcc-arm-none-eabi-10.3-2021.10/bin/../lib/gcc/arm-none-eabi/10.3.1/../../../../arm-none-eabi/lib/thumb/v7e-m+fp/hard\libg_nano.a(lib_a-signal.o)
 .text          0x00000000        0x0 c:/renesas/synergy/e2studio_v2022-10_ssp_v2.4.0/toolchains/gcc_arm/gcc-arm-none-eabi-10.3-2021.10/bin/../lib/gcc/arm-none-eabi/10.3.1/../../../../arm-none-eabi/lib/thumb/v7e-m+fp/hard\libg_nano.a(lib_a-signalr.o)
 .data          0x00000000        0x0 c:/renesas/synergy/e2studio_v2022-10_ssp_v2.4.0/toolchains/gcc_arm/gcc-arm-none-eabi-10.3-2021.10/bin/../lib/gcc/arm-none-eabi/10.3.1/../../../../arm-none-eabi/lib/thumb/v7e-m+fp/hard\libg_nano.a(lib_a-signalr.o)
 .bss           0x00000000        0x0 c:/renesas/synergy/e2studio_v2022-10_ssp_v2.4.0/toolchains/gcc_arm/gcc-arm-none-eabi-10.3-2021.10/bin/../lib/gcc/arm-none-eabi/10.3.1/../../../../arm-none-eabi/lib/thumb/v7e-m+fp/hard\libg_nano.a(lib_a-signalr.o)
 .text          0x00000000        0x0 c:/renesas/synergy/e2studio_v2022-10_ssp_v2.4.0/toolchains/gcc_arm/gcc-arm-none-eabi-10.3-2021.10/bin/../lib/gcc/arm-none-eabi/10.3.1/../../../../arm-none-eabi/lib/thumb/v7e-m+fp/hard\libg_nano.a(lib_a-stdio.o)
 .data          0x00000000        0x0 c:/renesas/synergy/e2studio_v2022-10_ssp_v2.4.0/toolchains/gcc_arm/gcc-arm-none-eabi-10.3-2021.10/bin/../lib/gcc/arm-none-eabi/10.3.1/../../../../arm-none-eabi/lib/thumb/v7e-m+fp/hard\libg_nano.a(lib_a-stdio.o)
 .bss           0x00000000        0x0 c:/renesas/synergy/e2studio_v2022-10_ssp_v2.4.0/toolchains/gcc_arm/gcc-arm-none-eabi-10.3-2021.10/bin/../lib/gcc/arm-none-eabi/10.3.1/../../../../arm-none-eabi/lib/thumb/v7e-m+fp/hard\libg_nano.a(lib_a-stdio.o)
 .text.__seofread
                0x00000000        0x4 c:/renesas/synergy/e2studio_v2022-10_ssp_v2.4.0/toolchains/gcc_arm/gcc-arm-none-eabi-10.3-2021.10/bin/../lib/gcc/arm-none-eabi/10.3.1/../../../../arm-none-eabi/lib/thumb/v7e-m+fp/hard\libg_nano.a(lib_a-stdio.o)
 .text          0x00000000        0x0 c:/renesas/synergy/e2studio_v2022-10_ssp_v2.4.0/toolchains/gcc_arm/gcc-arm-none-eabi-10.3-2021.10/bin/../lib/gcc/arm-none-eabi/10.3.1/../../../../arm-none-eabi/lib/thumb/v7e-m+fp/hard\libg_nano.a(lib_a-writer.o)
 .data          0x00000000        0x0 c:/renesas/synergy/e2studio_v2022-10_ssp_v2.4.0/toolchains/gcc_arm/gcc-arm-none-eabi-10.3-2021.10/bin/../lib/gcc/arm-none-eabi/10.3.1/../../../../arm-none-eabi/lib/thumb/v7e-m+fp/hard\libg_nano.a(lib_a-writer.o)
 .bss           0x00000000        0x0 c:/renesas/synergy/e2studio_v2022-10_ssp_v2.4.0/toolchains/gcc_arm/gcc-arm-none-eabi-10.3-2021.10/bin/../lib/gcc/arm-none-eabi/10.3.1/../../../../arm-none-eabi/lib/thumb/v7e-m+fp/hard\libg_nano.a(lib_a-writer.o)
 .text          0x00000000        0x0 c:/renesas/synergy/e2studio_v2022-10_ssp_v2.4.0/toolchains/gcc_arm/gcc-arm-none-eabi-10.3-2021.10/bin/../lib/gcc/arm-none-eabi/10.3.1/../../../../arm-none-eabi/lib/thumb/v7e-m+fp/hard\libg_nano.a(lib_a-closer.o)
 .data          0x00000000        0x0 c:/renesas/synergy/e2studio_v2022-10_ssp_v2.4.0/toolchains/gcc_arm/gcc-arm-none-eabi-10.3-2021.10/bin/../lib/gcc/arm-none-eabi/10.3.1/../../../../arm-none-eabi/lib/thumb/v7e-m+fp/hard\libg_nano.a(lib_a-closer.o)
 .bss           0x00000000        0x0 c:/renesas/synergy/e2studio_v2022-10_ssp_v2.4.0/toolchains/gcc_arm/gcc-arm-none-eabi-10.3-2021.10/bin/../lib/gcc/arm-none-eabi/10.3.1/../../../../arm-none-eabi/lib/thumb/v7e-m+fp/hard\libg_nano.a(lib_a-closer.o)
 .text          0x00000000        0x0 c:/renesas/synergy/e2studio_v2022-10_ssp_v2.4.0/toolchains/gcc_arm/gcc-arm-none-eabi-10.3-2021.10/bin/../lib/gcc/arm-none-eabi/10.3.1/../../../../arm-none-eabi/lib/thumb/v7e-m+fp/hard\libg_nano.a(lib_a-fstatr.o)
 .data          0x00000000        0x0 c:/renesas/synergy/e2studio_v2022-10_ssp_v2.4.0/toolchains/gcc_arm/gcc-arm-none-eabi-10.3-2021.10/bin/../lib/gcc/arm-none-eabi/10.3.1/../../../../arm-none-eabi/lib/thumb/v7e-m+fp/hard\libg_nano.a(lib_a-fstatr.o)
 .bss           0x00000000        0x0 c:/renesas/synergy/e2studio_v2022-10_ssp_v2.4.0/toolchains/gcc_arm/gcc-arm-none-eabi-10.3-2021.10/bin/../lib/gcc/arm-none-eabi/10.3.1/../../../../arm-none-eabi/lib/thumb/v7e-m+fp/hard\libg_nano.a(lib_a-fstatr.o)
 .text          0x00000000        0x0 c:/renesas/synergy/e2studio_v2022-10_ssp_v2.4.0/toolchains/gcc_arm/gcc-arm-none-eabi-10.3-2021.10/bin/../lib/gcc/arm-none-eabi/10.3.1/../../../../arm-none-eabi/lib/thumb/v7e-m+fp/hard\libg_nano.a(lib_a-isattyr.o)
 .data          0x00000000        0x0 c:/renesas/synergy/e2studio_v2022-10_ssp_v2.4.0/toolchains/gcc_arm/gcc-arm-none-eabi-10.3-2021.10/bin/../lib/gcc/arm-none-eabi/10.3.1/../../../../arm-none-eabi/lib/thumb/v7e-m+fp/hard\libg_nano.a(lib_a-isattyr.o)
 .bss           0x00000000        0x0 c:/renesas/synergy/e2studio_v2022-10_ssp_v2.4.0/toolchains/gcc_arm/gcc-arm-none-eabi-10.3-2021.10/bin/../lib/gcc/arm-none-eabi/10.3.1/../../../../arm-none-eabi/lib/thumb/v7e-m+fp/hard\libg_nano.a(lib_a-isattyr.o)
 .text          0x00000000        0x0 c:/renesas/synergy/e2studio_v2022-10_ssp_v2.4.0/toolchains/gcc_arm/gcc-arm-none-eabi-10.3-2021.10/bin/../lib/gcc/arm-none-eabi/10.3.1/../../../../arm-none-eabi/lib/thumb/v7e-m+fp/hard\libg_nano.a(lib_a-lseekr.o)
 .data          0x00000000        0x0 c:/renesas/synergy/e2studio_v2022-10_ssp_v2.4.0/toolchains/gcc_arm/gcc-arm-none-eabi-10.3-2021.10/bin/../lib/gcc/arm-none-eabi/10.3.1/../../../../arm-none-eabi/lib/thumb/v7e-m+fp/hard\libg_nano.a(lib_a-lseekr.o)
 .bss           0x00000000        0x0 c:/renesas/synergy/e2studio_v2022-10_ssp_v2.4.0/toolchains/gcc_arm/gcc-arm-none-eabi-10.3-2021.10/bin/../lib/gcc/arm-none-eabi/10.3.1/../../../../arm-none-eabi/lib/thumb/v7e-m+fp/hard\libg_nano.a(lib_a-lseekr.o)
 .text          0x00000000        0x0 c:/renesas/synergy/e2studio_v2022-10_ssp_v2.4.0/toolchains/gcc_arm/gcc-arm-none-eabi-10.3-2021.10/bin/../lib/gcc/arm-none-eabi/10.3.1/../../../../arm-none-eabi/lib/thumb/v7e-m+fp/hard\libg_nano.a(lib_a-nano-msizer.o)
 .data          0x00000000        0x0 c:/renesas/synergy/e2studio_v2022-10_ssp_v2.4.0/toolchains/gcc_arm/gcc-arm-none-eabi-10.3-2021.10/bin/../lib/gcc/arm-none-eabi/10.3.1/../../../../arm-none-eabi/lib/thumb/v7e-m+fp/hard\libg_nano.a(lib_a-nano-msizer.o)
 .bss           0x00000000        0x0 c:/renesas/synergy/e2studio_v2022-10_ssp_v2.4.0/toolchains/gcc_arm/gcc-arm-none-eabi-10.3-2021.10/bin/../lib/gcc/arm-none-eabi/10.3.1/../../../../arm-none-eabi/lib/thumb/v7e-m+fp/hard\libg_nano.a(lib_a-nano-msizer.o)
 .text._malloc_usable_size_r
                0x00000000       0x10 c:/renesas/synergy/e2studio_v2022-10_ssp_v2.4.0/toolchains/gcc_arm/gcc-arm-none-eabi-10.3-2021.10/bin/../lib/gcc/arm-none-eabi/10.3.1/../../../../arm-none-eabi/lib/thumb/v7e-m+fp/hard\libg_nano.a(lib_a-nano-msizer.o)
 .debug_frame   0x00000000       0x20 c:/renesas/synergy/e2studio_v2022-10_ssp_v2.4.0/toolchains/gcc_arm/gcc-arm-none-eabi-10.3-2021.10/bin/../lib/gcc/arm-none-eabi/10.3.1/../../../../arm-none-eabi/lib/thumb/v7e-m+fp/hard\libg_nano.a(lib_a-nano-msizer.o)
 .ARM.attributes
                0x00000000       0x34 c:/renesas/synergy/e2studio_v2022-10_ssp_v2.4.0/toolchains/gcc_arm/gcc-arm-none-eabi-10.3-2021.10/bin/../lib/gcc/arm-none-eabi/10.3.1/../../../../arm-none-eabi/lib/thumb/v7e-m+fp/hard\libg_nano.a(lib_a-nano-msizer.o)
 .text          0x00000000        0x0 c:/renesas/synergy/e2studio_v2022-10_ssp_v2.4.0/toolchains/gcc_arm/gcc-arm-none-eabi-10.3-2021.10/bin/../lib/gcc/arm-none-eabi/10.3.1/../../../../arm-none-eabi/lib/thumb/v7e-m+fp/hard\libg_nano.a(lib_a-readr.o)
 .data          0x00000000        0x0 c:/renesas/synergy/e2studio_v2022-10_ssp_v2.4.0/toolchains/gcc_arm/gcc-arm-none-eabi-10.3-2021.10/bin/../lib/gcc/arm-none-eabi/10.3.1/../../../../arm-none-eabi/lib/thumb/v7e-m+fp/hard\libg_nano.a(lib_a-readr.o)
 .bss           0x00000000        0x0 c:/renesas/synergy/e2studio_v2022-10_ssp_v2.4.0/toolchains/gcc_arm/gcc-arm-none-eabi-10.3-2021.10/bin/../lib/gcc/arm-none-eabi/10.3.1/../../../../arm-none-eabi/lib/thumb/v7e-m+fp/hard\libg_nano.a(lib_a-readr.o)
 .text          0x00000000        0x0 c:/renesas/synergy/e2studio_v2022-10_ssp_v2.4.0/toolchains/gcc_arm/gcc-arm-none-eabi-10.3-2021.10/bin/../lib/gcc/arm-none-eabi/10.3.1/../../../../arm-none-eabi/lib/thumb/v7e-m+fp/hard\librdimon_nano.a(rdimon-syscalls.o)
 .data          0x00000000        0x0 c:/renesas/synergy/e2studio_v2022-10_ssp_v2.4.0/toolchains/gcc_arm/gcc-arm-none-eabi-10.3-2021.10/bin/../lib/gcc/arm-none-eabi/10.3.1/../../../../arm-none-eabi/lib/thumb/v7e-m+fp/hard\librdimon_nano.a(rdimon-syscalls.o)
 .bss           0x00000000        0x0 c:/renesas/synergy/e2studio_v2022-10_ssp_v2.4.0/toolchains/gcc_arm/gcc-arm-none-eabi-10.3-2021.10/bin/../lib/gcc/arm-none-eabi/10.3.1/../../../../arm-none-eabi/lib/thumb/v7e-m+fp/hard\librdimon_nano.a(rdimon-syscalls.o)
 .text._sbrk    0x00000000       0x48 c:/renesas/synergy/e2studio_v2022-10_ssp_v2.4.0/toolchains/gcc_arm/gcc-arm-none-eabi-10.3-2021.10/bin/../lib/gcc/arm-none-eabi/10.3.1/../../../../arm-none-eabi/lib/thumb/v7e-m+fp/hard\librdimon_nano.a(rdimon-syscalls.o)
 .text._open    0x00000000       0x12 c:/renesas/synergy/e2studio_v2022-10_ssp_v2.4.0/toolchains/gcc_arm/gcc-arm-none-eabi-10.3-2021.10/bin/../lib/gcc/arm-none-eabi/10.3.1/../../../../arm-none-eabi/lib/thumb/v7e-m+fp/hard\librdimon_nano.a(rdimon-syscalls.o)
 .text._has_ext_stdout_stderr
                0x00000000       0x18 c:/renesas/synergy/e2studio_v2022-10_ssp_v2.4.0/toolchains/gcc_arm/gcc-arm-none-eabi-10.3-2021.10/bin/../lib/gcc/arm-none-eabi/10.3.1/../../../../arm-none-eabi/lib/thumb/v7e-m+fp/hard\librdimon_nano.a(rdimon-syscalls.o)
 .rodata.initialise_monitor_handles.str1.1
                0x00000000        0x4 c:/renesas/synergy/e2studio_v2022-10_ssp_v2.4.0/toolchains/gcc_arm/gcc-arm-none-eabi-10.3-2021.10/bin/../lib/gcc/arm-none-eabi/10.3.1/../../../../arm-none-eabi/lib/thumb/v7e-m+fp/hard\librdimon_nano.a(rdimon-syscalls.o)
 .text.initialise_monitor_handles
                0x00000000       0xc0 c:/renesas/synergy/e2studio_v2022-10_ssp_v2.4.0/toolchains/gcc_arm/gcc-arm-none-eabi-10.3-2021.10/bin/../lib/gcc/arm-none-eabi/10.3.1/../../../../arm-none-eabi/lib/thumb/v7e-m+fp/hard\librdimon_nano.a(rdimon-syscalls.o)
 .text._link    0x00000000       0x10 c:/renesas/synergy/e2studio_v2022-10_ssp_v2.4.0/toolchains/gcc_arm/gcc-arm-none-eabi-10.3-2021.10/bin/../lib/gcc/arm-none-eabi/10.3.1/../../../../arm-none-eabi/lib/thumb/v7e-m+fp/hard\librdimon_nano.a(rdimon-syscalls.o)
 .text._unlink  0x00000000       0x28 c:/renesas/synergy/e2studio_v2022-10_ssp_v2.4.0/toolchains/gcc_arm/gcc-arm-none-eabi-10.3-2021.10/bin/../lib/gcc/arm-none-eabi/10.3.1/../../../../arm-none-eabi/lib/thumb/v7e-m+fp/hard\librdimon_nano.a(rdimon-syscalls.o)
 .text._gettimeofday
                0x00000000       0x28 c:/renesas/synergy/e2studio_v2022-10_ssp_v2.4.0/toolchains/gcc_arm/gcc-arm-none-eabi-10.3-2021.10/bin/../lib/gcc/arm-none-eabi/10.3.1/../../../../arm-none-eabi/lib/thumb/v7e-m+fp/hard\librdimon_nano.a(rdimon-syscalls.o)
 .text._clock   0x00000000       0x12 c:/renesas/synergy/e2studio_v2022-10_ssp_v2.4.0/toolchains/gcc_arm/gcc-arm-none-eabi-10.3-2021.10/bin/../lib/gcc/arm-none-eabi/10.3.1/../../../../arm-none-eabi/lib/thumb/v7e-m+fp/hard\librdimon_nano.a(rdimon-syscalls.o)
 .text._times   0x00000000       0x16 c:/renesas/synergy/e2studio_v2022-10_ssp_v2.4.0/toolchains/gcc_arm/gcc-arm-none-eabi-10.3-2021.10/bin/../lib/gcc/arm-none-eabi/10.3.1/../../../../arm-none-eabi/lib/thumb/v7e-m+fp/hard\librdimon_nano.a(rdimon-syscalls.o)
 .text._system  0x00000000       0x3c c:/renesas/synergy/e2studio_v2022-10_ssp_v2.4.0/toolchains/gcc_arm/gcc-arm-none-eabi-10.3-2021.10/bin/../lib/gcc/arm-none-eabi/10.3.1/../../../../arm-none-eabi/lib/thumb/v7e-m+fp/hard\librdimon_nano.a(rdimon-syscalls.o)
 .text._rename  0x00000000       0x36 c:/renesas/synergy/e2studio_v2022-10_ssp_v2.4.0/toolchains/gcc_arm/gcc-arm-none-eabi-10.3-2021.10/bin/../lib/gcc/arm-none-eabi/10.3.1/../../../../arm-none-eabi/lib/thumb/v7e-m+fp/hard\librdimon_nano.a(rdimon-syscalls.o)
 .bss.heap_end.0
                0x00000000        0x4 c:/renesas/synergy/e2studio_v2022-10_ssp_v2.4.0/toolchains/gcc_arm/gcc-arm-none-eabi-10.3-2021.10/bin/../lib/gcc/arm-none-eabi/10.3.1/../../../../arm-none-eabi/lib/thumb/v7e-m+fp/hard\librdimon_nano.a(rdimon-syscalls.o)
 .bss.monitor_stderr
                0x00000000        0x4 c:/renesas/synergy/e2studio_v2022-10_ssp_v2.4.0/toolchains/gcc_arm/gcc-arm-none-eabi-10.3-2021.10/bin/../lib/gcc/arm-none-eabi/10.3.1/../../../../arm-none-eabi/lib/thumb/v7e-m+fp/hard\librdimon_nano.a(rdimon-syscalls.o)
 .bss.monitor_stdin
                0x00000000        0x4 c:/renesas/synergy/e2studio_v2022-10_ssp_v2.4.0/toolchains/gcc_arm/gcc-arm-none-eabi-10.3-2021.10/bin/../lib/gcc/arm-none-eabi/10.3.1/../../../../arm-none-eabi/lib/thumb/v7e-m+fp/hard\librdimon_nano.a(rdimon-syscalls.o)
 .bss.monitor_stdout
                0x00000000        0x4 c:/renesas/synergy/e2studio_v2022-10_ssp_v2.4.0/toolchains/gcc_arm/gcc-arm-none-eabi-10.3-2021.10/bin/../lib/gcc/arm-none-eabi/10.3.1/../../../../arm-none-eabi/lib/thumb/v7e-m+fp/hard\librdimon_nano.a(rdimon-syscalls.o)
 .data.__heap_limit
                0x00000000        0x4 c:/renesas/synergy/e2studio_v2022-10_ssp_v2.4.0/toolchains/gcc_arm/gcc-arm-none-eabi-10.3-2021.10/bin/../lib/gcc/arm-none-eabi/10.3.1/../../../../arm-none-eabi/lib/thumb/v7e-m+fp/hard\librdimon_nano.a(rdimon-syscalls.o)
 .text          0x00000000        0x0 c:/renesas/synergy/e2studio_v2022-10_ssp_v2.4.0/toolchains/gcc_arm/gcc-arm-none-eabi-10.3-2021.10/bin/../lib/gcc/arm-none-eabi/10.3.1/../../../../arm-none-eabi/lib/thumb/v7e-m+fp/hard\librdimon_nano.a(rdimon-_exit.o)
 .data          0x00000000        0x0 c:/renesas/synergy/e2studio_v2022-10_ssp_v2.4.0/toolchains/gcc_arm/gcc-arm-none-eabi-10.3-2021.10/bin/../lib/gcc/arm-none-eabi/10.3.1/../../../../arm-none-eabi/lib/thumb/v7e-m+fp/hard\librdimon_nano.a(rdimon-_exit.o)
 .bss           0x00000000        0x0 c:/renesas/synergy/e2studio_v2022-10_ssp_v2.4.0/toolchains/gcc_arm/gcc-arm-none-eabi-10.3-2021.10/bin/../lib/gcc/arm-none-eabi/10.3.1/../../../../arm-none-eabi/lib/thumb/v7e-m+fp/hard\librdimon_nano.a(rdimon-_exit.o)
 .text          0x00000000        0x0 c:/renesas/synergy/e2studio_v2022-10_ssp_v2.4.0/toolchains/gcc_arm/gcc-arm-none-eabi-10.3-2021.10/bin/../lib/gcc/arm-none-eabi/10.3.1/../../../../arm-none-eabi/lib/thumb/v7e-m+fp/hard\librdimon_nano.a(rdimon-_kill.o)
 .data          0x00000000        0x0 c:/renesas/synergy/e2studio_v2022-10_ssp_v2.4.0/toolchains/gcc_arm/gcc-arm-none-eabi-10.3-2021.10/bin/../lib/gcc/arm-none-eabi/10.3.1/../../../../arm-none-eabi/lib/thumb/v7e-m+fp/hard\librdimon_nano.a(rdimon-_kill.o)
 .bss           0x00000000        0x0 c:/renesas/synergy/e2studio_v2022-10_ssp_v2.4.0/toolchains/gcc_arm/gcc-arm-none-eabi-10.3-2021.10/bin/../lib/gcc/arm-none-eabi/10.3.1/../../../../arm-none-eabi/lib/thumb/v7e-m+fp/hard\librdimon_nano.a(rdimon-_kill.o)
 .data          0x00000000        0x0 c:/renesas/synergy/e2studio_v2022-10_ssp_v2.4.0/toolchains/gcc_arm/gcc-arm-none-eabi-10.3-2021.10/bin/../lib/gcc/arm-none-eabi/10.3.1/../../../../arm-none-eabi/lib/thumb/v7e-m+fp/hard\libc_nano.a(lib_a-strlen.o)
 .bss           0x00000000        0x0 c:/renesas/synergy/e2studio_v2022-10_ssp_v2.4.0/toolchains/gcc_arm/gcc-arm-none-eabi-10.3-2021.10/bin/../lib/gcc/arm-none-eabi/10.3.1/../../../../arm-none-eabi/lib/thumb/v7e-m+fp/hard\libc_nano.a(lib_a-strlen.o)
 .text          0x00000000        0x0 c:/renesas/synergy/e2studio_v2022-10_ssp_v2.4.0/toolchains/gcc_arm/gcc-arm-none-eabi-10.3-2021.10/bin/../lib/gcc/arm-none-eabi/10.3.1/thumb/v7e-m+fp/hard/crtend.o
 .data          0x00000000        0x0 c:/renesas/synergy/e2studio_v2022-10_ssp_v2.4.0/toolchains/gcc_arm/gcc-arm-none-eabi-10.3-2021.10/bin/../lib/gcc/arm-none-eabi/10.3.1/thumb/v7e-m+fp/hard/crtend.o
 .bss           0x00000000        0x0 c:/renesas/synergy/e2studio_v2022-10_ssp_v2.4.0/toolchains/gcc_arm/gcc-arm-none-eabi-10.3-2021.10/bin/../lib/gcc/arm-none-eabi/10.3.1/thumb/v7e-m+fp/hard/crtend.o
 .rodata        0x00000000       0x24 c:/renesas/synergy/e2studio_v2022-10_ssp_v2.4.0/toolchains/gcc_arm/gcc-arm-none-eabi-10.3-2021.10/bin/../lib/gcc/arm-none-eabi/10.3.1/thumb/v7e-m+fp/hard/crtend.o
 .text          0x00000000        0x0 c:/renesas/synergy/e2studio_v2022-10_ssp_v2.4.0/toolchains/gcc_arm/gcc-arm-none-eabi-10.3-2021.10/bin/../lib/gcc/arm-none-eabi/10.3.1/thumb/v7e-m+fp/hard/crtn.o
 .data          0x00000000        0x0 c:/renesas/synergy/e2studio_v2022-10_ssp_v2.4.0/toolchains/gcc_arm/gcc-arm-none-eabi-10.3-2021.10/bin/../lib/gcc/arm-none-eabi/10.3.1/thumb/v7e-m+fp/hard/crtn.o
 .bss           0x00000000        0x0 c:/renesas/synergy/e2studio_v2022-10_ssp_v2.4.0/toolchains/gcc_arm/gcc-arm-none-eabi-10.3-2021.10/bin/../lib/gcc/arm-none-eabi/10.3.1/thumb/v7e-m+fp/hard/crtn.o

Memory Configuration

Name             Origin             Length             Attributes
FLASH            0x00000000         0x00100000         xr
RAM              0x20000000         0x00030000         xrw
DATA_FLASH       0x40100000         0x00004000         xr
QSPI_FLASH       0x60000000         0x04000000         xr
ID_CODE_1        0x01010018         0x00000004         xr
ID_CODE_2        0x01010020         0x00000004         xr
ID_CODE_3        0x01010028         0x00000004         xr
ID_CODE_4        0x01010030         0x00000004         xr
*default*        0x00000000         0xffffffff

Linker script and memory map

LOAD c:/renesas/synergy/e2studio_v2022-10_ssp_v2.4.0/toolchains/gcc_arm/gcc-arm-none-eabi-10.3-2021.10/bin/../lib/gcc/arm-none-eabi/10.3.1/thumb/v7e-m+fp/hard/crti.o
LOAD c:/renesas/synergy/e2studio_v2022-10_ssp_v2.4.0/toolchains/gcc_arm/gcc-arm-none-eabi-10.3-2021.10/bin/../lib/gcc/arm-none-eabi/10.3.1/thumb/v7e-m+fp/hard/crtbegin.o
LOAD c:/renesas/synergy/e2studio_v2022-10_ssp_v2.4.0/toolchains/gcc_arm/gcc-arm-none-eabi-10.3-2021.10/bin/../lib/gcc/arm-none-eabi/10.3.1/../../../../arm-none-eabi/lib/thumb/v7e-m+fp/hard/rdimon-crt0.o
START GROUP
LOAD ./synergy/ssp/src/driver/r_sci_i2c/r_sci_i2c.o
LOAD ./synergy/ssp/src/driver/r_ioport/r_ioport.o
LOAD ./synergy/ssp/src/driver/r_elc/r_elc.o
LOAD ./synergy/ssp/src/driver/r_dtc/r_dtc.o
LOAD ./synergy/ssp/src/driver/r_cgc/r_cgc.o
LOAD ./synergy/ssp/src/driver/r_can/hw/hw_can.o
LOAD ./synergy/ssp/src/driver/r_can/r_can.o
LOAD ./synergy/ssp/src/driver/r_adc/r_adc.o
LOAD ./synergy/ssp/src/bsp/mcu/s3a7/bsp_cache.o
LOAD ./synergy/ssp/src/bsp/mcu/s3a7/bsp_clocks.o
LOAD ./synergy/ssp/src/bsp/mcu/s3a7/bsp_feature.o
LOAD ./synergy/ssp/src/bsp/mcu/s3a7/bsp_group_irq.o
LOAD ./synergy/ssp/src/bsp/mcu/s3a7/bsp_hw_locks.o
LOAD ./synergy/ssp/src/bsp/mcu/s3a7/bsp_module_stop.o
LOAD ./synergy/ssp/src/bsp/mcu/s3a7/bsp_rom_registers.o
LOAD ./synergy/ssp/src/bsp/mcu/all/bsp_common.o
LOAD ./synergy/ssp/src/bsp/mcu/all/bsp_common_leds.o
LOAD ./synergy/ssp/src/bsp/mcu/all/bsp_delay.o
LOAD ./synergy/ssp/src/bsp/mcu/all/bsp_irq.o
LOAD ./synergy/ssp/src/bsp/mcu/all/bsp_locking.o
LOAD ./synergy/ssp/src/bsp/mcu/all/bsp_register_protection.o
LOAD ./synergy/ssp/src/bsp/mcu/all/bsp_sbrk.o
LOAD ./synergy/ssp/src/bsp/cmsis/Device/RENESAS/S3A7/Source/startup_S3A7.o
LOAD ./synergy/ssp/src/bsp/cmsis/Device/RENESAS/S3A7/Source/system_S3A7.o
LOAD ./src/synergy_gen/adc_thread.o
LOAD ./src/synergy_gen/can_thread.o
LOAD ./src/synergy_gen/common_data.o
LOAD ./src/synergy_gen/drv_thread.o
LOAD ./src/synergy_gen/hal_data.o
LOAD ./src/synergy_gen/lcd_thread.o
LOAD ./src/synergy_gen/main.o
LOAD ./src/synergy_gen/pin_data.o
LOAD ./src/synergy_gen/status_led.o
LOAD ./src/adc_thread_entry.o
LOAD ./src/can_thread_entry.o
LOAD ./src/drv_thread_entry.o
LOAD ./src/hal_entry.o
LOAD ./src/lcd_thread_entry.o
LOAD ./src/status_led_entry.o
LOAD C:\Users\khurr\e2_studio_latest\workspace\COPJunction\synergy\ssp\src\bsp\cmsis\DSP_Lib\cm4_gcc\libDSP_Lib.a
LOAD C:\Users\khurr\e2_studio_latest\workspace\COPJunction\synergy\ssp\src\bsp\cmsis\NN_Lib\cm4_gcc\libNN_Lib.a
LOAD C:\Users\khurr\e2_studio_latest\workspace\COPJunction\synergy\ssp\src\driver\r_fmi\libs\libfmi_cm4_s3a7_gcc.a
LOAD C:\Users\khurr\e2_studio_latest\workspace\COPJunction\synergy\ssp\src\framework\el\tx\cm4_gcc\libtx.a
LOAD C:\Users\khurr\e2_studio_latest\workspace\COPJunction\synergy\ssp\src\bsp\mcu\s3a7\libfmi_R7FS3A77C3A01CFM_gcc.a
END GROUP
START GROUP
LOAD c:/renesas/synergy/e2studio_v2022-10_ssp_v2.4.0/toolchains/gcc_arm/gcc-arm-none-eabi-10.3-2021.10/bin/../lib/gcc/arm-none-eabi/10.3.1/thumb/v7e-m+fp/hard\libgcc.a
LOAD c:/renesas/synergy/e2studio_v2022-10_ssp_v2.4.0/toolchains/gcc_arm/gcc-arm-none-eabi-10.3-2021.10/bin/../lib/gcc/arm-none-eabi/10.3.1/../../../../arm-none-eabi/lib/thumb/v7e-m+fp/hard\libg_nano.a
LOAD c:/renesas/synergy/e2studio_v2022-10_ssp_v2.4.0/toolchains/gcc_arm/gcc-arm-none-eabi-10.3-2021.10/bin/../lib/gcc/arm-none-eabi/10.3.1/../../../../arm-none-eabi/lib/thumb/v7e-m+fp/hard\libc_nano.a
END GROUP
START GROUP
LOAD c:/renesas/synergy/e2studio_v2022-10_ssp_v2.4.0/toolchains/gcc_arm/gcc-arm-none-eabi-10.3-2021.10/bin/../lib/gcc/arm-none-eabi/10.3.1/thumb/v7e-m+fp/hard\libgcc.a
LOAD c:/renesas/synergy/e2studio_v2022-10_ssp_v2.4.0/toolchains/gcc_arm/gcc-arm-none-eabi-10.3-2021.10/bin/../lib/gcc/arm-none-eabi/10.3.1/../../../../arm-none-eabi/lib/thumb/v7e-m+fp/hard\libc_nano.a
LOAD c:/renesas/synergy/e2studio_v2022-10_ssp_v2.4.0/toolchains/gcc_arm/gcc-arm-none-eabi-10.3-2021.10/bin/../lib/gcc/arm-none-eabi/10.3.1/../../../../arm-none-eabi/lib/thumb/v7e-m+fp/hard\librdimon_nano.a
END GROUP
START GROUP
LOAD c:/renesas/synergy/e2studio_v2022-10_ssp_v2.4.0/toolchains/gcc_arm/gcc-arm-none-eabi-10.3-2021.10/bin/../lib/gcc/arm-none-eabi/10.3.1/thumb/v7e-m+fp/hard\libgcc.a
LOAD c:/renesas/synergy/e2studio_v2022-10_ssp_v2.4.0/toolchains/gcc_arm/gcc-arm-none-eabi-10.3-2021.10/bin/../lib/gcc/arm-none-eabi/10.3.1/../../../../arm-none-eabi/lib/thumb/v7e-m+fp/hard\libc_nano.a
LOAD c:/renesas/synergy/e2studio_v2022-10_ssp_v2.4.0/toolchains/gcc_arm/gcc-arm-none-eabi-10.3-2021.10/bin/../lib/gcc/arm-none-eabi/10.3.1/../../../../arm-none-eabi/lib/thumb/v7e-m+fp/hard\librdimon_nano.a
END GROUP
LOAD c:/renesas/synergy/e2studio_v2022-10_ssp_v2.4.0/toolchains/gcc_arm/gcc-arm-none-eabi-10.3-2021.10/bin/../lib/gcc/arm-none-eabi/10.3.1/thumb/v7e-m+fp/hard/crtend.o
LOAD c:/renesas/synergy/e2studio_v2022-10_ssp_v2.4.0/toolchains/gcc_arm/gcc-arm-none-eabi-10.3-2021.10/bin/../lib/gcc/arm-none-eabi/10.3.1/thumb/v7e-m+fp/hard/crtn.o
START GROUP
LOAD c:/renesas/synergy/e2studio_v2022-10_ssp_v2.4.0/toolchains/gcc_arm/gcc-arm-none-eabi-10.3-2021.10/bin/../lib/gcc/arm-none-eabi/10.3.1/thumb/v7e-m+fp/hard\libgcc.a
LOAD c:/renesas/synergy/e2studio_v2022-10_ssp_v2.4.0/toolchains/gcc_arm/gcc-arm-none-eabi-10.3-2021.10/bin/../lib/gcc/arm-none-eabi/10.3.1/../../../../arm-none-eabi/lib/thumb/v7e-m+fp/hard\libc.a
LOAD c:/renesas/synergy/e2studio_v2022-10_ssp_v2.4.0/toolchains/gcc_arm/gcc-arm-none-eabi-10.3-2021.10/bin/../lib/gcc/arm-none-eabi/10.3.1/../../../../arm-none-eabi/lib/thumb/v7e-m+fp/hard\libm.a
LOAD c:/renesas/synergy/e2studio_v2022-10_ssp_v2.4.0/toolchains/gcc_arm/gcc-arm-none-eabi-10.3-2021.10/bin/../lib/gcc/arm-none-eabi/10.3.1/../../../../arm-none-eabi/lib/thumb/v7e-m+fp/hard\libnosys.a
END GROUP

.text           0x00000000     0x90d8
                0x00000000                __ROM_Start = .
 *(.vectors)
 .vectors       0x00000000       0x40 ./synergy/ssp/src/bsp/cmsis/Device/RENESAS/S3A7/Source/startup_S3A7.o
                0x00000000                __Vectors
 *(SORT_BY_NAME(.vector.*))
 .vector.CAN_0_ERROR
                0x00000040        0x4 ./src/synergy_gen/can_thread.o
                0x00000040                g_vector_CAN_0_ERROR
 .vector.CAN_0_MAILBOX_RX
                0x00000044        0x4 ./src/synergy_gen/can_thread.o
                0x00000044                g_vector_CAN_0_MAILBOX_RX
 .vector.CAN_0_MAILBOX_TX
                0x00000048        0x4 ./src/synergy_gen/can_thread.o
                0x00000048                g_vector_CAN_0_MAILBOX_TX
 .vector.SCI_0_RXI
                0x0000004c        0x4 ./src/synergy_gen/drv_thread.o
                0x0000004c                g_vector_SCI_0_RXI
 .vector.SCI_0_TEI
                0x00000050        0x4 ./src/synergy_gen/drv_thread.o
                0x00000050                g_vector_SCI_0_TEI
 .vector.SCI_0_TXI
                0x00000054        0x4 ./src/synergy_gen/drv_thread.o
                0x00000054                g_vector_SCI_0_TXI
                0x00000058                __Vectors_End = .
                0x20000a18                __end__ = .
                0x00000400                . = (__ROM_Start + 0x400)
 *fill*         0x00000058      0x3a8 ff
 *(.rom_registers*)
 .rom_registers
                0x00000400       0x3c ./synergy/ssp/src/bsp/mcu/s3a7/bsp_rom_registers.o
                0x00000500                . = (__ROM_Start + 0x500)
 *fill*         0x0000043c       0xc4 ff
                0x00000500                __Vector_Info_Start = .
 *(SORT_BY_NAME(.vector_info.*))
 .vector_info.CAN_0_ERROR
                0x00000500        0x8 ./src/synergy_gen/can_thread.o
                0x00000500                g_vector_info_CAN_0_ERROR
 .vector_info.CAN_0_MAILBOX_RX
                0x00000508        0x8 ./src/synergy_gen/can_thread.o
                0x00000508                g_vector_info_CAN_0_MAILBOX_RX
 .vector_info.CAN_0_MAILBOX_TX
                0x00000510        0x8 ./src/synergy_gen/can_thread.o
                0x00000510                g_vector_info_CAN_0_MAILBOX_TX
 .vector_info.SCI_0_RXI
                0x00000518        0x8 ./src/synergy_gen/drv_thread.o
                0x00000518                g_vector_info_SCI_0_RXI
 .vector_info.SCI_0_TEI
                0x00000520        0x8 ./src/synergy_gen/drv_thread.o
                0x00000520                g_vector_info_SCI_0_TEI
 .vector_info.SCI_0_TXI
                0x00000528        0x8 ./src/synergy_gen/drv_thread.o
                0x00000528                g_vector_info_SCI_0_TXI
                0x00000530                __Vector_Info_End = .
                0x00000530                __Lock_Lookup_Start = .
 *(SORT_BY_NAME(.hw_lock_lookup.*))
 .hw_lock_lookup.ADC_0U_0U
                0x00000530        0x4 ./synergy/ssp/src/bsp/mcu/s3a7/bsp_hw_locks.o
                0x00000530                g_lock_lookup_ADC_0U_0U
 .hw_lock_lookup.AGT_0U_0U
                0x00000534        0x4 ./synergy/ssp/src/bsp/mcu/s3a7/bsp_hw_locks.o
                0x00000534                g_lock_lookup_AGT_0U_0U
 .hw_lock_lookup.AGT_0U_1U
                0x00000538        0x4 ./synergy/ssp/src/bsp/mcu/s3a7/bsp_hw_locks.o
                0x00000538                g_lock_lookup_AGT_0U_1U
 .hw_lock_lookup.BSC_0U_1U
                0x0000053c        0x4 ./synergy/ssp/src/bsp/mcu/s3a7/bsp_hw_locks.o
                0x0000053c                g_lock_lookup_BSC_0U_1U
 .hw_lock_lookup.CAC_0U_0U
                0x00000540        0x4 ./synergy/ssp/src/bsp/mcu/s3a7/bsp_hw_locks.o
                0x00000540                g_lock_lookup_CAC_0U_0U
 .hw_lock_lookup.CAN_0U_0U
                0x00000544        0x4 ./synergy/ssp/src/bsp/mcu/s3a7/bsp_hw_locks.o
                0x00000544                g_lock_lookup_CAN_0U_0U
 .hw_lock_lookup.COMP_HS_0U_0U
                0x00000548        0x4 ./synergy/ssp/src/bsp/mcu/s3a7/bsp_hw_locks.o
                0x00000548                g_lock_lookup_COMP_HS_0U_0U
 .hw_lock_lookup.COMP_HS_0U_1U
                0x0000054c        0x4 ./synergy/ssp/src/bsp/mcu/s3a7/bsp_hw_locks.o
                0x0000054c                g_lock_lookup_COMP_HS_0U_1U
 .hw_lock_lookup.COMP_LP_0U_0U
                0x00000550        0x4 ./synergy/ssp/src/bsp/mcu/s3a7/bsp_hw_locks.o
                0x00000550                g_lock_lookup_COMP_LP_0U_0U
 .hw_lock_lookup.COMP_LP_0U_1U
                0x00000554        0x4 ./synergy/ssp/src/bsp/mcu/s3a7/bsp_hw_locks.o
                0x00000554                g_lock_lookup_COMP_LP_0U_1U
 .hw_lock_lookup.CRC_0U_0U
                0x00000558        0x4 ./synergy/ssp/src/bsp/mcu/s3a7/bsp_hw_locks.o
                0x00000558                g_lock_lookup_CRC_0U_0U
 .hw_lock_lookup.CTSU_0U_0U
                0x0000055c        0x4 ./synergy/ssp/src/bsp/mcu/s3a7/bsp_hw_locks.o
                0x0000055c                g_lock_lookup_CTSU_0U_0U
 .hw_lock_lookup.DAAD_0U_0U
                0x00000560        0x4 ./synergy/ssp/src/bsp/mcu/s3a7/bsp_hw_locks.o
                0x00000560                g_lock_lookup_DAAD_0U_0U
 .hw_lock_lookup.DAC_0U_0U
                0x00000564        0x4 ./synergy/ssp/src/bsp/mcu/s3a7/bsp_hw_locks.o
                0x00000564                g_lock_lookup_DAC_0U_0U
 .hw_lock_lookup.DAC_0U_1U
                0x00000568        0x4 ./synergy/ssp/src/bsp/mcu/s3a7/bsp_hw_locks.o
                0x00000568                g_lock_lookup_DAC_0U_1U
 .hw_lock_lookup.DMAC_0U_0U
                0x0000056c        0x4 ./synergy/ssp/src/bsp/mcu/s3a7/bsp_hw_locks.o
                0x0000056c                g_lock_lookup_DMAC_0U_0U
 .hw_lock_lookup.DMAC_0U_1U
                0x00000570        0x4 ./synergy/ssp/src/bsp/mcu/s3a7/bsp_hw_locks.o
                0x00000570                g_lock_lookup_DMAC_0U_1U
 .hw_lock_lookup.DMAC_0U_2U
                0x00000574        0x4 ./synergy/ssp/src/bsp/mcu/s3a7/bsp_hw_locks.o
                0x00000574                g_lock_lookup_DMAC_0U_2U
 .hw_lock_lookup.DMAC_0U_3U
                0x00000578        0x4 ./synergy/ssp/src/bsp/mcu/s3a7/bsp_hw_locks.o
                0x00000578                g_lock_lookup_DMAC_0U_3U
 .hw_lock_lookup.DOC_0U_0U
                0x0000057c        0x4 ./synergy/ssp/src/bsp/mcu/s3a7/bsp_hw_locks.o
                0x0000057c                g_lock_lookup_DOC_0U_0U
 .hw_lock_lookup.DTC_0U_0U
                0x00000580        0x4 ./synergy/ssp/src/bsp/mcu/s3a7/bsp_hw_locks.o
                0x00000580                g_lock_lookup_DTC_0U_0U
 .hw_lock_lookup.ELC_0U_0U
                0x00000584        0x4 ./synergy/ssp/src/bsp/mcu/s3a7/bsp_hw_locks.o
                0x00000584                g_lock_lookup_ELC_0U_0U
 .hw_lock_lookup.FCU_0U_0U
                0x00000588        0x4 ./synergy/ssp/src/bsp/mcu/s3a7/bsp_hw_locks.o
                0x00000588                g_lock_lookup_FCU_0U_0U
 .hw_lock_lookup.GPT_0U_0U
                0x0000058c        0x4 ./synergy/ssp/src/bsp/mcu/s3a7/bsp_hw_locks.o
                0x0000058c                g_lock_lookup_GPT_0U_0U
 .hw_lock_lookup.GPT_0U_1U
                0x00000590        0x4 ./synergy/ssp/src/bsp/mcu/s3a7/bsp_hw_locks.o
                0x00000590                g_lock_lookup_GPT_0U_1U
 .hw_lock_lookup.GPT_0U_2U
                0x00000594        0x4 ./synergy/ssp/src/bsp/mcu/s3a7/bsp_hw_locks.o
                0x00000594                g_lock_lookup_GPT_0U_2U
 .hw_lock_lookup.GPT_0U_3U
                0x00000598        0x4 ./synergy/ssp/src/bsp/mcu/s3a7/bsp_hw_locks.o
                0x00000598                g_lock_lookup_GPT_0U_3U
 .hw_lock_lookup.GPT_0U_4U
                0x0000059c        0x4 ./synergy/ssp/src/bsp/mcu/s3a7/bsp_hw_locks.o
                0x0000059c                g_lock_lookup_GPT_0U_4U
 .hw_lock_lookup.GPT_0U_5U
                0x000005a0        0x4 ./synergy/ssp/src/bsp/mcu/s3a7/bsp_hw_locks.o
                0x000005a0                g_lock_lookup_GPT_0U_5U
 .hw_lock_lookup.GPT_0U_6U
                0x000005a4        0x4 ./synergy/ssp/src/bsp/mcu/s3a7/bsp_hw_locks.o
                0x000005a4                g_lock_lookup_GPT_0U_6U
 .hw_lock_lookup.GPT_0U_7U
                0x000005a8        0x4 ./synergy/ssp/src/bsp/mcu/s3a7/bsp_hw_locks.o
                0x000005a8                g_lock_lookup_GPT_0U_7U
 .hw_lock_lookup.GPT_0U_8U
                0x000005ac        0x4 ./synergy/ssp/src/bsp/mcu/s3a7/bsp_hw_locks.o
                0x000005ac                g_lock_lookup_GPT_0U_8U
 .hw_lock_lookup.GPT_0U_9U
                0x000005b0        0x4 ./synergy/ssp/src/bsp/mcu/s3a7/bsp_hw_locks.o
                0x000005b0                g_lock_lookup_GPT_0U_9U
 .hw_lock_lookup.ICU_0U_0U
                0x000005b4        0x4 ./synergy/ssp/src/bsp/mcu/s3a7/bsp_hw_locks.o
                0x000005b4                g_lock_lookup_ICU_0U_0U
 .hw_lock_lookup.ICU_0U_10U
                0x000005b8        0x4 ./synergy/ssp/src/bsp/mcu/s3a7/bsp_hw_locks.o
                0x000005b8                g_lock_lookup_ICU_0U_10U
 .hw_lock_lookup.ICU_0U_11U
                0x000005bc        0x4 ./synergy/ssp/src/bsp/mcu/s3a7/bsp_hw_locks.o
                0x000005bc                g_lock_lookup_ICU_0U_11U
 .hw_lock_lookup.ICU_0U_12U
                0x000005c0        0x4 ./synergy/ssp/src/bsp/mcu/s3a7/bsp_hw_locks.o
                0x000005c0                g_lock_lookup_ICU_0U_12U
 .hw_lock_lookup.ICU_0U_13U
                0x000005c4        0x4 ./synergy/ssp/src/bsp/mcu/s3a7/bsp_hw_locks.o
                0x000005c4                g_lock_lookup_ICU_0U_13U
 .hw_lock_lookup.ICU_0U_14U
                0x000005c8        0x4 ./synergy/ssp/src/bsp/mcu/s3a7/bsp_hw_locks.o
                0x000005c8                g_lock_lookup_ICU_0U_14U
 .hw_lock_lookup.ICU_0U_15U
                0x000005cc        0x4 ./synergy/ssp/src/bsp/mcu/s3a7/bsp_hw_locks.o
                0x000005cc                g_lock_lookup_ICU_0U_15U
 .hw_lock_lookup.ICU_0U_1U
                0x000005d0        0x4 ./synergy/ssp/src/bsp/mcu/s3a7/bsp_hw_locks.o
                0x000005d0                g_lock_lookup_ICU_0U_1U
 .hw_lock_lookup.ICU_0U_2U
                0x000005d4        0x4 ./synergy/ssp/src/bsp/mcu/s3a7/bsp_hw_locks.o
                0x000005d4                g_lock_lookup_ICU_0U_2U
 .hw_lock_lookup.ICU_0U_3U
                0x000005d8        0x4 ./synergy/ssp/src/bsp/mcu/s3a7/bsp_hw_locks.o
                0x000005d8                g_lock_lookup_ICU_0U_3U
 .hw_lock_lookup.ICU_0U_4U
                0x000005dc        0x4 ./synergy/ssp/src/bsp/mcu/s3a7/bsp_hw_locks.o
                0x000005dc                g_lock_lookup_ICU_0U_4U
 .hw_lock_lookup.ICU_0U_5U
                0x000005e0        0x4 ./synergy/ssp/src/bsp/mcu/s3a7/bsp_hw_locks.o
                0x000005e0                g_lock_lookup_ICU_0U_5U
 .hw_lock_lookup.ICU_0U_6U
                0x000005e4        0x4 ./synergy/ssp/src/bsp/mcu/s3a7/bsp_hw_locks.o
                0x000005e4                g_lock_lookup_ICU_0U_6U
 .hw_lock_lookup.ICU_0U_7U
                0x000005e8        0x4 ./synergy/ssp/src/bsp/mcu/s3a7/bsp_hw_locks.o
                0x000005e8                g_lock_lookup_ICU_0U_7U
 .hw_lock_lookup.ICU_0U_8U
                0x000005ec        0x4 ./synergy/ssp/src/bsp/mcu/s3a7/bsp_hw_locks.o
                0x000005ec                g_lock_lookup_ICU_0U_8U
 .hw_lock_lookup.ICU_0U_9U
                0x000005f0        0x4 ./synergy/ssp/src/bsp/mcu/s3a7/bsp_hw_locks.o
                0x000005f0                g_lock_lookup_ICU_0U_9U
 .hw_lock_lookup.IIC_0U_0U
                0x000005f4        0x4 ./synergy/ssp/src/bsp/mcu/s3a7/bsp_hw_locks.o
                0x000005f4                g_lock_lookup_IIC_0U_0U
 .hw_lock_lookup.IIC_0U_1U
                0x000005f8        0x4 ./synergy/ssp/src/bsp/mcu/s3a7/bsp_hw_locks.o
                0x000005f8                g_lock_lookup_IIC_0U_1U
 .hw_lock_lookup.IIC_0U_2U
                0x000005fc        0x4 ./synergy/ssp/src/bsp/mcu/s3a7/bsp_hw_locks.o
                0x000005fc                g_lock_lookup_IIC_0U_2U
 .hw_lock_lookup.IRDA_0U_0U
                0x00000600        0x4 ./synergy/ssp/src/bsp/mcu/s3a7/bsp_hw_locks.o
                0x00000600                g_lock_lookup_IRDA_0U_0U
 .hw_lock_lookup.IWDT_0U_0U
                0x00000604        0x4 ./synergy/ssp/src/bsp/mcu/s3a7/bsp_hw_locks.o
                0x00000604                g_lock_lookup_IWDT_0U_0U
 .hw_lock_lookup.KEY_0U_0U
                0x00000608        0x4 ./synergy/ssp/src/bsp/mcu/s3a7/bsp_hw_locks.o
                0x00000608                g_lock_lookup_KEY_0U_0U
 .hw_lock_lookup.LPM_1U_0U
                0x0000060c        0x4 ./synergy/ssp/src/bsp/mcu/s3a7/bsp_hw_locks.o
                0x0000060c                g_lock_lookup_LPM_1U_0U
 .hw_lock_lookup.LVD_0U_0U
                0x00000610        0x4 ./synergy/ssp/src/bsp/mcu/s3a7/bsp_hw_locks.o
                0x00000610                g_lock_lookup_LVD_0U_0U
 .hw_lock_lookup.LVD_0U_1U
                0x00000614        0x4 ./synergy/ssp/src/bsp/mcu/s3a7/bsp_hw_locks.o
                0x00000614                g_lock_lookup_LVD_0U_1U
 .hw_lock_lookup.MMF_0U_0U
                0x00000618        0x4 ./synergy/ssp/src/bsp/mcu/s3a7/bsp_hw_locks.o
                0x00000618                g_lock_lookup_MMF_0U_0U
 .hw_lock_lookup.MPU_0U_0U
                0x0000061c        0x4 ./synergy/ssp/src/bsp/mcu/s3a7/bsp_hw_locks.o
                0x0000061c                g_lock_lookup_MPU_0U_0U
 .hw_lock_lookup.OPAMP_0U_0U
                0x00000620        0x4 ./synergy/ssp/src/bsp/mcu/s3a7/bsp_hw_locks.o
                0x00000620                g_lock_lookup_OPAMP_0U_0U
 .hw_lock_lookup.OPS_0U_0U
                0x00000624        0x4 ./synergy/ssp/src/bsp/mcu/s3a7/bsp_hw_locks.o
                0x00000624                g_lock_lookup_OPS_0U_0U
 .hw_lock_lookup.POEG_0U_0U
                0x00000628        0x4 ./synergy/ssp/src/bsp/mcu/s3a7/bsp_hw_locks.o
                0x00000628                g_lock_lookup_POEG_0U_0U
 .hw_lock_lookup.POEG_0U_1U
                0x0000062c        0x4 ./synergy/ssp/src/bsp/mcu/s3a7/bsp_hw_locks.o
                0x0000062c                g_lock_lookup_POEG_0U_1U
 .hw_lock_lookup.POEG_0U_2U
                0x00000630        0x4 ./synergy/ssp/src/bsp/mcu/s3a7/bsp_hw_locks.o
                0x00000630                g_lock_lookup_POEG_0U_2U
 .hw_lock_lookup.POEG_0U_3U
                0x00000634        0x4 ./synergy/ssp/src/bsp/mcu/s3a7/bsp_hw_locks.o
                0x00000634                g_lock_lookup_POEG_0U_3U
 .hw_lock_lookup.QSPI_0U_0U
                0x00000638        0x4 ./synergy/ssp/src/bsp/mcu/s3a7/bsp_hw_locks.o
                0x00000638                g_lock_lookup_QSPI_0U_0U
 .hw_lock_lookup.RTC_0U_0U
                0x0000063c        0x4 ./synergy/ssp/src/bsp/mcu/s3a7/bsp_hw_locks.o
                0x0000063c                g_lock_lookup_RTC_0U_0U
 .hw_lock_lookup.SCE_0U_0U
                0x00000640        0x4 ./synergy/ssp/src/bsp/mcu/s3a7/bsp_hw_locks.o
                0x00000640                g_lock_lookup_SCE_0U_0U
 .hw_lock_lookup.SCI_0U_0U
                0x00000644        0x4 ./synergy/ssp/src/bsp/mcu/s3a7/bsp_hw_locks.o
                0x00000644                g_lock_lookup_SCI_0U_0U
 .hw_lock_lookup.SCI_0U_1U
                0x00000648        0x4 ./synergy/ssp/src/bsp/mcu/s3a7/bsp_hw_locks.o
                0x00000648                g_lock_lookup_SCI_0U_1U
 .hw_lock_lookup.SCI_0U_2U
                0x0000064c        0x4 ./synergy/ssp/src/bsp/mcu/s3a7/bsp_hw_locks.o
                0x0000064c                g_lock_lookup_SCI_0U_2U
 .hw_lock_lookup.SCI_0U_3U
                0x00000650        0x4 ./synergy/ssp/src/bsp/mcu/s3a7/bsp_hw_locks.o
                0x00000650                g_lock_lookup_SCI_0U_3U
 .hw_lock_lookup.SCI_0U_4U
                0x00000654        0x4 ./synergy/ssp/src/bsp/mcu/s3a7/bsp_hw_locks.o
                0x00000654                g_lock_lookup_SCI_0U_4U
 .hw_lock_lookup.SCI_0U_9U
                0x00000658        0x4 ./synergy/ssp/src/bsp/mcu/s3a7/bsp_hw_locks.o
                0x00000658                g_lock_lookup_SCI_0U_9U
 .hw_lock_lookup.SDHIMMC_0U_0U
                0x0000065c        0x4 ./synergy/ssp/src/bsp/mcu/s3a7/bsp_hw_locks.o
                0x0000065c                g_lock_lookup_SDHIMMC_0U_0U
 .hw_lock_lookup.SLCDC_0U_0U
                0x00000660        0x4 ./synergy/ssp/src/bsp/mcu/s3a7/bsp_hw_locks.o
                0x00000660                g_lock_lookup_SLCDC_0U_0U
 .hw_lock_lookup.SPI_0U_0U
                0x00000664        0x4 ./synergy/ssp/src/bsp/mcu/s3a7/bsp_hw_locks.o
                0x00000664                g_lock_lookup_SPI_0U_0U
 .hw_lock_lookup.SPI_0U_1U
                0x00000668        0x4 ./synergy/ssp/src/bsp/mcu/s3a7/bsp_hw_locks.o
                0x00000668                g_lock_lookup_SPI_0U_1U
 .hw_lock_lookup.SSI_0U_0U
                0x0000066c        0x4 ./synergy/ssp/src/bsp/mcu/s3a7/bsp_hw_locks.o
                0x0000066c                g_lock_lookup_SSI_0U_0U
 .hw_lock_lookup.SSI_0U_1U
                0x00000670        0x4 ./synergy/ssp/src/bsp/mcu/s3a7/bsp_hw_locks.o
                0x00000670                g_lock_lookup_SSI_0U_1U
 .hw_lock_lookup.TSN_0U_0U
                0x00000674        0x4 ./synergy/ssp/src/bsp/mcu/s3a7/bsp_hw_locks.o
                0x00000674                g_lock_lookup_TSN_0U_0U
 .hw_lock_lookup.USB_0U_0U
                0x00000678        0x4 ./synergy/ssp/src/bsp/mcu/s3a7/bsp_hw_locks.o
                0x00000678                g_lock_lookup_USB_0U_0U
 .hw_lock_lookup.WDT_0U_0U
                0x0000067c        0x4 ./synergy/ssp/src/bsp/mcu/s3a7/bsp_hw_locks.o
                0x0000067c                g_lock_lookup_WDT_0U_0U
                0x00000680                __Lock_Lookup_End = .
 *(.text*)
 .text          0x00000680       0x40 c:/renesas/synergy/e2studio_v2022-10_ssp_v2.4.0/toolchains/gcc_arm/gcc-arm-none-eabi-10.3-2021.10/bin/../lib/gcc/arm-none-eabi/10.3.1/thumb/v7e-m+fp/hard/crtbegin.o
 .text.sci_siic_enable_transfer_support_tx
                0x000006c0       0x34 ./synergy/ssp/src/driver/r_sci_i2c/r_sci_i2c.o
 .text.sci_i2c_rxi_isr
                0x000006f4      0x144 ./synergy/ssp/src/driver/r_sci_i2c/r_sci_i2c.o
                0x000006f4                sci_i2c_rxi_isr
 .text.sci_i2c_txi_isr
                0x00000838      0x220 ./synergy/ssp/src/driver/r_sci_i2c/r_sci_i2c.o
                0x00000838                sci_i2c_txi_isr
 .text.sci_i2c_tei_isr
                0x00000a58      0x170 ./synergy/ssp/src/driver/r_sci_i2c/r_sci_i2c.o
                0x00000a58                sci_i2c_tei_isr
 .text.R_IOPORT_PortRead
                0x00000bc8       0x34 ./synergy/ssp/src/driver/r_ioport/r_ioport.o
                0x00000bc8                R_IOPORT_PortRead
 .text.R_IOPORT_PortWrite
                0x00000bfc       0x40 ./synergy/ssp/src/driver/r_ioport/r_ioport.o
                0x00000bfc                R_IOPORT_PortWrite
 .text.R_IOPORT_PortDirectionSet
                0x00000c3c       0x50 ./synergy/ssp/src/driver/r_ioport/r_ioport.o
                0x00000c3c                R_IOPORT_PortDirectionSet
 .text.R_IOPORT_PortEventInputRead
                0x00000c8c       0x34 ./synergy/ssp/src/driver/r_ioport/r_ioport.o
                0x00000c8c                R_IOPORT_PortEventInputRead
 .text.R_IOPORT_PortEventOutputWrite
                0x00000cc0       0x3c ./synergy/ssp/src/driver/r_ioport/r_ioport.o
                0x00000cc0                R_IOPORT_PortEventOutputWrite
 .text.R_IOPORT_VersionGet
                0x00000cfc       0x10 ./synergy/ssp/src/driver/r_ioport/r_ioport.o
                0x00000cfc                R_IOPORT_VersionGet
 .text.bsp_vbatt_init
                0x00000d0c       0xac ./synergy/ssp/src/driver/r_ioport/r_ioport.o
 .text.R_IOPORT_PinDirectionSet
                0x00000db8       0xd0 ./synergy/ssp/src/driver/r_ioport/r_ioport.o
                0x00000db8                R_IOPORT_PinDirectionSet
 .text.R_IOPORT_EthernetModeCfg
                0x00000e88       0x50 ./synergy/ssp/src/driver/r_ioport/r_ioport.o
                0x00000e88                R_IOPORT_EthernetModeCfg
 .text.R_IOPORT_PinsCfg
                0x00000ed8       0xd4 ./synergy/ssp/src/driver/r_ioport/r_ioport.o
                0x00000ed8                R_IOPORT_PinsCfg
 .text.R_IOPORT_Init
                0x00000fac       0x74 ./synergy/ssp/src/driver/r_ioport/r_ioport.o
                0x00000fac                R_IOPORT_Init
 .text.R_IOPORT_PinRead
                0x00001020       0x50 ./synergy/ssp/src/driver/r_ioport/r_ioport.o
                0x00001020                R_IOPORT_PinRead
 .text.R_IOPORT_PinEventInputRead
                0x00001070       0x5c ./synergy/ssp/src/driver/r_ioport/r_ioport.o
                0x00001070                R_IOPORT_PinEventInputRead
 .text.R_IOPORT_PinEventOutputWrite
                0x000010cc       0x64 ./synergy/ssp/src/driver/r_ioport/r_ioport.o
                0x000010cc                R_IOPORT_PinEventOutputWrite
 .text.R_IOPORT_PinWrite
                0x00001130       0x54 ./synergy/ssp/src/driver/r_ioport/r_ioport.o
                0x00001130                R_IOPORT_PinWrite
 .text.R_IOPORT_PinCfg
                0x00001184       0xc8 ./synergy/ssp/src/driver/r_ioport/r_ioport.o
                0x00001184                R_IOPORT_PinCfg
 .text.R_ELC_LinkSet
                0x0000124c       0x14 ./synergy/ssp/src/driver/r_elc/r_elc.o
                0x0000124c                R_ELC_LinkSet
 .text.R_ELC_LinkBreak
                0x00001260       0x14 ./synergy/ssp/src/driver/r_elc/r_elc.o
                0x00001260                R_ELC_LinkBreak
 .text.R_ELC_Enable
                0x00001274       0x14 ./synergy/ssp/src/driver/r_elc/r_elc.o
                0x00001274                R_ELC_Enable
 .text.R_ELC_Disable
                0x00001288       0x14 ./synergy/ssp/src/driver/r_elc/r_elc.o
                0x00001288                R_ELC_Disable
 .text.R_ELC_VersionGet
                0x0000129c       0x10 ./synergy/ssp/src/driver/r_elc/r_elc.o
                0x0000129c                R_ELC_VersionGet
 .text.R_ELC_Init
                0x000012ac       0x7c ./synergy/ssp/src/driver/r_elc/r_elc.o
                0x000012ac                R_ELC_Init
 .text.R_ELC_SoftwareEventGenerate
                0x00001328       0x30 ./synergy/ssp/src/driver/r_elc/r_elc.o
                0x00001328                R_ELC_SoftwareEventGenerate
 .text.R_CGC_SDADCClockCfg
                0x00001358        0x4 ./synergy/ssp/src/driver/r_cgc/r_cgc.o
                0x00001358                R_CGC_SDADCClockCfg
 .text.R_CGC_SDADCClockEnable
                0x0000135c        0x4 ./synergy/ssp/src/driver/r_cgc/r_cgc.o
                0x0000135c                R_CGC_SDADCClockEnable
 .text.R_CGC_VersionGet
                0x00001360       0x10 ./synergy/ssp/src/driver/r_cgc/r_cgc.o
                0x00001360                R_CGC_VersionGet
 .text.r_cgc_init_pllfreq
                0x00001370       0xd8 ./synergy/ssp/src/driver/r_cgc/r_cgc.o
 .text.R_CGC_SystemClockFreqGet
                0x00001448       0xb0 ./synergy/ssp/src/driver/r_cgc/r_cgc.o
                0x00001448                R_CGC_SystemClockFreqGet
 .text.R_CGC_BusClockOutCfg
                0x000014f8       0x28 ./synergy/ssp/src/driver/r_cgc/r_cgc.o
                0x000014f8                R_CGC_BusClockOutCfg
 .text.R_CGC_BusClockOutEnable
                0x00001520       0x28 ./synergy/ssp/src/driver/r_cgc/r_cgc.o
                0x00001520                R_CGC_BusClockOutEnable
 .text.R_CGC_BusClockOutDisable
                0x00001548       0x28 ./synergy/ssp/src/driver/r_cgc/r_cgc.o
                0x00001548                R_CGC_BusClockOutDisable
 .text.R_CGC_ClockOutEnable
                0x00001570       0x28 ./synergy/ssp/src/driver/r_cgc/r_cgc.o
                0x00001570                R_CGC_ClockOutEnable
 .text.R_CGC_ClockOutDisable
                0x00001598       0x28 ./synergy/ssp/src/driver/r_cgc/r_cgc.o
                0x00001598                R_CGC_ClockOutDisable
 .text.R_CGC_LCDClockEnable
                0x000015c0       0x60 ./synergy/ssp/src/driver/r_cgc/r_cgc.o
                0x000015c0                R_CGC_LCDClockEnable
 .text.R_CGC_LCDClockDisable
                0x00001620       0x60 ./synergy/ssp/src/driver/r_cgc/r_cgc.o
                0x00001620                R_CGC_LCDClockDisable
 .text.R_CGC_SystickUpdate.part.0
                0x00001680       0x84 ./synergy/ssp/src/driver/r_cgc/r_cgc.o
 .text.R_CGC_SystickUpdate
                0x00001704        0xc ./synergy/ssp/src/driver/r_cgc/r_cgc.o
                0x00001704                R_CGC_SystickUpdate
 .text.R_CGC_ClockOutCfg
                0x00001710       0x5c ./synergy/ssp/src/driver/r_cgc/r_cgc.o
                0x00001710                R_CGC_ClockOutCfg
 .text.r_cgc_system_dividers_set.isra.0
                0x0000176c       0x5c ./synergy/ssp/src/driver/r_cgc/r_cgc.o
 .text.R_CGC_OscStopStatusClear
                0x000017c8       0x64 ./synergy/ssp/src/driver/r_cgc/r_cgc.o
                0x000017c8                R_CGC_OscStopStatusClear
 .text.R_CGC_USBClockCfg
                0x0000182c        0x4 ./synergy/ssp/src/driver/r_cgc/r_cgc.o
                0x0000182c                R_CGC_USBClockCfg
 .text.R_CGC_SDADCClockDisable
                0x00001830        0x4 ./synergy/ssp/src/driver/r_cgc/r_cgc.o
                0x00001830                R_CGC_SDADCClockDisable
 .text.R_CGC_SDRAMClockOutEnable
                0x00001834        0x4 ./synergy/ssp/src/driver/r_cgc/r_cgc.o
                0x00001834                R_CGC_SDRAMClockOutEnable
 .text.R_CGC_SDRAMClockOutDisable
                0x00001838        0x4 ./synergy/ssp/src/driver/r_cgc/r_cgc.o
                0x00001838                R_CGC_SDRAMClockOutDisable
 .text.R_CGC_SystemClockGet
                0x0000183c       0x5c ./synergy/ssp/src/driver/r_cgc/r_cgc.o
                0x0000183c                R_CGC_SystemClockGet
 .text.R_CGC_OscStopDetect
                0x00001898      0x108 ./synergy/ssp/src/driver/r_cgc/r_cgc.o
                0x00001898                R_CGC_OscStopDetect
 .text.R_CGC_Init
                0x000019a0      0x11c ./synergy/ssp/src/driver/r_cgc/r_cgc.o
                0x000019a0                R_CGC_Init
 .text.R_CGC_LCDClockCfg
                0x00001abc       0xfc ./synergy/ssp/src/driver/r_cgc/r_cgc.o
                0x00001abc                R_CGC_LCDClockCfg
 .text.r_cgc_clock_run_state_get
                0x00001bb8       0x68 ./synergy/ssp/src/driver/r_cgc/r_cgc.o
                0x00001bb8                r_cgc_clock_run_state_get
 .text.R_CGC_ClockStop
                0x00001c20      0x160 ./synergy/ssp/src/driver/r_cgc/r_cgc.o
                0x00001c20                R_CGC_ClockStop
 .text.R_CGC_ClockCheck
                0x00001d80       0x8c ./synergy/ssp/src/driver/r_cgc/r_cgc.o
                0x00001d80                R_CGC_ClockCheck
 .text.r_cgc_operating_hw_modeset
                0x00001e0c      0x100 ./synergy/ssp/src/driver/r_cgc/r_cgc.o
                0x00001e0c                r_cgc_operating_hw_modeset
 .text.r_cgc_operating_mode_set
                0x00001f0c       0x68 ./synergy/ssp/src/driver/r_cgc/r_cgc.o
 .text.R_CGC_SystemClockSet
                0x00001f74      0x1e0 ./synergy/ssp/src/driver/r_cgc/r_cgc.o
                0x00001f74                R_CGC_SystemClockSet
 .text.R_CGC_ClockStart.part.0
                0x00002154      0x3e0 ./synergy/ssp/src/driver/r_cgc/r_cgc.o
 .text.R_CGC_ClockStart
                0x00002534       0x70 ./synergy/ssp/src/driver/r_cgc/r_cgc.o
                0x00002534                R_CGC_ClockStart
 .text.r_cgc_clock_start_stop
                0x000025a4       0xc8 ./synergy/ssp/src/driver/r_cgc/r_cgc.o
 .text.R_CGC_ClocksCfg
                0x0000266c      0x16c ./synergy/ssp/src/driver/r_cgc/r_cgc.o
                0x0000266c                R_CGC_ClocksCfg
 .text.HW_CAN_Control
                0x000027d8      0x42c ./synergy/ssp/src/driver/r_can/hw/hw_can.o
                0x000027d8                HW_CAN_Control
 .text.HW_CAN_MailboxIdSet
                0x00002c04       0xc8 ./synergy/ssp/src/driver/r_can/hw/hw_can.o
                0x00002c04                HW_CAN_MailboxIdSet
 .text.HW_CAN_MailboxMaskSet
                0x00002ccc       0x68 ./synergy/ssp/src/driver/r_can/hw/hw_can.o
                0x00002ccc                HW_CAN_MailboxMaskSet
 .text.HW_CAN_TimeStampReset
                0x00002d34       0x40 ./synergy/ssp/src/driver/r_can/hw/hw_can.o
                0x00002d34                HW_CAN_TimeStampReset
 .text.HW_CAN_BitRateGet
                0x00002d74       0x60 ./synergy/ssp/src/driver/r_can/hw/hw_can.o
                0x00002d74                HW_CAN_BitRateGet
 .text.HW_CAN_MailboxesClear
                0x00002dd4       0x50 ./synergy/ssp/src/driver/r_can/hw/hw_can.o
                0x00002dd4                HW_CAN_MailboxesClear
 .text.HW_CAN_MailboxTypeGet
                0x00002e24       0x10 ./synergy/ssp/src/driver/r_can/hw/hw_can.o
                0x00002e24                HW_CAN_MailboxTypeGet
 .text.HW_CAN_ReceiveDataGet
                0x00002e34       0x68 ./synergy/ssp/src/driver/r_can/hw/hw_can.o
                0x00002e34                HW_CAN_ReceiveDataGet
 .text.HW_CAN_TransmitFrameSend
                0x00002e9c       0x78 ./synergy/ssp/src/driver/r_can/hw/hw_can.o
                0x00002e9c                HW_CAN_TransmitFrameSend
 .text.HW_CAN_InterruptErrorGet
                0x00002f14       0x14 ./synergy/ssp/src/driver/r_can/hw/hw_can.o
                0x00002f14                HW_CAN_InterruptErrorGet
 .text.HW_CAN_StatusGet
                0x00002f28       0xc0 ./synergy/ssp/src/driver/r_can/hw/hw_can.o
                0x00002f28                HW_CAN_StatusGet
 .text.HW_CAN_ErrorsGet
                0x00002fe8       0x2c ./synergy/ssp/src/driver/r_can/hw/hw_can.o
                0x00002fe8                HW_CAN_ErrorsGet
 .text.R_CAN_VersionGet
                0x00003014       0x10 ./synergy/ssp/src/driver/r_can/r_can.o
                0x00003014                R_CAN_VersionGet
 .text.R_CAN_Control
                0x00003024       0x34 ./synergy/ssp/src/driver/r_can/r_can.o
                0x00003024                R_CAN_Control
 .text.R_CAN_Write
                0x00003058       0x74 ./synergy/ssp/src/driver/r_can/r_can.o
                0x00003058                R_CAN_Write
 .text.R_CAN_InfoGet
                0x000030cc       0x38 ./synergy/ssp/src/driver/r_can/r_can.o
                0x000030cc                R_CAN_InfoGet
 .text.R_CAN_Read
                0x00003104       0xbc ./synergy/ssp/src/driver/r_can/r_can.o
                0x00003104                R_CAN_Read
 .text.can_irq_disable
                0x000031c0      0x100 ./synergy/ssp/src/driver/r_can/r_can.o
 .text.R_CAN_Close
                0x000032c0       0x40 ./synergy/ssp/src/driver/r_can/r_can.o
                0x000032c0                R_CAN_Close
 .text.R_CAN_Open
                0x00003300      0x440 ./synergy/ssp/src/driver/r_can/r_can.o
                0x00003300                R_CAN_Open
 .text.can_error_isr
                0x00003740       0xe0 ./synergy/ssp/src/driver/r_can/r_can.o
                0x00003740                can_error_isr
 .text.can_mailbox_rx_isr
                0x00003820       0x7c ./synergy/ssp/src/driver/r_can/r_can.o
                0x00003820                can_mailbox_rx_isr
 .text.can_mailbox_tx_isr
                0x0000389c       0xb0 ./synergy/ssp/src/driver/r_can/r_can.o
                0x0000389c                can_mailbox_tx_isr
 .text.R_ADC_VersionGet
                0x0000394c       0x10 ./synergy/ssp/src/driver/r_adc/r_adc.o
                0x0000394c                R_ADC_VersionGet
 .text.R_ADC_OffsetSet
                0x0000395c        0x4 ./synergy/ssp/src/driver/r_adc/r_adc.o
                0x0000395c                R_ADC_OffsetSet
 .text.R_ADC_ScanStart
                0x00003960       0x44 ./synergy/ssp/src/driver/r_adc/r_adc.o
                0x00003960                R_ADC_ScanStart
 .text.R_ADC_ScanStop
                0x000039a4       0x34 ./synergy/ssp/src/driver/r_adc/r_adc.o
                0x000039a4                R_ADC_ScanStop
 .text.R_ADC_CheckScanDone
                0x000039d8       0x28 ./synergy/ssp/src/driver/r_adc/r_adc.o
                0x000039d8                R_ADC_CheckScanDone
 .text.R_ADC_Read
                0x00003a00       0x64 ./synergy/ssp/src/driver/r_adc/r_adc.o
                0x00003a00                R_ADC_Read
 .text.R_ADC_SetSampleStateCount
                0x00003a64       0x7c ./synergy/ssp/src/driver/r_adc/r_adc.o
                0x00003a64                R_ADC_SetSampleStateCount
 .text.R_ADC_InfoGet
                0x00003ae0      0x100 ./synergy/ssp/src/driver/r_adc/r_adc.o
                0x00003ae0                R_ADC_InfoGet
 .text.R_ADC_Calibrate
                0x00003be0       0x48 ./synergy/ssp/src/driver/r_adc/r_adc.o
                0x00003be0                R_ADC_Calibrate
 .text.r_adc_close_sub
                0x00003c28       0x60 ./synergy/ssp/src/driver/r_adc/r_adc.o
 .text.r_adc_open_configure_pga_settings.part.0
                0x00003c88      0x214 ./synergy/ssp/src/driver/r_adc/r_adc.o
 .text.R_ADC_Close
                0x00003e9c      0x104 ./synergy/ssp/src/driver/r_adc/r_adc.o
                0x00003e9c                R_ADC_Close
 .text.R_ADC_Read32
                0x00003fa0       0x90 ./synergy/ssp/src/driver/r_adc/r_adc.o
                0x00003fa0                R_ADC_Read32
 .text.R_ADC_Open
                0x00004030      0x4cc ./synergy/ssp/src/driver/r_adc/r_adc.o
                0x00004030                R_ADC_Open
 .text.R_ADC_ScanConfigure
                0x000044fc      0x454 ./synergy/ssp/src/driver/r_adc/r_adc.o
                0x000044fc                R_ADC_ScanConfigure
 .text.R_BSP_CacheOff
                0x00004950       0x28 ./synergy/ssp/src/bsp/mcu/s3a7/bsp_cache.o
                0x00004950                R_BSP_CacheOff
 .text.R_BSP_CacheSet
                0x00004978       0x48 ./synergy/ssp/src/bsp/mcu/s3a7/bsp_cache.o
                0x00004978                R_BSP_CacheSet
 .text.bsp_clock_init
                0x000049c0       0x84 ./synergy/ssp/src/bsp/mcu/s3a7/bsp_clocks.o
                0x000049c0                bsp_clock_init
 .text.bsp_cpu_clock_get
                0x00004a44       0x20 ./synergy/ssp/src/bsp/mcu/s3a7/bsp_clocks.o
                0x00004a44                bsp_cpu_clock_get
 .text.bsp_clock_set_callback
                0x00004a64       0x94 ./synergy/ssp/src/bsp/mcu/s3a7/bsp_clocks.o
                0x00004a64                bsp_clock_set_callback
 .text.R_BSP_FeatureAdcGet
                0x00004af8       0x2c ./synergy/ssp/src/bsp/mcu/s3a7/bsp_feature.o
                0x00004af8                R_BSP_FeatureAdcGet
 .text.R_BSP_FeatureCanGet
                0x00004b24       0x14 ./synergy/ssp/src/bsp/mcu/s3a7/bsp_feature.o
                0x00004b24                R_BSP_FeatureCanGet
 .text.R_BSP_FeatureIoportGet
                0x00004b38       0x10 ./synergy/ssp/src/bsp/mcu/s3a7/bsp_feature.o
                0x00004b38                R_BSP_FeatureIoportGet
 .text.R_BSP_FeatureCgcGet
                0x00004b48        0xc ./synergy/ssp/src/bsp/mcu/s3a7/bsp_feature.o
                0x00004b48                R_BSP_FeatureCgcGet
 .text.bsp_group_interrupt_open
                0x00004b54       0x10 ./synergy/ssp/src/bsp/mcu/s3a7/bsp_group_irq.o
                0x00004b54                bsp_group_interrupt_open
 .text.R_BSP_GroupIrqWrite
                0x00004b64       0x10 ./synergy/ssp/src/bsp/mcu/s3a7/bsp_group_irq.o
                0x00004b64                R_BSP_GroupIrqWrite
 .text.NMI_Handler
                0x00004b74      0x1c8 ./synergy/ssp/src/bsp/mcu/s3a7/bsp_group_irq.o
                0x00004b74                NMI_Handler
 .text.R_BSP_ModuleStop
                0x00004d3c       0x74 ./synergy/ssp/src/bsp/mcu/s3a7/bsp_module_stop.o
                0x00004d3c                R_BSP_ModuleStop
 .text.R_BSP_ModuleStart
                0x00004db0       0x90 ./synergy/ssp/src/bsp/mcu/s3a7/bsp_module_stop.o
                0x00004db0                R_BSP_ModuleStart
 .text.bsp_init_internal
                0x00004e40        0x4 ./synergy/ssp/src/bsp/mcu/all/bsp_common.o
                0x00004e40                bsp_init_internal
                0x00004e40                bsp_init
 .text.software_delay_loop
                0x00004e44        0xc ./synergy/ssp/src/bsp/mcu/all/bsp_delay.o
 .text.R_BSP_SoftwareDelay
                0x00004e50       0x60 ./synergy/ssp/src/bsp/mcu/all/bsp_delay.o
                0x00004e50                R_BSP_SoftwareDelay
 .text.R_BSP_IrqStatusClear
                0x00004eb0       0x18 ./synergy/ssp/src/bsp/mcu/all/bsp_irq.o
                0x00004eb0                R_BSP_IrqStatusClear
 .text.bsp_irq_cfg
                0x00004ec8       0x40 ./synergy/ssp/src/bsp/mcu/all/bsp_irq.o
                0x00004ec8                bsp_irq_cfg
 .text.R_BSP_HardwareLock
                0x00004f08       0x5c ./synergy/ssp/src/bsp/mcu/all/bsp_locking.o
                0x00004f08                R_BSP_HardwareLock
 .text.R_BSP_HardwareUnlock
                0x00004f64       0x3c ./synergy/ssp/src/bsp/mcu/all/bsp_locking.o
                0x00004f64                R_BSP_HardwareUnlock
 .text.bsp_init_hardware_locks
                0x00004fa0       0x60 ./synergy/ssp/src/bsp/mcu/all/bsp_locking.o
                0x00004fa0                bsp_init_hardware_locks
 .text.R_BSP_RegisterProtectEnable
                0x00005000       0x60 ./synergy/ssp/src/bsp/mcu/all/bsp_register_protection.o
                0x00005000                R_BSP_RegisterProtectEnable
 .text.R_BSP_RegisterProtectDisable
                0x00005060       0x54 ./synergy/ssp/src/bsp/mcu/all/bsp_register_protection.o
                0x00005060                R_BSP_RegisterProtectDisable
 .text.bsp_register_protect_open
                0x000050b4       0x10 ./synergy/ssp/src/bsp/mcu/all/bsp_register_protection.o
                0x000050b4                bsp_register_protect_open
 .text._sbrk    0x000050c4       0x3c ./synergy/ssp/src/bsp/mcu/all/bsp_sbrk.o
                0x000050c4                _sbrk
 .text.Default_Handler
                0x00005100        0x4 ./synergy/ssp/src/bsp/cmsis/Device/RENESAS/S3A7/Source/startup_S3A7.o
                0x00005100                HardFault_Handler
                0x00005100                UsageFault_Handler
                0x00005100                Default_Handler
                0x00005100                MemManage_Handler
                0x00005100                SVC_Handler
                0x00005100                BusFault_Handler
                0x00005100                DebugMon_Handler
 .text.Reset_Handler
                0x00005104        0xc ./synergy/ssp/src/bsp/cmsis/Device/RENESAS/S3A7/Source/startup_S3A7.o
                0x00005104                Reset_Handler
 .text.R_BSP_WarmStart
                0x00005110        0x4 ./synergy/ssp/src/bsp/cmsis/Device/RENESAS/S3A7/Source/system_S3A7.o
                0x00005110                R_BSP_WarmStart
 .text.SystemInit
                0x00005114      0x1b4 ./synergy/ssp/src/bsp/cmsis/Device/RENESAS/S3A7/Source/system_S3A7.o
                0x00005114                SystemInit
 .text.adc_thread_func
                0x000052c8       0x10 ./src/synergy_gen/adc_thread.o
 .text.adc_thread_create
                0x000052d8       0x5c ./src/synergy_gen/adc_thread.o
                0x000052d8                adc_thread_create
 .text.can_thread_func
                0x00005334       0x10 ./src/synergy_gen/can_thread.o
 .text.can_thread_create
                0x00005344       0x58 ./src/synergy_gen/can_thread.o
                0x00005344                can_thread_create
 .text.g_common_init
                0x0000539c        0x4 ./src/synergy_gen/common_data.o
                0x0000539c                g_common_init
 .text.drv_thread_func
                0x000053a0       0x10 ./src/synergy_gen/drv_thread.o
 .text.drv_thread_create
                0x000053b0       0x58 ./src/synergy_gen/drv_thread.o
                0x000053b0                drv_thread_create
 .text.g_hal_init
                0x00005408        0x4 ./src/synergy_gen/hal_data.o
                0x00005408                g_hal_init
 .text.lcd_thread_func
                0x0000540c       0x10 ./src/synergy_gen/lcd_thread.o
 .text.lcd_thread_create
                0x0000541c       0x5c ./src/synergy_gen/lcd_thread.o
                0x0000541c                lcd_thread_create
 .text.tx_application_define_internal
                0x00005478        0x4 ./src/synergy_gen/main.o
                0x00005478                tx_application_define_user
                0x00005478                tx_application_define_internal
 .text.tx_startup_err_callback_internal
                0x0000547c        0x4 ./src/synergy_gen/main.o
                0x0000547c                tx_startup_err_callback_internal
                0x0000547c                tx_startup_err_callback
 .text.tx_application_define
                0x00005480       0x54 ./src/synergy_gen/main.o
                0x00005480                tx_application_define
 .text.tx_startup_common_init
                0x000054d4       0x64 ./src/synergy_gen/main.o
                0x000054d4                tx_startup_common_init
 .text.startup.main
                0x00005538        0xc ./src/synergy_gen/main.o
                0x00005538                main
 .text.status_led_func
                0x00005544       0x10 ./src/synergy_gen/status_led.o
 .text.status_led_create
                0x00005554       0x5c ./src/synergy_gen/status_led.o
                0x00005554                status_led_create
 .text.scanADC  0x000055b0       0x70 ./src/adc_thread_entry.o
                0x000055b0                scanADC
 .text.setMux   0x00005620       0xa0 ./src/adc_thread_entry.o
                0x00005620                setMux
 .text.adc_thread_entry
                0x000056c0       0x44 ./src/adc_thread_entry.o
                0x000056c0                adc_thread_entry
 .text.can_rx.part.0
                0x00005704       0xac ./src/can_thread_entry.o
 .text.can_thread_entry
                0x000057b0       0xa0 ./src/can_thread_entry.o
                0x000057b0                can_thread_entry
 .text.CanCallback
                0x00005850       0x40 ./src/can_thread_entry.o
                0x00005850                CanCallback
 .text.drv_thread_entry
                0x00005890       0x7c ./src/drv_thread_entry.o
                0x00005890                drv_thread_entry
 .text.IIC_Start
                0x0000590c       0x50 ./src/lcd_thread_entry.o
                0x0000590c                IIC_Start
 .text.IIC_Stop
                0x0000595c       0x3c ./src/lcd_thread_entry.o
                0x0000595c                IIC_Stop
 .text.IIC_Ack  0x00005998       0x48 ./src/lcd_thread_entry.o
                0x00005998                IIC_Ack
 .text.IIC_Transfer
                0x000059e0       0xa0 ./src/lcd_thread_entry.o
                0x000059e0                IIC_Transfer
 .text.disp_char
                0x00005a80       0x74 ./src/lcd_thread_entry.o
                0x00005a80                disp_char
 .text.lcd_thread_entry
                0x00005af4      0x1e8 ./src/lcd_thread_entry.o
                0x00005af4                lcd_thread_entry
 .text.status_led_entry
                0x00005cdc       0x2c ./src/status_led_entry.o
                0x00005cdc                status_led_entry
 .text.R_FMI_ProductInfoGet
                0x00005d08       0x34 C:\Users\khurr\e2_studio_latest\workspace\COPJunction\synergy\ssp\src\driver\r_fmi\libs\libfmi_cm4_s3a7_gcc.a(r_fmi.o)
 .text.R_FMI_VersionGet
                0x00005d3c       0x10 C:\Users\khurr\e2_studio_latest\workspace\COPJunction\synergy\ssp\src\driver\r_fmi\libs\libfmi_cm4_s3a7_gcc.a(r_fmi.o)
 .text.R_FMI_UniqueIdGet
                0x00005d4c       0x40 C:\Users\khurr\e2_studio_latest\workspace\COPJunction\synergy\ssp\src\driver\r_fmi\libs\libfmi_cm4_s3a7_gcc.a(r_fmi.o)
 .text.R_FMI_EventInfoGet
                0x00005d8c       0x8c C:\Users\khurr\e2_studio_latest\workspace\COPJunction\synergy\ssp\src\driver\r_fmi\libs\libfmi_cm4_s3a7_gcc.a(r_fmi.o)
 .text.R_FMI_Init
                0x00005e18       0x90 C:\Users\khurr\e2_studio_latest\workspace\COPJunction\synergy\ssp\src\driver\r_fmi\libs\libfmi_cm4_s3a7_gcc.a(r_fmi.o)
 .text.R_FMI_FeatureGet
                0x00005ea8      0x238 C:\Users\khurr\e2_studio_latest\workspace\COPJunction\synergy\ssp\src\driver\r_fmi\libs\libfmi_cm4_s3a7_gcc.a(r_fmi.o)
 .text._txe_semaphore_create
                0x000060e0       0xa0 C:\Users\khurr\e2_studio_latest\workspace\COPJunction\synergy\ssp\src\framework\el\tx\cm4_gcc\libtx.a(txe_semaphore_create.o)
                0x000060e0                _txe_semaphore_create
 .text._txe_semaphore_get
                0x00006180       0x2c C:\Users\khurr\e2_studio_latest\workspace\COPJunction\synergy\ssp\src\framework\el\tx\cm4_gcc\libtx.a(txe_semaphore_get.o)
                0x00006180                _txe_semaphore_get
 .text._txe_semaphore_put
                0x000061ac       0x18 C:\Users\khurr\e2_studio_latest\workspace\COPJunction\synergy\ssp\src\framework\el\tx\cm4_gcc\libtx.a(txe_semaphore_put.o)
                0x000061ac                _txe_semaphore_put
 .text._txe_thread_create
                0x000061c4      0x14c C:\Users\khurr\e2_studio_latest\workspace\COPJunction\synergy\ssp\src\framework\el\tx\cm4_gcc\libtx.a(txe_thread_create.o)
                0x000061c4                _txe_thread_create
 .text._tx_initialize_high_level
                0x00006310       0x70 C:\Users\khurr\e2_studio_latest\workspace\COPJunction\synergy\ssp\src\framework\el\tx\cm4_gcc\libtx.a(tx_initialize_high_level.o)
                0x00006310                _tx_initialize_high_level
 .text._tx_initialize_kernel_enter
                0x00006380       0x48 C:\Users\khurr\e2_studio_latest\workspace\COPJunction\synergy\ssp\src\framework\el\tx\cm4_gcc\libtx.a(tx_initialize_kernel_enter.o)
                0x00006380                _tx_initialize_kernel_enter
 .text.tx_isr_end
                0x000063c8        0x4 C:\Users\khurr\e2_studio_latest\workspace\COPJunction\synergy\ssp\src\framework\el\tx\cm4_gcc\libtx.a(tx_isr_end.o)
                0x000063c8                tx_isr_end
 .text.tx_isr_start
                0x000063cc        0x4 C:\Users\khurr\e2_studio_latest\workspace\COPJunction\synergy\ssp\src\framework\el\tx\cm4_gcc\libtx.a(tx_isr_start.o)
                0x000063cc                tx_isr_start
 .text._tx_semaphore_create
                0x000063d0       0x54 C:\Users\khurr\e2_studio_latest\workspace\COPJunction\synergy\ssp\src\framework\el\tx\cm4_gcc\libtx.a(tx_semaphore_create.o)
                0x000063d0                _tx_semaphore_create
 .text._tx_semaphore_get
                0x00006424       0x84 C:\Users\khurr\e2_studio_latest\workspace\COPJunction\synergy\ssp\src\framework\el\tx\cm4_gcc\libtx.a(tx_semaphore_get.o)
                0x00006424                _tx_semaphore_get
 .text._tx_semaphore_put
                0x000064a8       0x54 C:\Users\khurr\e2_studio_latest\workspace\COPJunction\synergy\ssp\src\framework\el\tx\cm4_gcc\libtx.a(tx_semaphore_put.o)
                0x000064a8                _tx_semaphore_put
 .text._tx_thread_create
                0x000064fc      0x134 C:\Users\khurr\e2_studio_latest\workspace\COPJunction\synergy\ssp\src\framework\el\tx\cm4_gcc\libtx.a(tx_thread_create.o)
                0x000064fc                _tx_thread_create
 .text._tx_thread_initialize
                0x00006630       0x64 C:\Users\khurr\e2_studio_latest\workspace\COPJunction\synergy\ssp\src\framework\el\tx\cm4_gcc\libtx.a(tx_thread_initialize.o)
                0x00006630                _tx_thread_initialize
 .text._tx_thread_shell_entry
                0x00006694       0x54 C:\Users\khurr\e2_studio_latest\workspace\COPJunction\synergy\ssp\src\framework\el\tx\cm4_gcc\libtx.a(tx_thread_shell_entry.o)
                0x00006694                _tx_thread_shell_entry
 .text._tx_thread_sleep
                0x000066e8       0x60 C:\Users\khurr\e2_studio_latest\workspace\COPJunction\synergy\ssp\src\framework\el\tx\cm4_gcc\libtx.a(tx_thread_sleep.o)
                0x000066e8                _tx_thread_sleep
 .text._tx_thread_system_preempt_check
                0x00006748       0x3c C:\Users\khurr\e2_studio_latest\workspace\COPJunction\synergy\ssp\src\framework\el\tx\cm4_gcc\libtx.a(tx_thread_system_preempt_check.o)
                0x00006748                _tx_thread_system_preempt_check
 .text._tx_thread_system_resume
                0x00006784       0xec C:\Users\khurr\e2_studio_latest\workspace\COPJunction\synergy\ssp\src\framework\el\tx\cm4_gcc\libtx.a(tx_thread_system_resume.o)
                0x00006784                _tx_thread_system_resume
 .text._tx_thread_system_suspend
                0x00006870      0x100 C:\Users\khurr\e2_studio_latest\workspace\COPJunction\synergy\ssp\src\framework\el\tx\cm4_gcc\libtx.a(tx_thread_system_suspend.o)
                0x00006870                _tx_thread_system_suspend
 .text._tx_thread_timeout
                0x00006970       0x30 C:\Users\khurr\e2_studio_latest\workspace\COPJunction\synergy\ssp\src\framework\el\tx\cm4_gcc\libtx.a(tx_thread_timeout.o)
                0x00006970                _tx_thread_timeout
 .text._tx_timer_initialize
                0x000069a0       0x74 C:\Users\khurr\e2_studio_latest\workspace\COPJunction\synergy\ssp\src\framework\el\tx\cm4_gcc\libtx.a(tx_timer_initialize.o)
                0x000069a0                _tx_timer_initialize
 .text._tx_timer_system_activate
                0x00006a14       0x54 C:\Users\khurr\e2_studio_latest\workspace\COPJunction\synergy\ssp\src\framework\el\tx\cm4_gcc\libtx.a(tx_timer_system_activate.o)
                0x00006a14                _tx_timer_system_activate
 .text._tx_timer_system_deactivate
                0x00006a68       0x2c C:\Users\khurr\e2_studio_latest\workspace\COPJunction\synergy\ssp\src\framework\el\tx\cm4_gcc\libtx.a(tx_timer_system_deactivate.o)
                0x00006a68                _tx_timer_system_deactivate
 .text._tx_initialize_low_level
                0x00006a94       0x88 C:\Users\khurr\e2_studio_latest\workspace\COPJunction\synergy\ssp\src\framework\el\tx\cm4_gcc\libtx.a(tx_initialize_low_level.o)
                0x00006a94                _tx_initialize_low_level
 .text._tx_thread_schedule
                0x00006b1c       0x60 C:\Users\khurr\e2_studio_latest\workspace\COPJunction\synergy\ssp\src\framework\el\tx\cm4_gcc\libtx.a(tx_thread_schedule.o)
                0x00006b1c                _tx_thread_schedule
 .text._tx_port_wait_thread_ready
                0x00006b7c       0xa8 C:\Users\khurr\e2_studio_latest\workspace\COPJunction\synergy\ssp\src\framework\el\tx\cm4_gcc\libtx.a(tx_thread_schedule.o)
                0x00006b7c                _tx_port_wait_thread_ready
 .text.PendSV_Handler
                0x00006c24       0xa8 C:\Users\khurr\e2_studio_latest\workspace\COPJunction\synergy\ssp\src\framework\el\tx\cm4_gcc\libtx.a(tx_thread_schedule.o)
                0x00006c24                PendSV_Handler
 .text.SysTick_Handler
                0x00006ccc        0x4 C:\Users\khurr\e2_studio_latest\workspace\COPJunction\synergy\ssp\src\framework\el\tx\cm4_gcc\libtx.a(tx_thread_schedule.o)
                0x00006ccc                SysTick_Handler
 .text._tx_thread_stack_build
                0x00006cd0       0x50 C:\Users\khurr\e2_studio_latest\workspace\COPJunction\synergy\ssp\src\framework\el\tx\cm4_gcc\libtx.a(tx_thread_stack_build.o)
                0x00006cd0                _tx_thread_stack_build
 .text._tx_timer_interrupt
                0x00006d20       0xc0 C:\Users\khurr\e2_studio_latest\workspace\COPJunction\synergy\ssp\src\framework\el\tx\cm4_gcc\libtx.a(tx_timer_interrupt.o)
                0x00006d20                _tx_timer_interrupt
 .text._tx_semaphore_cleanup
                0x00006de0       0x80 C:\Users\khurr\e2_studio_latest\workspace\COPJunction\synergy\ssp\src\framework\el\tx\cm4_gcc\libtx.a(tx_semaphore_cleanup.o)
                0x00006de0                _tx_semaphore_cleanup
 .text._tx_thread_time_slice
                0x00006e60       0x6c C:\Users\khurr\e2_studio_latest\workspace\COPJunction\synergy\ssp\src\framework\el\tx\cm4_gcc\libtx.a(tx_thread_time_slice.o)
                0x00006e60                _tx_thread_time_slice
 .text._tx_timer_expiration_process
                0x00006ecc      0x104 C:\Users\khurr\e2_studio_latest\workspace\COPJunction\synergy\ssp\src\framework\el\tx\cm4_gcc\libtx.a(tx_timer_expiration_process.o)
                0x00006ecc                _tx_timer_expiration_process
 .text.__errno  0x00006fd0        0xc c:/renesas/synergy/e2studio_v2022-10_ssp_v2.4.0/toolchains/gcc_arm/gcc-arm-none-eabi-10.3-2021.10/bin/../lib/gcc/arm-none-eabi/10.3.1/../../../../arm-none-eabi/lib/thumb/v7e-m+fp/hard\libg_nano.a(lib_a-errno.o)
                0x00006fd0                __errno
 .text.memcpy   0x00006fdc       0x1c c:/renesas/synergy/e2studio_v2022-10_ssp_v2.4.0/toolchains/gcc_arm/gcc-arm-none-eabi-10.3-2021.10/bin/../lib/gcc/arm-none-eabi/10.3.1/../../../../arm-none-eabi/lib/thumb/v7e-m+fp/hard\libg_nano.a(lib_a-memcpy-stub.o)
                0x00006fdc                memcpy
 .text.memset   0x00006ff8       0x10 c:/renesas/synergy/e2studio_v2022-10_ssp_v2.4.0/toolchains/gcc_arm/gcc-arm-none-eabi-10.3-2021.10/bin/../lib/gcc/arm-none-eabi/10.3.1/../../../../arm-none-eabi/lib/thumb/v7e-m+fp/hard\libg_nano.a(lib_a-memset.o)
                0x00006ff8                memset
 .text.srand    0x00007008       0x5c c:/renesas/synergy/e2studio_v2022-10_ssp_v2.4.0/toolchains/gcc_arm/gcc-arm-none-eabi-10.3-2021.10/bin/../lib/gcc/arm-none-eabi/10.3.1/../../../../arm-none-eabi/lib/thumb/v7e-m+fp/hard\libg_nano.a(lib_a-rand.o)
                0x00007008                srand
 .text.__assert_func
                0x00007064       0x3c c:/renesas/synergy/e2studio_v2022-10_ssp_v2.4.0/toolchains/gcc_arm/gcc-arm-none-eabi-10.3-2021.10/bin/../lib/gcc/arm-none-eabi/10.3.1/../../../../arm-none-eabi/lib/thumb/v7e-m+fp/hard\libg_nano.a(lib_a-assert.o)
                0x00007064                __assert_func
 .text.fprintf  0x000070a0       0x24 c:/renesas/synergy/e2studio_v2022-10_ssp_v2.4.0/toolchains/gcc_arm/gcc-arm-none-eabi-10.3-2021.10/bin/../lib/gcc/arm-none-eabi/10.3.1/../../../../arm-none-eabi/lib/thumb/v7e-m+fp/hard\libg_nano.a(lib_a-fprintf.o)
                0x000070a0                fiprintf
                0x000070a0                fprintf
 .text.malloc   0x000070c4       0x10 c:/renesas/synergy/e2studio_v2022-10_ssp_v2.4.0/toolchains/gcc_arm/gcc-arm-none-eabi-10.3-2021.10/bin/../lib/gcc/arm-none-eabi/10.3.1/../../../../arm-none-eabi/lib/thumb/v7e-m+fp/hard\libg_nano.a(lib_a-malloc.o)
                0x000070c4                malloc
 .text._free_r  0x000070d4       0x98 c:/renesas/synergy/e2studio_v2022-10_ssp_v2.4.0/toolchains/gcc_arm/gcc-arm-none-eabi-10.3-2021.10/bin/../lib/gcc/arm-none-eabi/10.3.1/../../../../arm-none-eabi/lib/thumb/v7e-m+fp/hard\libg_nano.a(lib_a-nano-freer.o)
                0x000070d4                _free_r
 .text.sbrk_aligned
                0x0000716c       0x40 c:/renesas/synergy/e2studio_v2022-10_ssp_v2.4.0/toolchains/gcc_arm/gcc-arm-none-eabi-10.3-2021.10/bin/../lib/gcc/arm-none-eabi/10.3.1/../../../../arm-none-eabi/lib/thumb/v7e-m+fp/hard\libg_nano.a(lib_a-nano-mallocr.o)
 .text._malloc_r
                0x000071ac       0xe8 c:/renesas/synergy/e2studio_v2022-10_ssp_v2.4.0/toolchains/gcc_arm/gcc-arm-none-eabi-10.3-2021.10/bin/../lib/gcc/arm-none-eabi/10.3.1/../../../../arm-none-eabi/lib/thumb/v7e-m+fp/hard\libg_nano.a(lib_a-nano-mallocr.o)
                0x000071ac                _malloc_r
 .text.__sfputc_r
                0x00007294       0x2e c:/renesas/synergy/e2studio_v2022-10_ssp_v2.4.0/toolchains/gcc_arm/gcc-arm-none-eabi-10.3-2021.10/bin/../lib/gcc/arm-none-eabi/10.3.1/../../../../arm-none-eabi/lib/thumb/v7e-m+fp/hard\libg_nano.a(lib_a-nano-vfprintf.o)
 .text.__sfputs_r
                0x000072c2       0x24 c:/renesas/synergy/e2studio_v2022-10_ssp_v2.4.0/toolchains/gcc_arm/gcc-arm-none-eabi-10.3-2021.10/bin/../lib/gcc/arm-none-eabi/10.3.1/../../../../arm-none-eabi/lib/thumb/v7e-m+fp/hard\libg_nano.a(lib_a-nano-vfprintf.o)
                0x000072c2                __sfputs_r
 *fill*         0x000072e6        0x2 ff
 .text._vfprintf_r
                0x000072e8      0x260 c:/renesas/synergy/e2studio_v2022-10_ssp_v2.4.0/toolchains/gcc_arm/gcc-arm-none-eabi-10.3-2021.10/bin/../lib/gcc/arm-none-eabi/10.3.1/../../../../arm-none-eabi/lib/thumb/v7e-m+fp/hard\libg_nano.a(lib_a-nano-vfprintf.o)
                0x000072e8                _vfprintf_r
                0x000072e8                _vfiprintf_r
 .text._printf_common
                0x00007548       0xda c:/renesas/synergy/e2studio_v2022-10_ssp_v2.4.0/toolchains/gcc_arm/gcc-arm-none-eabi-10.3-2021.10/bin/../lib/gcc/arm-none-eabi/10.3.1/../../../../arm-none-eabi/lib/thumb/v7e-m+fp/hard\libg_nano.a(lib_a-nano-vfprintf_i.o)
                0x00007548                _printf_common
 *fill*         0x00007622        0x2 ff
 .text._printf_i
                0x00007624      0x24c c:/renesas/synergy/e2studio_v2022-10_ssp_v2.4.0/toolchains/gcc_arm/gcc-arm-none-eabi-10.3-2021.10/bin/../lib/gcc/arm-none-eabi/10.3.1/../../../../arm-none-eabi/lib/thumb/v7e-m+fp/hard\libg_nano.a(lib_a-nano-vfprintf_i.o)
                0x00007624                _printf_i
 .text._sbrk_r  0x00007870       0x20 c:/renesas/synergy/e2studio_v2022-10_ssp_v2.4.0/toolchains/gcc_arm/gcc-arm-none-eabi-10.3-2021.10/bin/../lib/gcc/arm-none-eabi/10.3.1/../../../../arm-none-eabi/lib/thumb/v7e-m+fp/hard\libg_nano.a(lib_a-sbrkr.o)
                0x00007870                _sbrk_r
 .text.__swbuf_r
                0x00007890       0xa4 c:/renesas/synergy/e2studio_v2022-10_ssp_v2.4.0/toolchains/gcc_arm/gcc-arm-none-eabi-10.3-2021.10/bin/../lib/gcc/arm-none-eabi/10.3.1/../../../../arm-none-eabi/lib/thumb/v7e-m+fp/hard\libg_nano.a(lib_a-wbuf.o)
                0x00007890                __swbuf_r
 .text.__swsetup_r
                0x00007934       0xdc c:/renesas/synergy/e2studio_v2022-10_ssp_v2.4.0/toolchains/gcc_arm/gcc-arm-none-eabi-10.3-2021.10/bin/../lib/gcc/arm-none-eabi/10.3.1/../../../../arm-none-eabi/lib/thumb/v7e-m+fp/hard\libg_nano.a(lib_a-wsetup.o)
                0x00007934                __swsetup_r
 .text.abort    0x00007a10        0xe c:/renesas/synergy/e2studio_v2022-10_ssp_v2.4.0/toolchains/gcc_arm/gcc-arm-none-eabi-10.3-2021.10/bin/../lib/gcc/arm-none-eabi/10.3.1/../../../../arm-none-eabi/lib/thumb/v7e-m+fp/hard\libg_nano.a(lib_a-abort.o)
                0x00007a10                abort
 *fill*         0x00007a1e        0x2 ff
 .text.__sflush_r
                0x00007a20      0x10c c:/renesas/synergy/e2studio_v2022-10_ssp_v2.4.0/toolchains/gcc_arm/gcc-arm-none-eabi-10.3-2021.10/bin/../lib/gcc/arm-none-eabi/10.3.1/../../../../arm-none-eabi/lib/thumb/v7e-m+fp/hard\libg_nano.a(lib_a-fflush.o)
                0x00007a20                __sflush_r
 .text._fflush_r
                0x00007b2c       0x78 c:/renesas/synergy/e2studio_v2022-10_ssp_v2.4.0/toolchains/gcc_arm/gcc-arm-none-eabi-10.3-2021.10/bin/../lib/gcc/arm-none-eabi/10.3.1/../../../../arm-none-eabi/lib/thumb/v7e-m+fp/hard\libg_nano.a(lib_a-fflush.o)
                0x00007b2c                _fflush_r
 .text.std      0x00007ba4       0x48 c:/renesas/synergy/e2studio_v2022-10_ssp_v2.4.0/toolchains/gcc_arm/gcc-arm-none-eabi-10.3-2021.10/bin/../lib/gcc/arm-none-eabi/10.3.1/../../../../arm-none-eabi/lib/thumb/v7e-m+fp/hard\libg_nano.a(lib_a-findfp.o)
 .text._cleanup_r
                0x00007bec        0xc c:/renesas/synergy/e2studio_v2022-10_ssp_v2.4.0/toolchains/gcc_arm/gcc-arm-none-eabi-10.3-2021.10/bin/../lib/gcc/arm-none-eabi/10.3.1/../../../../arm-none-eabi/lib/thumb/v7e-m+fp/hard\libg_nano.a(lib_a-findfp.o)
                0x00007bec                _cleanup_r
 .text.__sfmoreglue
                0x00007bf8       0x2c c:/renesas/synergy/e2studio_v2022-10_ssp_v2.4.0/toolchains/gcc_arm/gcc-arm-none-eabi-10.3-2021.10/bin/../lib/gcc/arm-none-eabi/10.3.1/../../../../arm-none-eabi/lib/thumb/v7e-m+fp/hard\libg_nano.a(lib_a-findfp.o)
                0x00007bf8                __sfmoreglue
 .text.__sfp_lock_acquire
                0x00007c24        0xc c:/renesas/synergy/e2studio_v2022-10_ssp_v2.4.0/toolchains/gcc_arm/gcc-arm-none-eabi-10.3-2021.10/bin/../lib/gcc/arm-none-eabi/10.3.1/../../../../arm-none-eabi/lib/thumb/v7e-m+fp/hard\libg_nano.a(lib_a-findfp.o)
                0x00007c24                __sfp_lock_acquire
 .text.__sfp_lock_release
                0x00007c30        0xc c:/renesas/synergy/e2studio_v2022-10_ssp_v2.4.0/toolchains/gcc_arm/gcc-arm-none-eabi-10.3-2021.10/bin/../lib/gcc/arm-none-eabi/10.3.1/../../../../arm-none-eabi/lib/thumb/v7e-m+fp/hard\libg_nano.a(lib_a-findfp.o)
                0x00007c30                __sfp_lock_release
 .text.__sinit_lock_acquire
                0x00007c3c        0xc c:/renesas/synergy/e2studio_v2022-10_ssp_v2.4.0/toolchains/gcc_arm/gcc-arm-none-eabi-10.3-2021.10/bin/../lib/gcc/arm-none-eabi/10.3.1/../../../../arm-none-eabi/lib/thumb/v7e-m+fp/hard\libg_nano.a(lib_a-findfp.o)
                0x00007c3c                __sinit_lock_acquire
 .text.__sinit_lock_release
                0x00007c48        0xc c:/renesas/synergy/e2studio_v2022-10_ssp_v2.4.0/toolchains/gcc_arm/gcc-arm-none-eabi-10.3-2021.10/bin/../lib/gcc/arm-none-eabi/10.3.1/../../../../arm-none-eabi/lib/thumb/v7e-m+fp/hard\libg_nano.a(lib_a-findfp.o)
                0x00007c48                __sinit_lock_release
 .text.__sinit  0x00007c54       0x70 c:/renesas/synergy/e2studio_v2022-10_ssp_v2.4.0/toolchains/gcc_arm/gcc-arm-none-eabi-10.3-2021.10/bin/../lib/gcc/arm-none-eabi/10.3.1/../../../../arm-none-eabi/lib/thumb/v7e-m+fp/hard\libg_nano.a(lib_a-findfp.o)
                0x00007c54                __sinit
 .text.__sfp    0x00007cc4       0x8c c:/renesas/synergy/e2studio_v2022-10_ssp_v2.4.0/toolchains/gcc_arm/gcc-arm-none-eabi-10.3-2021.10/bin/../lib/gcc/arm-none-eabi/10.3.1/../../../../arm-none-eabi/lib/thumb/v7e-m+fp/hard\libg_nano.a(lib_a-findfp.o)
                0x00007cc4                __sfp
 .text._fwalk_reent
                0x00007d50       0x3e c:/renesas/synergy/e2studio_v2022-10_ssp_v2.4.0/toolchains/gcc_arm/gcc-arm-none-eabi-10.3-2021.10/bin/../lib/gcc/arm-none-eabi/10.3.1/../../../../arm-none-eabi/lib/thumb/v7e-m+fp/hard\libg_nano.a(lib_a-fwalk.o)
                0x00007d50                _fwalk_reent
 .text.__retarget_lock_init_recursive
                0x00007d8e        0x2 c:/renesas/synergy/e2studio_v2022-10_ssp_v2.4.0/toolchains/gcc_arm/gcc-arm-none-eabi-10.3-2021.10/bin/../lib/gcc/arm-none-eabi/10.3.1/../../../../arm-none-eabi/lib/thumb/v7e-m+fp/hard\libg_nano.a(lib_a-lock.o)
                0x00007d8e                __retarget_lock_init_recursive
 .text.__retarget_lock_acquire_recursive
                0x00007d90        0x2 c:/renesas/synergy/e2studio_v2022-10_ssp_v2.4.0/toolchains/gcc_arm/gcc-arm-none-eabi-10.3-2021.10/bin/../lib/gcc/arm-none-eabi/10.3.1/../../../../arm-none-eabi/lib/thumb/v7e-m+fp/hard\libg_nano.a(lib_a-lock.o)
                0x00007d90                __retarget_lock_acquire_recursive
 .text.__retarget_lock_release_recursive
                0x00007d92        0x2 c:/renesas/synergy/e2studio_v2022-10_ssp_v2.4.0/toolchains/gcc_arm/gcc-arm-none-eabi-10.3-2021.10/bin/../lib/gcc/arm-none-eabi/10.3.1/../../../../arm-none-eabi/lib/thumb/v7e-m+fp/hard\libg_nano.a(lib_a-lock.o)
                0x00007d92                __retarget_lock_release_recursive
 .text.__swhatbuf_r
                0x00007d94       0x4a c:/renesas/synergy/e2studio_v2022-10_ssp_v2.4.0/toolchains/gcc_arm/gcc-arm-none-eabi-10.3-2021.10/bin/../lib/gcc/arm-none-eabi/10.3.1/../../../../arm-none-eabi/lib/thumb/v7e-m+fp/hard\libg_nano.a(lib_a-makebuf.o)
                0x00007d94                __swhatbuf_r
 *fill*         0x00007dde        0x2 ff
 .text.__smakebuf_r
                0x00007de0       0x80 c:/renesas/synergy/e2studio_v2022-10_ssp_v2.4.0/toolchains/gcc_arm/gcc-arm-none-eabi-10.3-2021.10/bin/../lib/gcc/arm-none-eabi/10.3.1/../../../../arm-none-eabi/lib/thumb/v7e-m+fp/hard\libg_nano.a(lib_a-makebuf.o)
                0x00007de0                __smakebuf_r
 .text          0x00007e60       0xa0 c:/renesas/synergy/e2studio_v2022-10_ssp_v2.4.0/toolchains/gcc_arm/gcc-arm-none-eabi-10.3-2021.10/bin/../lib/gcc/arm-none-eabi/10.3.1/../../../../arm-none-eabi/lib/thumb/v7e-m+fp/hard\libg_nano.a(lib_a-memchr.o)
                0x00007e60                memchr
 .text.__malloc_lock
                0x00007f00        0xc c:/renesas/synergy/e2studio_v2022-10_ssp_v2.4.0/toolchains/gcc_arm/gcc-arm-none-eabi-10.3-2021.10/bin/../lib/gcc/arm-none-eabi/10.3.1/../../../../arm-none-eabi/lib/thumb/v7e-m+fp/hard\libg_nano.a(lib_a-mlock.o)
                0x00007f00                __malloc_lock
 .text.__malloc_unlock
                0x00007f0c        0xc c:/renesas/synergy/e2studio_v2022-10_ssp_v2.4.0/toolchains/gcc_arm/gcc-arm-none-eabi-10.3-2021.10/bin/../lib/gcc/arm-none-eabi/10.3.1/../../../../arm-none-eabi/lib/thumb/v7e-m+fp/hard\libg_nano.a(lib_a-mlock.o)
                0x00007f0c                __malloc_unlock
 .text._raise_r
                0x00007f18       0x50 c:/renesas/synergy/e2studio_v2022-10_ssp_v2.4.0/toolchains/gcc_arm/gcc-arm-none-eabi-10.3-2021.10/bin/../lib/gcc/arm-none-eabi/10.3.1/../../../../arm-none-eabi/lib/thumb/v7e-m+fp/hard\libg_nano.a(lib_a-signal.o)
                0x00007f18                _raise_r
 .text.raise    0x00007f68       0x10 c:/renesas/synergy/e2studio_v2022-10_ssp_v2.4.0/toolchains/gcc_arm/gcc-arm-none-eabi-10.3-2021.10/bin/../lib/gcc/arm-none-eabi/10.3.1/../../../../arm-none-eabi/lib/thumb/v7e-m+fp/hard\libg_nano.a(lib_a-signal.o)
                0x00007f68                raise
 .text._kill_r  0x00007f78       0x24 c:/renesas/synergy/e2studio_v2022-10_ssp_v2.4.0/toolchains/gcc_arm/gcc-arm-none-eabi-10.3-2021.10/bin/../lib/gcc/arm-none-eabi/10.3.1/../../../../arm-none-eabi/lib/thumb/v7e-m+fp/hard\libg_nano.a(lib_a-signalr.o)
                0x00007f78                _kill_r
 .text._getpid_r
                0x00007f9c        0x4 c:/renesas/synergy/e2studio_v2022-10_ssp_v2.4.0/toolchains/gcc_arm/gcc-arm-none-eabi-10.3-2021.10/bin/../lib/gcc/arm-none-eabi/10.3.1/../../../../arm-none-eabi/lib/thumb/v7e-m+fp/hard\libg_nano.a(lib_a-signalr.o)
                0x00007f9c                _getpid_r
 .text.__sread  0x00007fa0       0x22 c:/renesas/synergy/e2studio_v2022-10_ssp_v2.4.0/toolchains/gcc_arm/gcc-arm-none-eabi-10.3-2021.10/bin/../lib/gcc/arm-none-eabi/10.3.1/../../../../arm-none-eabi/lib/thumb/v7e-m+fp/hard\libg_nano.a(lib_a-stdio.o)
                0x00007fa0                __sread
 .text.__swrite
                0x00007fc2       0x38 c:/renesas/synergy/e2studio_v2022-10_ssp_v2.4.0/toolchains/gcc_arm/gcc-arm-none-eabi-10.3-2021.10/bin/../lib/gcc/arm-none-eabi/10.3.1/../../../../arm-none-eabi/lib/thumb/v7e-m+fp/hard\libg_nano.a(lib_a-stdio.o)
                0x00007fc2                __swrite
 .text.__sseek  0x00007ffa       0x24 c:/renesas/synergy/e2studio_v2022-10_ssp_v2.4.0/toolchains/gcc_arm/gcc-arm-none-eabi-10.3-2021.10/bin/../lib/gcc/arm-none-eabi/10.3.1/../../../../arm-none-eabi/lib/thumb/v7e-m+fp/hard\libg_nano.a(lib_a-stdio.o)
                0x00007ffa                __sseek
 .text.__sclose
                0x0000801e        0x8 c:/renesas/synergy/e2studio_v2022-10_ssp_v2.4.0/toolchains/gcc_arm/gcc-arm-none-eabi-10.3-2021.10/bin/../lib/gcc/arm-none-eabi/10.3.1/../../../../arm-none-eabi/lib/thumb/v7e-m+fp/hard\libg_nano.a(lib_a-stdio.o)
                0x0000801e                __sclose
 *fill*         0x00008026        0x2 ff
 .text._write_r
                0x00008028       0x24 c:/renesas/synergy/e2studio_v2022-10_ssp_v2.4.0/toolchains/gcc_arm/gcc-arm-none-eabi-10.3-2021.10/bin/../lib/gcc/arm-none-eabi/10.3.1/../../../../arm-none-eabi/lib/thumb/v7e-m+fp/hard\libg_nano.a(lib_a-writer.o)
                0x00008028                _write_r
 .text._close_r
                0x0000804c       0x20 c:/renesas/synergy/e2studio_v2022-10_ssp_v2.4.0/toolchains/gcc_arm/gcc-arm-none-eabi-10.3-2021.10/bin/../lib/gcc/arm-none-eabi/10.3.1/../../../../arm-none-eabi/lib/thumb/v7e-m+fp/hard\libg_nano.a(lib_a-closer.o)
                0x0000804c                _close_r
 .text._fstat_r
                0x0000806c       0x24 c:/renesas/synergy/e2studio_v2022-10_ssp_v2.4.0/toolchains/gcc_arm/gcc-arm-none-eabi-10.3-2021.10/bin/../lib/gcc/arm-none-eabi/10.3.1/../../../../arm-none-eabi/lib/thumb/v7e-m+fp/hard\libg_nano.a(lib_a-fstatr.o)
                0x0000806c                _fstat_r
 .text._isatty_r
                0x00008090       0x20 c:/renesas/synergy/e2studio_v2022-10_ssp_v2.4.0/toolchains/gcc_arm/gcc-arm-none-eabi-10.3-2021.10/bin/../lib/gcc/arm-none-eabi/10.3.1/../../../../arm-none-eabi/lib/thumb/v7e-m+fp/hard\libg_nano.a(lib_a-isattyr.o)
                0x00008090                _isatty_r
 .text._lseek_r
                0x000080b0       0x24 c:/renesas/synergy/e2studio_v2022-10_ssp_v2.4.0/toolchains/gcc_arm/gcc-arm-none-eabi-10.3-2021.10/bin/../lib/gcc/arm-none-eabi/10.3.1/../../../../arm-none-eabi/lib/thumb/v7e-m+fp/hard\libg_nano.a(lib_a-lseekr.o)
                0x000080b0                _lseek_r
 .text._read_r  0x000080d4       0x24 c:/renesas/synergy/e2studio_v2022-10_ssp_v2.4.0/toolchains/gcc_arm/gcc-arm-none-eabi-10.3-2021.10/bin/../lib/gcc/arm-none-eabi/10.3.1/../../../../arm-none-eabi/lib/thumb/v7e-m+fp/hard\libg_nano.a(lib_a-readr.o)
                0x000080d4                _read_r
 .text.findslot
                0x000080f8       0x34 c:/renesas/synergy/e2studio_v2022-10_ssp_v2.4.0/toolchains/gcc_arm/gcc-arm-none-eabi-10.3-2021.10/bin/../lib/gcc/arm-none-eabi/10.3.1/../../../../arm-none-eabi/lib/thumb/v7e-m+fp/hard\librdimon_nano.a(rdimon-syscalls.o)
 .text.error    0x0000812c       0x1c c:/renesas/synergy/e2studio_v2022-10_ssp_v2.4.0/toolchains/gcc_arm/gcc-arm-none-eabi-10.3-2021.10/bin/../lib/gcc/arm-none-eabi/10.3.1/../../../../arm-none-eabi/lib/thumb/v7e-m+fp/hard\librdimon_nano.a(rdimon-syscalls.o)
 .text.checkerror
                0x00008148        0xa c:/renesas/synergy/e2studio_v2022-10_ssp_v2.4.0/toolchains/gcc_arm/gcc-arm-none-eabi-10.3-2021.10/bin/../lib/gcc/arm-none-eabi/10.3.1/../../../../arm-none-eabi/lib/thumb/v7e-m+fp/hard\librdimon_nano.a(rdimon-syscalls.o)
 .text._swiread
                0x00008152       0x20 c:/renesas/synergy/e2studio_v2022-10_ssp_v2.4.0/toolchains/gcc_arm/gcc-arm-none-eabi-10.3-2021.10/bin/../lib/gcc/arm-none-eabi/10.3.1/../../../../arm-none-eabi/lib/thumb/v7e-m+fp/hard\librdimon_nano.a(rdimon-syscalls.o)
                0x00008152                _swiread
 .text._read    0x00008172       0x38 c:/renesas/synergy/e2studio_v2022-10_ssp_v2.4.0/toolchains/gcc_arm/gcc-arm-none-eabi-10.3-2021.10/bin/../lib/gcc/arm-none-eabi/10.3.1/../../../../arm-none-eabi/lib/thumb/v7e-m+fp/hard\librdimon_nano.a(rdimon-syscalls.o)
                0x00008172                _read
 .text._swilseek
                0x000081aa       0x78 c:/renesas/synergy/e2studio_v2022-10_ssp_v2.4.0/toolchains/gcc_arm/gcc-arm-none-eabi-10.3-2021.10/bin/../lib/gcc/arm-none-eabi/10.3.1/../../../../arm-none-eabi/lib/thumb/v7e-m+fp/hard\librdimon_nano.a(rdimon-syscalls.o)
                0x000081aa                _swilseek
 .text._lseek   0x00008222        0x4 c:/renesas/synergy/e2studio_v2022-10_ssp_v2.4.0/toolchains/gcc_arm/gcc-arm-none-eabi-10.3-2021.10/bin/../lib/gcc/arm-none-eabi/10.3.1/../../../../arm-none-eabi/lib/thumb/v7e-m+fp/hard\librdimon_nano.a(rdimon-syscalls.o)
                0x00008222                _lseek
 .text._swiwrite
                0x00008226       0x20 c:/renesas/synergy/e2studio_v2022-10_ssp_v2.4.0/toolchains/gcc_arm/gcc-arm-none-eabi-10.3-2021.10/bin/../lib/gcc/arm-none-eabi/10.3.1/../../../../arm-none-eabi/lib/thumb/v7e-m+fp/hard\librdimon_nano.a(rdimon-syscalls.o)
                0x00008226                _swiwrite
 .text._write   0x00008246       0x48 c:/renesas/synergy/e2studio_v2022-10_ssp_v2.4.0/toolchains/gcc_arm/gcc-arm-none-eabi-10.3-2021.10/bin/../lib/gcc/arm-none-eabi/10.3.1/../../../../arm-none-eabi/lib/thumb/v7e-m+fp/hard\librdimon_nano.a(rdimon-syscalls.o)
                0x00008246                _write
 .text._swiclose
                0x0000828e       0x1a c:/renesas/synergy/e2studio_v2022-10_ssp_v2.4.0/toolchains/gcc_arm/gcc-arm-none-eabi-10.3-2021.10/bin/../lib/gcc/arm-none-eabi/10.3.1/../../../../arm-none-eabi/lib/thumb/v7e-m+fp/hard\librdimon_nano.a(rdimon-syscalls.o)
                0x0000828e                _swiclose
 .text._close   0x000082a8       0x4c c:/renesas/synergy/e2studio_v2022-10_ssp_v2.4.0/toolchains/gcc_arm/gcc-arm-none-eabi-10.3-2021.10/bin/../lib/gcc/arm-none-eabi/10.3.1/../../../../arm-none-eabi/lib/thumb/v7e-m+fp/hard\librdimon_nano.a(rdimon-syscalls.o)
                0x000082a8                _close
 .text._getpid  0x000082f4        0x4 c:/renesas/synergy/e2studio_v2022-10_ssp_v2.4.0/toolchains/gcc_arm/gcc-arm-none-eabi-10.3-2021.10/bin/../lib/gcc/arm-none-eabi/10.3.1/../../../../arm-none-eabi/lib/thumb/v7e-m+fp/hard\librdimon_nano.a(rdimon-syscalls.o)
                0x000082f4                _getpid
 .text._swistat
                0x000082f8       0x42 c:/renesas/synergy/e2studio_v2022-10_ssp_v2.4.0/toolchains/gcc_arm/gcc-arm-none-eabi-10.3-2021.10/bin/../lib/gcc/arm-none-eabi/10.3.1/../../../../arm-none-eabi/lib/thumb/v7e-m+fp/hard\librdimon_nano.a(rdimon-syscalls.o)
                0x000082f8                _swistat
 .text._fstat   0x0000833a       0x1c c:/renesas/synergy/e2studio_v2022-10_ssp_v2.4.0/toolchains/gcc_arm/gcc-arm-none-eabi-10.3-2021.10/bin/../lib/gcc/arm-none-eabi/10.3.1/../../../../arm-none-eabi/lib/thumb/v7e-m+fp/hard\librdimon_nano.a(rdimon-syscalls.o)
                0x0000833a                _fstat
 .text._stat    0x00008356       0x3a c:/renesas/synergy/e2studio_v2022-10_ssp_v2.4.0/toolchains/gcc_arm/gcc-arm-none-eabi-10.3-2021.10/bin/../lib/gcc/arm-none-eabi/10.3.1/../../../../arm-none-eabi/lib/thumb/v7e-m+fp/hard\librdimon_nano.a(rdimon-syscalls.o)
                0x00008356                _stat
 .text._swiopen
                0x00008390       0xb4 c:/renesas/synergy/e2studio_v2022-10_ssp_v2.4.0/toolchains/gcc_arm/gcc-arm-none-eabi-10.3-2021.10/bin/../lib/gcc/arm-none-eabi/10.3.1/../../../../arm-none-eabi/lib/thumb/v7e-m+fp/hard\librdimon_nano.a(rdimon-syscalls.o)
                0x00008390                _swiopen
 .text._get_semihosting_exts
                0x00008444       0xb8 c:/renesas/synergy/e2studio_v2022-10_ssp_v2.4.0/toolchains/gcc_arm/gcc-arm-none-eabi-10.3-2021.10/bin/../lib/gcc/arm-none-eabi/10.3.1/../../../../arm-none-eabi/lib/thumb/v7e-m+fp/hard\librdimon_nano.a(rdimon-syscalls.o)
                0x00008444                _get_semihosting_exts
 .text.initialise_semihosting_exts
                0x000084fc       0x34 c:/renesas/synergy/e2studio_v2022-10_ssp_v2.4.0/toolchains/gcc_arm/gcc-arm-none-eabi-10.3-2021.10/bin/../lib/gcc/arm-none-eabi/10.3.1/../../../../arm-none-eabi/lib/thumb/v7e-m+fp/hard\librdimon_nano.a(rdimon-syscalls.o)
 .text._has_ext_exit_extended
                0x00008530       0x18 c:/renesas/synergy/e2studio_v2022-10_ssp_v2.4.0/toolchains/gcc_arm/gcc-arm-none-eabi-10.3-2021.10/bin/../lib/gcc/arm-none-eabi/10.3.1/../../../../arm-none-eabi/lib/thumb/v7e-m+fp/hard\librdimon_nano.a(rdimon-syscalls.o)
                0x00008530                _has_ext_exit_extended
 .text._isatty  0x00008548       0x38 c:/renesas/synergy/e2studio_v2022-10_ssp_v2.4.0/toolchains/gcc_arm/gcc-arm-none-eabi-10.3-2021.10/bin/../lib/gcc/arm-none-eabi/10.3.1/../../../../arm-none-eabi/lib/thumb/v7e-m+fp/hard\librdimon_nano.a(rdimon-syscalls.o)
                0x00008548                _isatty
 .text._exit    0x00008580       0x14 c:/renesas/synergy/e2studio_v2022-10_ssp_v2.4.0/toolchains/gcc_arm/gcc-arm-none-eabi-10.3-2021.10/bin/../lib/gcc/arm-none-eabi/10.3.1/../../../../arm-none-eabi/lib/thumb/v7e-m+fp/hard\librdimon_nano.a(rdimon-_exit.o)
                0x00008580                _exit
 .text._kill_shared
                0x00008594       0x26 c:/renesas/synergy/e2studio_v2022-10_ssp_v2.4.0/toolchains/gcc_arm/gcc-arm-none-eabi-10.3-2021.10/bin/../lib/gcc/arm-none-eabi/10.3.1/../../../../arm-none-eabi/lib/thumb/v7e-m+fp/hard\librdimon_nano.a(rdimon-_kill.o)
                0x00008594                _kill_shared
 *fill*         0x000085ba        0x2 ff
 .text._kill    0x000085bc       0x18 c:/renesas/synergy/e2studio_v2022-10_ssp_v2.4.0/toolchains/gcc_arm/gcc-arm-none-eabi-10.3-2021.10/bin/../lib/gcc/arm-none-eabi/10.3.1/../../../../arm-none-eabi/lib/thumb/v7e-m+fp/hard\librdimon_nano.a(rdimon-_kill.o)
                0x000085bc                _kill
 .text          0x000085d4       0x10 c:/renesas/synergy/e2studio_v2022-10_ssp_v2.4.0/toolchains/gcc_arm/gcc-arm-none-eabi-10.3-2021.10/bin/../lib/gcc/arm-none-eabi/10.3.1/../../../../arm-none-eabi/lib/thumb/v7e-m+fp/hard\libc_nano.a(lib_a-strlen.o)
                0x000085d4                strlen
 *(.version)
 .version       0x000085e4       0x7c ./synergy/ssp/src/bsp/mcu/all/bsp_common.o
 *(.init)
 .init          0x00008660        0x4 c:/renesas/synergy/e2studio_v2022-10_ssp_v2.4.0/toolchains/gcc_arm/gcc-arm-none-eabi-10.3-2021.10/bin/../lib/gcc/arm-none-eabi/10.3.1/thumb/v7e-m+fp/hard/crti.o
                0x00008660                _init
 .init          0x00008664        0x8 c:/renesas/synergy/e2studio_v2022-10_ssp_v2.4.0/toolchains/gcc_arm/gcc-arm-none-eabi-10.3-2021.10/bin/../lib/gcc/arm-none-eabi/10.3.1/thumb/v7e-m+fp/hard/crtn.o
 *(.fini)
 .fini          0x0000866c        0x4 c:/renesas/synergy/e2studio_v2022-10_ssp_v2.4.0/toolchains/gcc_arm/gcc-arm-none-eabi-10.3-2021.10/bin/../lib/gcc/arm-none-eabi/10.3.1/thumb/v7e-m+fp/hard/crti.o
                0x0000866c                _fini
 .fini          0x00008670        0x8 c:/renesas/synergy/e2studio_v2022-10_ssp_v2.4.0/toolchains/gcc_arm/gcc-arm-none-eabi-10.3-2021.10/bin/../lib/gcc/arm-none-eabi/10.3.1/thumb/v7e-m+fp/hard/crtn.o
 *crtbegin.o(.ctors)
 *crtbegin?.o(.ctors)
 *(EXCLUDE_FILE(*crtend.o *crtend?.o) .ctors)
 *(SORT_BY_NAME(.ctors.*))
 *(.ctors)
 *crtbegin.o(.dtors)
 *crtbegin?.o(.dtors)
 *(EXCLUDE_FILE(*crtend.o *crtend?.o) .dtors)
 *(SORT_BY_NAME(.dtors.*))
 *(.dtors)
 *(.rodata*)
 .rodata.g_ioport_on_ioport
                0x00008678       0x3c ./synergy/ssp/src/driver/r_ioport/r_ioport.o
                0x00008678                g_ioport_on_ioport
 .rodata.g_elc_on_elc
                0x000086b4       0x1c ./synergy/ssp/src/driver/r_elc/r_elc.o
                0x000086b4                g_elc_on_elc
 .rodata.g_cgc_on_cgc
                0x000086d0       0x6c ./synergy/ssp/src/driver/r_cgc/r_cgc.o
                0x000086d0                g_cgc_on_cgc
 .rodata.g_lcd_clock_settings
                0x0000873c        0x6 ./synergy/ssp/src/driver/r_cgc/r_cgc.o
 *fill*         0x00008742        0x2 ff
 .rodata.g_pllccr2_div_setting
                0x00008744        0x8 ./synergy/ssp/src/driver/r_cgc/r_cgc.o
 .rodata.g_pllccr2_div_value
                0x0000874c        0x6 ./synergy/ssp/src/driver/r_cgc/r_cgc.o
 *fill*         0x00008752        0x2 ff
 .rodata.g_pllccr_div_setting
                0x00008754        0x6 ./synergy/ssp/src/driver/r_cgc/r_cgc.o
 *fill*         0x0000875a        0x2 ff
 .rodata.g_pllccr_div_value
                0x0000875c        0x6 ./synergy/ssp/src/driver/r_cgc/r_cgc.o
 *fill*         0x00008762        0x2 ff
 .rodata.g_can_on_can
                0x00008764       0x1c ./synergy/ssp/src/driver/r_can/r_can.o
                0x00008764                g_can_on_can
 .rodata.g_adc_on_adc
                0x00008780       0x34 ./synergy/ssp/src/driver/r_adc/r_adc.o
                0x00008780                g_adc_on_adc
 .rodata.g_cgc_feature
                0x000087b4       0x2c ./synergy/ssp/src/bsp/mcu/s3a7/bsp_feature.o
 .rodata.g_bsp_module_stop
                0x000087e0       0x46 ./synergy/ssp/src/bsp/mcu/s3a7/bsp_module_stop.o
 *fill*         0x00008826        0x2 ff
 .rodata.gp_mstp
                0x00008828       0x10 ./synergy/ssp/src/bsp/mcu/s3a7/bsp_module_stop.o
 .rodata.gp_vector_information
                0x00008838        0x4 ./synergy/ssp/src/bsp/mcu/all/bsp_irq.o
                0x00008838                gp_vector_information
 .rodata.g_prcr_masks
                0x0000883c        0x6 ./synergy/ssp/src/bsp/mcu/all/bsp_register_protection.o
 *fill*         0x00008842        0x2 ff
 .rodata.g_elc_cfg
                0x00008844        0xc ./synergy/ssp/src/bsp/cmsis/Device/RENESAS/S3A7/Source/system_S3A7.o
 .rodata.adc_thread_create.str1.4
                0x00008850        0xb ./src/synergy_gen/adc_thread.o
 *fill*         0x0000885b        0x1 ff
 .rodata.g_adc0
                0x0000885c       0x10 ./src/synergy_gen/adc_thread.o
                0x0000885c                g_adc0
 .rodata.g_adc0_cfg
                0x0000886c       0x24 ./src/synergy_gen/adc_thread.o
                0x0000886c                g_adc0_cfg
 .rodata.g_adc0_channel_cfg
                0x00008890       0x14 ./src/synergy_gen/adc_thread.o
                0x00008890                g_adc0_channel_cfg
 .rodata.can_thread_create.str1.4
                0x000088a4        0xb ./src/synergy_gen/can_thread.o
 *fill*         0x000088af        0x1 ff
 .rodata.g_can0
                0x000088b0        0xc ./src/synergy_gen/can_thread.o
                0x000088b0                g_can0
 .rodata.g_can0_cfg
                0x000088bc       0x28 ./src/synergy_gen/can_thread.o
 .rodata.g_can0_extended_cfg
                0x000088e4        0x8 ./src/synergy_gen/can_thread.o
 .rodata.g_ioport
                0x000088ec        0x8 ./src/synergy_gen/common_data.o
                0x000088ec                g_ioport
 .rodata.drv_thread_create.str1.4
                0x000088f4        0xd ./src/synergy_gen/drv_thread.o
 *fill*         0x00008901        0x3 ff
 .rodata.lcd_thread_create.str1.4
                0x00008904        0xb ./src/synergy_gen/lcd_thread.o
 *fill*         0x0000890f        0x1 ff
 .rodata.tx_application_define.str1.4
                0x00008910       0x14 ./src/synergy_gen/main.o
 .rodata.g_bsp_pin_cfg
                0x00008924        0x8 ./src/synergy_gen/pin_data.o
                0x00008924                g_bsp_pin_cfg
 .rodata.g_bsp_pin_cfg_data
                0x0000892c      0x118 ./src/synergy_gen/pin_data.o
                0x0000892c                g_bsp_pin_cfg_data
 .rodata.status_led_create.str1.4
                0x00008a44        0xb ./src/synergy_gen/status_led.o
 *fill*         0x00008a4f        0x1 ff
 .rodata.lcd_thread_entry.str1.4
                0x00008a50       0x64 ./src/lcd_thread_entry.o
 .rodata.bit_count
                0x00008ab4       0x80 C:\Users\khurr\e2_studio_latest\workspace\COPJunction\synergy\ssp\src\driver\r_fmi\libs\libfmi_cm4_s3a7_gcc.a(r_fmi.o)
 .rodata.bit_count_mask
                0x00008b34        0x8 C:\Users\khurr\e2_studio_latest\workspace\COPJunction\synergy\ssp\src\driver\r_fmi\libs\libfmi_cm4_s3a7_gcc.a(r_fmi.o)
 .rodata.g_fmi_on_fmi
                0x00008b3c       0x18 C:\Users\khurr\e2_studio_latest\workspace\COPJunction\synergy\ssp\src\driver\r_fmi\libs\libfmi_cm4_s3a7_gcc.a(r_fmi.o)
                0x00008b3c                g_fmi_on_fmi
 .rodata.g_fmi_data
                0x00008b54      0x400 C:\Users\khurr\e2_studio_latest\workspace\COPJunction\synergy\ssp\src\bsp\mcu\s3a7\libfmi_R7FS3A77C3A01CFM_gcc.a(bsp_fmi_R7FS3A77C3A01CFM.o)
                0x00008b54                g_fmi_data
 .rodata._global_impure_ptr
                0x00008f54        0x4 c:/renesas/synergy/e2studio_v2022-10_ssp_v2.4.0/toolchains/gcc_arm/gcc-arm-none-eabi-10.3-2021.10/bin/../lib/gcc/arm-none-eabi/10.3.1/../../../../arm-none-eabi/lib/thumb/v7e-m+fp/hard\libg_nano.a(lib_a-impure.o)
                0x00008f54                _global_impure_ptr
 .rodata.srand.str1.1
                0x00008f58       0x95 c:/renesas/synergy/e2studio_v2022-10_ssp_v2.4.0/toolchains/gcc_arm/gcc-arm-none-eabi-10.3-2021.10/bin/../lib/gcc/arm-none-eabi/10.3.1/../../../../arm-none-eabi/lib/thumb/v7e-m+fp/hard\libg_nano.a(lib_a-rand.o)
 .rodata.__assert_func.str1.1
                0x00008fed       0x3c c:/renesas/synergy/e2studio_v2022-10_ssp_v2.4.0/toolchains/gcc_arm/gcc-arm-none-eabi-10.3-2021.10/bin/../lib/gcc/arm-none-eabi/10.3.1/../../../../arm-none-eabi/lib/thumb/v7e-m+fp/hard\libg_nano.a(lib_a-assert.o)
                                 0x3d (size before relaxing)
 .rodata._vfprintf_r.str1.1
                0x00009029       0x11 c:/renesas/synergy/e2studio_v2022-10_ssp_v2.4.0/toolchains/gcc_arm/gcc-arm-none-eabi-10.3-2021.10/bin/../lib/gcc/arm-none-eabi/10.3.1/../../../../arm-none-eabi/lib/thumb/v7e-m+fp/hard\libg_nano.a(lib_a-nano-vfprintf.o)
 .rodata._printf_i.str1.1
                0x0000903a       0x22 c:/renesas/synergy/e2studio_v2022-10_ssp_v2.4.0/toolchains/gcc_arm/gcc-arm-none-eabi-10.3-2021.10/bin/../lib/gcc/arm-none-eabi/10.3.1/../../../../arm-none-eabi/lib/thumb/v7e-m+fp/hard\libg_nano.a(lib_a-nano-vfprintf_i.o)
 .rodata.__sf_fake_stderr
                0x0000905c       0x20 c:/renesas/synergy/e2studio_v2022-10_ssp_v2.4.0/toolchains/gcc_arm/gcc-arm-none-eabi-10.3-2021.10/bin/../lib/gcc/arm-none-eabi/10.3.1/../../../../arm-none-eabi/lib/thumb/v7e-m+fp/hard\libg_nano.a(lib_a-findfp.o)
                0x0000905c                __sf_fake_stderr
 .rodata.__sf_fake_stdin
                0x0000907c       0x20 c:/renesas/synergy/e2studio_v2022-10_ssp_v2.4.0/toolchains/gcc_arm/gcc-arm-none-eabi-10.3-2021.10/bin/../lib/gcc/arm-none-eabi/10.3.1/../../../../arm-none-eabi/lib/thumb/v7e-m+fp/hard\libg_nano.a(lib_a-findfp.o)
                0x0000907c                __sf_fake_stdin
 .rodata.__sf_fake_stdout
                0x0000909c       0x20 c:/renesas/synergy/e2studio_v2022-10_ssp_v2.4.0/toolchains/gcc_arm/gcc-arm-none-eabi-10.3-2021.10/bin/../lib/gcc/arm-none-eabi/10.3.1/../../../../arm-none-eabi/lib/thumb/v7e-m+fp/hard\libg_nano.a(lib_a-findfp.o)
                0x0000909c                __sf_fake_stdout
 .rodata._get_semihosting_exts.str1.1
                0x000090bc       0x16 c:/renesas/synergy/e2studio_v2022-10_ssp_v2.4.0/toolchains/gcc_arm/gcc-arm-none-eabi-10.3-2021.10/bin/../lib/gcc/arm-none-eabi/10.3.1/../../../../arm-none-eabi/lib/thumb/v7e-m+fp/hard\librdimon_nano.a(rdimon-syscalls.o)
                0x000090d2                __usb_dev_descriptor_start_fs = .
 *(.usb_device_desc_fs*)
                0x000090d2                __usb_cfg_descriptor_start_fs = .
 *(.usb_config_desc_fs*)
                0x000090d2                __usb_interface_descriptor_start_fs = .
 *(.usb_interface_desc_fs*)
                0x000090d2                __usb_descriptor_end_fs = .
                0x000090d2                __usb_dev_descriptor_start_hs = .
 *(.usb_device_desc_hs*)
                0x000090d2                __usb_cfg_descriptor_start_hs = .
 *(.usb_config_desc_hs*)
                0x000090d2                __usb_interface_descriptor_start_hs = .
 *(.usb_interface_desc_hs*)
                0x000090d2                __usb_descriptor_end_hs = .
 *(.eh_frame*)
 *fill*         0x000090d2        0x2 ff
 .eh_frame      0x000090d4        0x0 c:/renesas/synergy/e2studio_v2022-10_ssp_v2.4.0/toolchains/gcc_arm/gcc-arm-none-eabi-10.3-2021.10/bin/../lib/gcc/arm-none-eabi/10.3.1/thumb/v7e-m+fp/hard/crtbegin.o
 .eh_frame      0x000090d4        0x4 c:/renesas/synergy/e2studio_v2022-10_ssp_v2.4.0/toolchains/gcc_arm/gcc-arm-none-eabi-10.3-2021.10/bin/../lib/gcc/arm-none-eabi/10.3.1/thumb/v7e-m+fp/hard/crtend.o
                0x000090d8                __ROM_End = .
                0x00000058                __Vectors_Size = (__Vectors_End - __Vectors)
                0x00000030                __Vector_Info_Size = (__Vector_Info_End - __Vector_Info_Start)
                0x00000150                __Lock_Lookup_Size = (__Lock_Lookup_End - __Lock_Lookup_Start)

.glue_7         0x000090d8        0x0
 .glue_7        0x000090d8        0x0 linker stubs

.glue_7t        0x000090d8        0x0
 .glue_7t       0x000090d8        0x0 linker stubs

.vfp11_veneer   0x000090d8        0x0
 .vfp11_veneer  0x000090d8        0x0 linker stubs

.v4_bx          0x000090d8        0x0
 .v4_bx         0x000090d8        0x0 linker stubs

.iplt           0x000090d8        0x0
 .iplt          0x000090d8        0x0 c:/renesas/synergy/e2studio_v2022-10_ssp_v2.4.0/toolchains/gcc_arm/gcc-arm-none-eabi-10.3-2021.10/bin/../lib/gcc/arm-none-eabi/10.3.1/thumb/v7e-m+fp/hard/crtbegin.o

.ARM.extab
 *(.ARM.extab* .gnu.linkonce.armextab.*)
                0x000090d8                __exidx_start = .

.ARM.exidx
 *(.ARM.exidx* .gnu.linkonce.armexidx.*)
                0x000090d8                __exidx_end = .
                0x000090d8                __etext = .

.ssp_dtc_vector_table
                0x20000000        0x0
                0x20000000                . = ORIGIN (RAM)
 *(.ssp_dtc_vector_table)

.data           0x20000000      0x1f8 load address 0x000090d8
                0x20000000                __data_start__ = .
 *(vtable)
 *(.data*)
 .data.g_can0_bit_timing_cfg
                0x20000000        0x8 ./src/synergy_gen/can_thread.o
                0x20000000                g_can0_bit_timing_cfg
 .data.g_can0_mailbox
                0x20000008      0x100 ./src/synergy_gen/can_thread.o
                0x20000008                g_can0_mailbox
 .data.g_can0_mailbox_mask
                0x20000108       0x20 ./src/synergy_gen/can_thread.o
                0x20000108                g_can0_mailbox_mask
 .data.ucRxComplete
                0x20000128        0x1 ./src/can_thread_entry.o
 *fill*         0x20000129        0x3 
 .data._tx_thread_system_state
                0x2000012c        0x4 C:\Users\khurr\e2_studio_latest\workspace\COPJunction\synergy\ssp\src\framework\el\tx\cm4_gcc\libtx.a(tx_thread_initialize.o)
                0x2000012c                _tx_thread_system_state
 .data._impure_ptr
                0x20000130        0x4 c:/renesas/synergy/e2studio_v2022-10_ssp_v2.4.0/toolchains/gcc_arm/gcc-arm-none-eabi-10.3-2021.10/bin/../lib/gcc/arm-none-eabi/10.3.1/../../../../arm-none-eabi/lib/thumb/v7e-m+fp/hard\libg_nano.a(lib_a-impure.o)
                0x20000130                _impure_ptr
 .data.impure_data
                0x20000134       0x60 c:/renesas/synergy/e2studio_v2022-10_ssp_v2.4.0/toolchains/gcc_arm/gcc-arm-none-eabi-10.3-2021.10/bin/../lib/gcc/arm-none-eabi/10.3.1/../../../../arm-none-eabi/lib/thumb/v7e-m+fp/hard\libg_nano.a(lib_a-impure.o)
 .data.supports_ext_exit_extended
                0x20000194        0x4 c:/renesas/synergy/e2studio_v2022-10_ssp_v2.4.0/toolchains/gcc_arm/gcc-arm-none-eabi-10.3-2021.10/bin/../lib/gcc/arm-none-eabi/10.3.1/../../../../arm-none-eabi/lib/thumb/v7e-m+fp/hard\librdimon_nano.a(rdimon-syscalls.o)
 .data.supports_ext_stdout_stderr
                0x20000198        0x4 c:/renesas/synergy/e2studio_v2022-10_ssp_v2.4.0/toolchains/gcc_arm/gcc-arm-none-eabi-10.3-2021.10/bin/../lib/gcc/arm-none-eabi/10.3.1/../../../../arm-none-eabi/lib/thumb/v7e-m+fp/hard\librdimon_nano.a(rdimon-syscalls.o)
                0x2000019c                . = ALIGN (0x4)
                0x2000019c                PROVIDE (__preinit_array_start = .)
 *(.preinit_array)
                0x2000019c                PROVIDE (__preinit_array_end = .)
                0x2000019c                . = ALIGN (0x4)
                0x2000019c                PROVIDE (__init_array_start = .)
 *(SORT_BY_NAME(.init_array.*))
 *(.init_array)
 .init_array    0x2000019c        0x4 c:/renesas/synergy/e2studio_v2022-10_ssp_v2.4.0/toolchains/gcc_arm/gcc-arm-none-eabi-10.3-2021.10/bin/../lib/gcc/arm-none-eabi/10.3.1/thumb/v7e-m+fp/hard/crtbegin.o
                0x200001a0                PROVIDE (__init_array_end = .)
                0x200001a0                . = ALIGN (0x4)
                [!provide]                PROVIDE (__fini_array_start = .)
 *(SORT_BY_NAME(.fini_array.*))
 *(.fini_array)
 .fini_array    0x200001a0        0x4 c:/renesas/synergy/e2studio_v2022-10_ssp_v2.4.0/toolchains/gcc_arm/gcc-arm-none-eabi-10.3-2021.10/bin/../lib/gcc/arm-none-eabi/10.3.1/thumb/v7e-m+fp/hard/crtbegin.o
                [!provide]                PROVIDE (__fini_array_end = .)
 *(.jcr*)
                0x200001a4                . = ALIGN (0x4)
                0x200001a4                __Code_In_RAM_Start = .
 *(.code_in_ram*)
                0x200001a4                __Code_In_RAM_End = .
                0x200001a4                __Lock_Start = .
 *(SORT_BY_NAME(.hw_lock*))
 .hw_lock.ADC_0U_0U
                0x200001a4        0x1 ./synergy/ssp/src/bsp/mcu/s3a7/bsp_hw_locks.o
                0x200001a4                g_hw_lock_ADC_0U_0U
 .hw_lock.AGT_0U_0U
                0x200001a5        0x1 ./synergy/ssp/src/bsp/mcu/s3a7/bsp_hw_locks.o
                0x200001a5                g_hw_lock_AGT_0U_0U
 .hw_lock.AGT_0U_1U
                0x200001a6        0x1 ./synergy/ssp/src/bsp/mcu/s3a7/bsp_hw_locks.o
                0x200001a6                g_hw_lock_AGT_0U_1U
 .hw_lock.BSC_0U_1U
                0x200001a7        0x1 ./synergy/ssp/src/bsp/mcu/s3a7/bsp_hw_locks.o
                0x200001a7                g_hw_lock_BSC_0U_1U
 .hw_lock.CAC_0U_0U
                0x200001a8        0x1 ./synergy/ssp/src/bsp/mcu/s3a7/bsp_hw_locks.o
                0x200001a8                g_hw_lock_CAC_0U_0U
 .hw_lock.CAN_0U_0U
                0x200001a9        0x1 ./synergy/ssp/src/bsp/mcu/s3a7/bsp_hw_locks.o
                0x200001a9                g_hw_lock_CAN_0U_0U
 .hw_lock.COMP_HS_0U_0U
                0x200001aa        0x1 ./synergy/ssp/src/bsp/mcu/s3a7/bsp_hw_locks.o
                0x200001aa                g_hw_lock_COMP_HS_0U_0U
 .hw_lock.COMP_HS_0U_1U
                0x200001ab        0x1 ./synergy/ssp/src/bsp/mcu/s3a7/bsp_hw_locks.o
                0x200001ab                g_hw_lock_COMP_HS_0U_1U
 .hw_lock.COMP_LP_0U_0U
                0x200001ac        0x1 ./synergy/ssp/src/bsp/mcu/s3a7/bsp_hw_locks.o
                0x200001ac                g_hw_lock_COMP_LP_0U_0U
 .hw_lock.COMP_LP_0U_1U
                0x200001ad        0x1 ./synergy/ssp/src/bsp/mcu/s3a7/bsp_hw_locks.o
                0x200001ad                g_hw_lock_COMP_LP_0U_1U
 .hw_lock.CRC_0U_0U
                0x200001ae        0x1 ./synergy/ssp/src/bsp/mcu/s3a7/bsp_hw_locks.o
                0x200001ae                g_hw_lock_CRC_0U_0U
 .hw_lock.CTSU_0U_0U
                0x200001af        0x1 ./synergy/ssp/src/bsp/mcu/s3a7/bsp_hw_locks.o
                0x200001af                g_hw_lock_CTSU_0U_0U
 .hw_lock.DAAD_0U_0U
                0x200001b0        0x1 ./synergy/ssp/src/bsp/mcu/s3a7/bsp_hw_locks.o
                0x200001b0                g_hw_lock_DAAD_0U_0U
 .hw_lock.DAC_0U_0U
                0x200001b1        0x1 ./synergy/ssp/src/bsp/mcu/s3a7/bsp_hw_locks.o
                0x200001b1                g_hw_lock_DAC_0U_0U
 .hw_lock.DAC_0U_1U
                0x200001b2        0x1 ./synergy/ssp/src/bsp/mcu/s3a7/bsp_hw_locks.o
                0x200001b2                g_hw_lock_DAC_0U_1U
 .hw_lock.DMAC_0U_0U
                0x200001b3        0x1 ./synergy/ssp/src/bsp/mcu/s3a7/bsp_hw_locks.o
                0x200001b3                g_hw_lock_DMAC_0U_0U
 .hw_lock.DMAC_0U_1U
                0x200001b4        0x1 ./synergy/ssp/src/bsp/mcu/s3a7/bsp_hw_locks.o
                0x200001b4                g_hw_lock_DMAC_0U_1U
 .hw_lock.DMAC_0U_2U
                0x200001b5        0x1 ./synergy/ssp/src/bsp/mcu/s3a7/bsp_hw_locks.o
                0x200001b5                g_hw_lock_DMAC_0U_2U
 .hw_lock.DMAC_0U_3U
                0x200001b6        0x1 ./synergy/ssp/src/bsp/mcu/s3a7/bsp_hw_locks.o
                0x200001b6                g_hw_lock_DMAC_0U_3U
 .hw_lock.DOC_0U_0U
                0x200001b7        0x1 ./synergy/ssp/src/bsp/mcu/s3a7/bsp_hw_locks.o
                0x200001b7                g_hw_lock_DOC_0U_0U
 .hw_lock.DTC_0U_0U
                0x200001b8        0x1 ./synergy/ssp/src/bsp/mcu/s3a7/bsp_hw_locks.o
                0x200001b8                g_hw_lock_DTC_0U_0U
 .hw_lock.ELC_0U_0U
                0x200001b9        0x1 ./synergy/ssp/src/bsp/mcu/s3a7/bsp_hw_locks.o
                0x200001b9                g_hw_lock_ELC_0U_0U
 .hw_lock.FCU_0U_0U
                0x200001ba        0x1 ./synergy/ssp/src/bsp/mcu/s3a7/bsp_hw_locks.o
                0x200001ba                g_hw_lock_FCU_0U_0U
 .hw_lock.GPT_0U_0U
                0x200001bb        0x1 ./synergy/ssp/src/bsp/mcu/s3a7/bsp_hw_locks.o
                0x200001bb                g_hw_lock_GPT_0U_0U
 .hw_lock.GPT_0U_1U
                0x200001bc        0x1 ./synergy/ssp/src/bsp/mcu/s3a7/bsp_hw_locks.o
                0x200001bc                g_hw_lock_GPT_0U_1U
 .hw_lock.GPT_0U_2U
                0x200001bd        0x1 ./synergy/ssp/src/bsp/mcu/s3a7/bsp_hw_locks.o
                0x200001bd                g_hw_lock_GPT_0U_2U
 .hw_lock.GPT_0U_3U
                0x200001be        0x1 ./synergy/ssp/src/bsp/mcu/s3a7/bsp_hw_locks.o
                0x200001be                g_hw_lock_GPT_0U_3U
 .hw_lock.GPT_0U_4U
                0x200001bf        0x1 ./synergy/ssp/src/bsp/mcu/s3a7/bsp_hw_locks.o
                0x200001bf                g_hw_lock_GPT_0U_4U
 .hw_lock.GPT_0U_5U
                0x200001c0        0x1 ./synergy/ssp/src/bsp/mcu/s3a7/bsp_hw_locks.o
                0x200001c0                g_hw_lock_GPT_0U_5U
 .hw_lock.GPT_0U_6U
                0x200001c1        0x1 ./synergy/ssp/src/bsp/mcu/s3a7/bsp_hw_locks.o
                0x200001c1                g_hw_lock_GPT_0U_6U
 .hw_lock.GPT_0U_7U
                0x200001c2        0x1 ./synergy/ssp/src/bsp/mcu/s3a7/bsp_hw_locks.o
                0x200001c2                g_hw_lock_GPT_0U_7U
 .hw_lock.GPT_0U_8U
                0x200001c3        0x1 ./synergy/ssp/src/bsp/mcu/s3a7/bsp_hw_locks.o
                0x200001c3                g_hw_lock_GPT_0U_8U
 .hw_lock.GPT_0U_9U
                0x200001c4        0x1 ./synergy/ssp/src/bsp/mcu/s3a7/bsp_hw_locks.o
                0x200001c4                g_hw_lock_GPT_0U_9U
 .hw_lock.ICU_0U_0U
                0x200001c5        0x1 ./synergy/ssp/src/bsp/mcu/s3a7/bsp_hw_locks.o
                0x200001c5                g_hw_lock_ICU_0U_0U
 .hw_lock.ICU_0U_10U
                0x200001c6        0x1 ./synergy/ssp/src/bsp/mcu/s3a7/bsp_hw_locks.o
                0x200001c6                g_hw_lock_ICU_0U_10U
 .hw_lock.ICU_0U_11U
                0x200001c7        0x1 ./synergy/ssp/src/bsp/mcu/s3a7/bsp_hw_locks.o
                0x200001c7                g_hw_lock_ICU_0U_11U
 .hw_lock.ICU_0U_12U
                0x200001c8        0x1 ./synergy/ssp/src/bsp/mcu/s3a7/bsp_hw_locks.o
                0x200001c8                g_hw_lock_ICU_0U_12U
 .hw_lock.ICU_0U_13U
                0x200001c9        0x1 ./synergy/ssp/src/bsp/mcu/s3a7/bsp_hw_locks.o
                0x200001c9                g_hw_lock_ICU_0U_13U
 .hw_lock.ICU_0U_14U
                0x200001ca        0x1 ./synergy/ssp/src/bsp/mcu/s3a7/bsp_hw_locks.o
                0x200001ca                g_hw_lock_ICU_0U_14U
 .hw_lock.ICU_0U_15U
                0x200001cb        0x1 ./synergy/ssp/src/bsp/mcu/s3a7/bsp_hw_locks.o
                0x200001cb                g_hw_lock_ICU_0U_15U
 .hw_lock.ICU_0U_1U
                0x200001cc        0x1 ./synergy/ssp/src/bsp/mcu/s3a7/bsp_hw_locks.o
                0x200001cc                g_hw_lock_ICU_0U_1U
 .hw_lock.ICU_0U_2U
                0x200001cd        0x1 ./synergy/ssp/src/bsp/mcu/s3a7/bsp_hw_locks.o
                0x200001cd                g_hw_lock_ICU_0U_2U
 .hw_lock.ICU_0U_3U
                0x200001ce        0x1 ./synergy/ssp/src/bsp/mcu/s3a7/bsp_hw_locks.o
                0x200001ce                g_hw_lock_ICU_0U_3U
 .hw_lock.ICU_0U_4U
                0x200001cf        0x1 ./synergy/ssp/src/bsp/mcu/s3a7/bsp_hw_locks.o
                0x200001cf                g_hw_lock_ICU_0U_4U
 .hw_lock.ICU_0U_5U
                0x200001d0        0x1 ./synergy/ssp/src/bsp/mcu/s3a7/bsp_hw_locks.o
                0x200001d0                g_hw_lock_ICU_0U_5U
 .hw_lock.ICU_0U_6U
                0x200001d1        0x1 ./synergy/ssp/src/bsp/mcu/s3a7/bsp_hw_locks.o
                0x200001d1                g_hw_lock_ICU_0U_6U
 .hw_lock.ICU_0U_7U
                0x200001d2        0x1 ./synergy/ssp/src/bsp/mcu/s3a7/bsp_hw_locks.o
                0x200001d2                g_hw_lock_ICU_0U_7U
 .hw_lock.ICU_0U_8U
                0x200001d3        0x1 ./synergy/ssp/src/bsp/mcu/s3a7/bsp_hw_locks.o
                0x200001d3                g_hw_lock_ICU_0U_8U
 .hw_lock.ICU_0U_9U
                0x200001d4        0x1 ./synergy/ssp/src/bsp/mcu/s3a7/bsp_hw_locks.o
                0x200001d4                g_hw_lock_ICU_0U_9U
 .hw_lock.IIC_0U_0U
                0x200001d5        0x1 ./synergy/ssp/src/bsp/mcu/s3a7/bsp_hw_locks.o
                0x200001d5                g_hw_lock_IIC_0U_0U
 .hw_lock.IIC_0U_1U
                0x200001d6        0x1 ./synergy/ssp/src/bsp/mcu/s3a7/bsp_hw_locks.o
                0x200001d6                g_hw_lock_IIC_0U_1U
 .hw_lock.IIC_0U_2U
                0x200001d7        0x1 ./synergy/ssp/src/bsp/mcu/s3a7/bsp_hw_locks.o
                0x200001d7                g_hw_lock_IIC_0U_2U
 .hw_lock.IRDA_0U_0U
                0x200001d8        0x1 ./synergy/ssp/src/bsp/mcu/s3a7/bsp_hw_locks.o
                0x200001d8                g_hw_lock_IRDA_0U_0U
 .hw_lock.IWDT_0U_0U
                0x200001d9        0x1 ./synergy/ssp/src/bsp/mcu/s3a7/bsp_hw_locks.o
                0x200001d9                g_hw_lock_IWDT_0U_0U
 .hw_lock.KEY_0U_0U
                0x200001da        0x1 ./synergy/ssp/src/bsp/mcu/s3a7/bsp_hw_locks.o
                0x200001da                g_hw_lock_KEY_0U_0U
 .hw_lock.LPM_1U_0U
                0x200001db        0x1 ./synergy/ssp/src/bsp/mcu/s3a7/bsp_hw_locks.o
                0x200001db                g_hw_lock_LPM_1U_0U
 .hw_lock.LVD_0U_0U
                0x200001dc        0x1 ./synergy/ssp/src/bsp/mcu/s3a7/bsp_hw_locks.o
                0x200001dc                g_hw_lock_LVD_0U_0U
 .hw_lock.LVD_0U_1U
                0x200001dd        0x1 ./synergy/ssp/src/bsp/mcu/s3a7/bsp_hw_locks.o
                0x200001dd                g_hw_lock_LVD_0U_1U
 .hw_lock.MMF_0U_0U
                0x200001de        0x1 ./synergy/ssp/src/bsp/mcu/s3a7/bsp_hw_locks.o
                0x200001de                g_hw_lock_MMF_0U_0U
 .hw_lock.MPU_0U_0U
                0x200001df        0x1 ./synergy/ssp/src/bsp/mcu/s3a7/bsp_hw_locks.o
                0x200001df                g_hw_lock_MPU_0U_0U
 .hw_lock.OPAMP_0U_0U
                0x200001e0        0x1 ./synergy/ssp/src/bsp/mcu/s3a7/bsp_hw_locks.o
                0x200001e0                g_hw_lock_OPAMP_0U_0U
 .hw_lock.OPS_0U_0U
                0x200001e1        0x1 ./synergy/ssp/src/bsp/mcu/s3a7/bsp_hw_locks.o
                0x200001e1                g_hw_lock_OPS_0U_0U
 .hw_lock.POEG_0U_0U
                0x200001e2        0x1 ./synergy/ssp/src/bsp/mcu/s3a7/bsp_hw_locks.o
                0x200001e2                g_hw_lock_POEG_0U_0U
 .hw_lock.POEG_0U_1U
                0x200001e3        0x1 ./synergy/ssp/src/bsp/mcu/s3a7/bsp_hw_locks.o
                0x200001e3                g_hw_lock_POEG_0U_1U
 .hw_lock.POEG_0U_2U
                0x200001e4        0x1 ./synergy/ssp/src/bsp/mcu/s3a7/bsp_hw_locks.o
                0x200001e4                g_hw_lock_POEG_0U_2U
 .hw_lock.POEG_0U_3U
                0x200001e5        0x1 ./synergy/ssp/src/bsp/mcu/s3a7/bsp_hw_locks.o
                0x200001e5                g_hw_lock_POEG_0U_3U
 .hw_lock.QSPI_0U_0U
                0x200001e6        0x1 ./synergy/ssp/src/bsp/mcu/s3a7/bsp_hw_locks.o
                0x200001e6                g_hw_lock_QSPI_0U_0U
 .hw_lock.RTC_0U_0U
                0x200001e7        0x1 ./synergy/ssp/src/bsp/mcu/s3a7/bsp_hw_locks.o
                0x200001e7                g_hw_lock_RTC_0U_0U
 .hw_lock.SCE_0U_0U
                0x200001e8        0x1 ./synergy/ssp/src/bsp/mcu/s3a7/bsp_hw_locks.o
                0x200001e8                g_hw_lock_SCE_0U_0U
 .hw_lock.SCI_0U_0U
                0x200001e9        0x1 ./synergy/ssp/src/bsp/mcu/s3a7/bsp_hw_locks.o
                0x200001e9                g_hw_lock_SCI_0U_0U
 .hw_lock.SCI_0U_1U
                0x200001ea        0x1 ./synergy/ssp/src/bsp/mcu/s3a7/bsp_hw_locks.o
                0x200001ea                g_hw_lock_SCI_0U_1U
 .hw_lock.SCI_0U_2U
                0x200001eb        0x1 ./synergy/ssp/src/bsp/mcu/s3a7/bsp_hw_locks.o
                0x200001eb                g_hw_lock_SCI_0U_2U
 .hw_lock.SCI_0U_3U
                0x200001ec        0x1 ./synergy/ssp/src/bsp/mcu/s3a7/bsp_hw_locks.o
                0x200001ec                g_hw_lock_SCI_0U_3U
 .hw_lock.SCI_0U_4U
                0x200001ed        0x1 ./synergy/ssp/src/bsp/mcu/s3a7/bsp_hw_locks.o
                0x200001ed                g_hw_lock_SCI_0U_4U
 .hw_lock.SCI_0U_9U
                0x200001ee        0x1 ./synergy/ssp/src/bsp/mcu/s3a7/bsp_hw_locks.o
                0x200001ee                g_hw_lock_SCI_0U_9U
 .hw_lock.SDHIMMC_0U_0U
                0x200001ef        0x1 ./synergy/ssp/src/bsp/mcu/s3a7/bsp_hw_locks.o
                0x200001ef                g_hw_lock_SDHIMMC_0U_0U
 .hw_lock.SLCDC_0U_0U
                0x200001f0        0x1 ./synergy/ssp/src/bsp/mcu/s3a7/bsp_hw_locks.o
                0x200001f0                g_hw_lock_SLCDC_0U_0U
 .hw_lock.SPI_0U_0U
                0x200001f1        0x1 ./synergy/ssp/src/bsp/mcu/s3a7/bsp_hw_locks.o
                0x200001f1                g_hw_lock_SPI_0U_0U
 .hw_lock.SPI_0U_1U
                0x200001f2        0x1 ./synergy/ssp/src/bsp/mcu/s3a7/bsp_hw_locks.o
                0x200001f2                g_hw_lock_SPI_0U_1U
 .hw_lock.SSI_0U_0U
                0x200001f3        0x1 ./synergy/ssp/src/bsp/mcu/s3a7/bsp_hw_locks.o
                0x200001f3                g_hw_lock_SSI_0U_0U
 .hw_lock.SSI_0U_1U
                0x200001f4        0x1 ./synergy/ssp/src/bsp/mcu/s3a7/bsp_hw_locks.o
                0x200001f4                g_hw_lock_SSI_0U_1U
 .hw_lock.TSN_0U_0U
                0x200001f5        0x1 ./synergy/ssp/src/bsp/mcu/s3a7/bsp_hw_locks.o
                0x200001f5                g_hw_lock_TSN_0U_0U
 .hw_lock.USB_0U_0U
                0x200001f6        0x1 ./synergy/ssp/src/bsp/mcu/s3a7/bsp_hw_locks.o
                0x200001f6                g_hw_lock_USB_0U_0U
 .hw_lock.WDT_0U_0U
                0x200001f7        0x1 ./synergy/ssp/src/bsp/mcu/s3a7/bsp_hw_locks.o
                0x200001f7                g_hw_lock_WDT_0U_0U
                0x200001f8                __Lock_End = .
                0x200001f8                __data_end__ = .
                0x00000054                __Lock_Size = (__Lock_End - __Lock_Start)

.igot.plt       0x200001f8        0x0 load address 0x000092d0
 .igot.plt      0x200001f8        0x0 c:/renesas/synergy/e2studio_v2022-10_ssp_v2.4.0/toolchains/gcc_arm/gcc-arm-none-eabi-10.3-2021.10/bin/../lib/gcc/arm-none-eabi/10.3.1/thumb/v7e-m+fp/hard/crtbegin.o

.qspi_flash     0x60000000        0x0
                0x60000000                __qspi_flash_start__ = .
 *(.qspi_flash*)
                0x60000000                __qspi_flash_end__ = .
                0x00000000                __qspi_flash_code_size__ = (__qspi_flash_end__ - __qspi_flash_start__)
                0x000092d0                __qspi_flash_code_addr__ = (__etext + (__data_end__ - __data_start__))

.qspi_non_retentive
                0x60000000        0x0 load address 0x000092d0
                0x60000000                __qspi_non_retentive_start__ = .
 *(.qspi_non_retentive*)
                0x60000000                __qspi_non_retentive_end__ = .
                0x00000000                __qspi_non_retentive_size__ = (__qspi_non_retentive_end__ - __qspi_non_retentive_start__)
                0x04000000                __qspi_region_max_size__ = 0x4000000
                0x60000000                __qspi_region_start_address__ = __qspi_flash_start__
                0x64000000                __qspi_region_end_address__ = (__qspi_flash_start__ + __qspi_region_max_size__)

.noinit         0x200001f8       0x44
                0x200001f8                . = ALIGN (0x4)
                0x200001f8                __noinit_start = .
 *(.noinit*)
 .noinit        0x200001f8       0x14 ./synergy/ssp/src/driver/r_ioport/r_ioport.o
 .noinit        0x2000020c       0x20 ./synergy/ssp/src/driver/r_cgc/r_cgc.o
                0x2000020c                gp_cgc_feature
 *fill*         0x2000022c        0x4 
 .noinit        0x20000230        0x8 ./synergy/ssp/src/bsp/cmsis/Device/RENESAS/S3A7/Source/system_S3A7.o
 .noinit        0x20000238        0x4 C:\Users\khurr\e2_studio_latest\workspace\COPJunction\synergy\ssp\src\driver\r_fmi\libs\libfmi_cm4_s3a7_gcc.a(r_fmi.o)
                0x2000023c                __noinit_end = .

.bss            0x2000023c      0x7d8
                0x2000023c                . = ALIGN (0x4)
                0x2000023c                __bss_start__ = .
 *(.bss*)
 .bss           0x2000023c       0x1c c:/renesas/synergy/e2studio_v2022-10_ssp_v2.4.0/toolchains/gcc_arm/gcc-arm-none-eabi-10.3-2021.10/bin/../lib/gcc/arm-none-eabi/10.3.1/thumb/v7e-m+fp/hard/crtbegin.o
 .bss.g_protect_pfswe_counter
                0x20000258        0x2 ./synergy/ssp/src/driver/r_ioport/r_ioport.o
                0x20000258                g_protect_pfswe_counter
 *fill*         0x2000025a        0x2 
 .bss.gp_elc_reg
                0x2000025c        0x4 ./synergy/ssp/src/driver/r_elc/r_elc.o
 .bss.g_adc_valid_channels
                0x20000260        0x8 ./synergy/ssp/src/driver/r_adc/r_adc.o
 .bss.g_bsp_group_irq_sources
                0x20000268       0x30 ./synergy/ssp/src/bsp/mcu/s3a7/bsp_group_irq.o
 .bss.g_vector_information_size
                0x20000298        0x4 ./synergy/ssp/src/bsp/mcu/all/bsp_irq.o
                0x20000298                g_vector_information_size
 .bss.g_bsp_lock_lookup_size
                0x2000029c        0x4 ./synergy/ssp/src/bsp/mcu/all/bsp_locking.o
 .bss.gp_bsp_lock_lookup
                0x200002a0        0x4 ./synergy/ssp/src/bsp/mcu/all/bsp_locking.o
 .bss.gp_bsp_locks
                0x200002a4        0x4 ./synergy/ssp/src/bsp/mcu/all/bsp_locking.o
 .bss.g_protect_counters
                0x200002a8        0x6 ./synergy/ssp/src/bsp/mcu/all/bsp_register_protection.o
 *fill*         0x200002ae        0x2 
 .bss.current_heap_end.0
                0x200002b0        0x4 ./synergy/ssp/src/bsp/mcu/all/bsp_sbrk.o
 .bss.SystemCoreClock
                0x200002b4        0x4 ./synergy/ssp/src/bsp/cmsis/Device/RENESAS/S3A7/Source/system_S3A7.o
                0x200002b4                SystemCoreClock
 .bss.adc_thread
                0x200002b8       0xb4 ./src/synergy_gen/adc_thread.o
                0x200002b8                adc_thread
 .bss.g_adc0_ctrl
                0x2000036c       0x38 ./src/synergy_gen/adc_thread.o
                0x2000036c                g_adc0_ctrl
 .bss.can_thread
                0x200003a4       0xb4 ./src/synergy_gen/can_thread.o
                0x200003a4                can_thread
 .bss.g_can0_ctrl
                0x20000458       0x28 ./src/synergy_gen/can_thread.o
 .bss.gp_ctrl_CAN_0_ERROR
                0x20000480        0x4 ./src/synergy_gen/can_thread.o
 .bss.gp_ctrl_CAN_0_MAILBOX_RX
                0x20000484        0x4 ./src/synergy_gen/can_thread.o
 .bss.gp_ctrl_CAN_0_MAILBOX_TX
                0x20000488        0x4 ./src/synergy_gen/can_thread.o
 .bss.drv_thread
                0x2000048c       0xb4 ./src/synergy_gen/drv_thread.o
                0x2000048c                drv_thread
 .bss.gp_ctrl_SCI_0_RXI
                0x20000540        0x4 ./src/synergy_gen/drv_thread.o
 .bss.gp_ctrl_SCI_0_TEI
                0x20000544        0x4 ./src/synergy_gen/drv_thread.o
 .bss.gp_ctrl_SCI_0_TXI
                0x20000548        0x4 ./src/synergy_gen/drv_thread.o
 .bss.lcd_thread
                0x2000054c       0xb4 ./src/synergy_gen/lcd_thread.o
                0x2000054c                lcd_thread
 .bss.g_ssp_common_initialized
                0x20000600        0x1 ./src/synergy_gen/main.o
                0x20000600                g_ssp_common_initialized
 *fill*         0x20000601        0x3 
 .bss.g_ssp_common_initialized_semaphore
                0x20000604       0x1c ./src/synergy_gen/main.o
                0x20000604                g_ssp_common_initialized_semaphore
 .bss.g_ssp_common_thread_count
                0x20000620        0x4 ./src/synergy_gen/main.o
                0x20000620                g_ssp_common_thread_count
 .bss.status_led
                0x20000624       0xb4 ./src/synergy_gen/status_led.o
                0x20000624                status_led
 .bss.error     0x200006d8        0x4 ./src/adc_thread_entry.o
 .bss.usADCResult1
                0x200006dc       0x12 ./src/adc_thread_entry.o
 *fill*         0x200006ee        0x2 
 .bss.usMuxResults1
                0x200006f0       0x90 ./src/adc_thread_entry.o
                0x200006f0                usMuxResults1
 .bss.Info      0x20000780       0x14 ./src/can_thread_entry.o
 .bss.ch0       0x20000794        0x4 ./src/can_thread_entry.o
 .bss.error     0x20000798        0x4 ./src/can_thread_entry.o
 .bss.previous  0x2000079c        0x4 ./src/can_thread_entry.o
                0x2000079c                previous
 .bss.rxFrame   0x200007a0       0x10 ./src/can_thread_entry.o
 .bss.rx_data   0x200007b0        0x8 ./src/can_thread_entry.o
                0x200007b0                rx_data
 .bss.txFrame   0x200007b8       0x10 ./src/can_thread_entry.o
 .bss.ucTxComplete
                0x200007c8        0x1 ./src/can_thread_entry.o
 *fill*         0x200007c9        0x3 
 .bss.ulErrors  0x200007cc        0x4 ./src/can_thread_entry.o
 .bss.data      0x200007d0        0x2 ./src/lcd_thread_entry.o
 .bss.ptr       0x200007d2        0x2 ./src/lcd_thread_entry.o
 .bss._tx_block_pool_created_count
                0x200007d4        0x4 C:\Users\khurr\e2_studio_latest\workspace\COPJunction\synergy\ssp\src\framework\el\tx\cm4_gcc\libtx.a(tx_initialize_high_level.o)
                0x200007d4                _tx_block_pool_created_count
 .bss._tx_block_pool_created_ptr
                0x200007d8        0x4 C:\Users\khurr\e2_studio_latest\workspace\COPJunction\synergy\ssp\src\framework\el\tx\cm4_gcc\libtx.a(tx_initialize_high_level.o)
                0x200007d8                _tx_block_pool_created_ptr
 .bss._tx_byte_pool_created_count
                0x200007dc        0x4 C:\Users\khurr\e2_studio_latest\workspace\COPJunction\synergy\ssp\src\framework\el\tx\cm4_gcc\libtx.a(tx_initialize_high_level.o)
                0x200007dc                _tx_byte_pool_created_count
 .bss._tx_byte_pool_created_ptr
                0x200007e0        0x4 C:\Users\khurr\e2_studio_latest\workspace\COPJunction\synergy\ssp\src\framework\el\tx\cm4_gcc\libtx.a(tx_initialize_high_level.o)
                0x200007e0                _tx_byte_pool_created_ptr
 .bss._tx_event_flags_created_count
                0x200007e4        0x4 C:\Users\khurr\e2_studio_latest\workspace\COPJunction\synergy\ssp\src\framework\el\tx\cm4_gcc\libtx.a(tx_initialize_high_level.o)
                0x200007e4                _tx_event_flags_created_count
 .bss._tx_event_flags_created_ptr
                0x200007e8        0x4 C:\Users\khurr\e2_studio_latest\workspace\COPJunction\synergy\ssp\src\framework\el\tx\cm4_gcc\libtx.a(tx_initialize_high_level.o)
                0x200007e8                _tx_event_flags_created_ptr
 .bss._tx_initialize_unused_memory
                0x200007ec        0x4 C:\Users\khurr\e2_studio_latest\workspace\COPJunction\synergy\ssp\src\framework\el\tx\cm4_gcc\libtx.a(tx_initialize_high_level.o)
                0x200007ec                _tx_initialize_unused_memory
 .bss._tx_mutex_created_count
                0x200007f0        0x4 C:\Users\khurr\e2_studio_latest\workspace\COPJunction\synergy\ssp\src\framework\el\tx\cm4_gcc\libtx.a(tx_initialize_high_level.o)
                0x200007f0                _tx_mutex_created_count
 .bss._tx_mutex_created_ptr
                0x200007f4        0x4 C:\Users\khurr\e2_studio_latest\workspace\COPJunction\synergy\ssp\src\framework\el\tx\cm4_gcc\libtx.a(tx_initialize_high_level.o)
                0x200007f4                _tx_mutex_created_ptr
 .bss._tx_queue_created_count
                0x200007f8        0x4 C:\Users\khurr\e2_studio_latest\workspace\COPJunction\synergy\ssp\src\framework\el\tx\cm4_gcc\libtx.a(tx_initialize_high_level.o)
                0x200007f8                _tx_queue_created_count
 .bss._tx_queue_created_ptr
                0x200007fc        0x4 C:\Users\khurr\e2_studio_latest\workspace\COPJunction\synergy\ssp\src\framework\el\tx\cm4_gcc\libtx.a(tx_initialize_high_level.o)
                0x200007fc                _tx_queue_created_ptr
 .bss._tx_semaphore_created_count
                0x20000800        0x4 C:\Users\khurr\e2_studio_latest\workspace\COPJunction\synergy\ssp\src\framework\el\tx\cm4_gcc\libtx.a(tx_initialize_high_level.o)
                0x20000800                _tx_semaphore_created_count
 .bss._tx_semaphore_created_ptr
                0x20000804        0x4 C:\Users\khurr\e2_studio_latest\workspace\COPJunction\synergy\ssp\src\framework\el\tx\cm4_gcc\libtx.a(tx_initialize_high_level.o)
                0x20000804                _tx_semaphore_created_ptr
 .bss._tx_build_options
                0x20000808        0x4 C:\Users\khurr\e2_studio_latest\workspace\COPJunction\synergy\ssp\src\framework\el\tx\cm4_gcc\libtx.a(tx_thread_initialize.o)
                0x20000808                _tx_build_options
 .bss._tx_thread_created_count
                0x2000080c        0x4 C:\Users\khurr\e2_studio_latest\workspace\COPJunction\synergy\ssp\src\framework\el\tx\cm4_gcc\libtx.a(tx_thread_initialize.o)
                0x2000080c                _tx_thread_created_count
 .bss._tx_thread_created_ptr
                0x20000810        0x4 C:\Users\khurr\e2_studio_latest\workspace\COPJunction\synergy\ssp\src\framework\el\tx\cm4_gcc\libtx.a(tx_thread_initialize.o)
                0x20000810                _tx_thread_created_ptr
 .bss._tx_thread_current_ptr
                0x20000814        0x4 C:\Users\khurr\e2_studio_latest\workspace\COPJunction\synergy\ssp\src\framework\el\tx\cm4_gcc\libtx.a(tx_thread_initialize.o)
                0x20000814                _tx_thread_current_ptr
 .bss._tx_thread_execute_ptr
                0x20000818        0x4 C:\Users\khurr\e2_studio_latest\workspace\COPJunction\synergy\ssp\src\framework\el\tx\cm4_gcc\libtx.a(tx_thread_initialize.o)
                0x20000818                _tx_thread_execute_ptr
 .bss._tx_thread_highest_priority
                0x2000081c        0x4 C:\Users\khurr\e2_studio_latest\workspace\COPJunction\synergy\ssp\src\framework\el\tx\cm4_gcc\libtx.a(tx_thread_initialize.o)
                0x2000081c                _tx_thread_highest_priority
 .bss._tx_thread_mutex_release
                0x20000820        0x4 C:\Users\khurr\e2_studio_latest\workspace\COPJunction\synergy\ssp\src\framework\el\tx\cm4_gcc\libtx.a(tx_thread_initialize.o)
                0x20000820                _tx_thread_mutex_release
 .bss._tx_thread_preempt_disable
                0x20000824        0x4 C:\Users\khurr\e2_studio_latest\workspace\COPJunction\synergy\ssp\src\framework\el\tx\cm4_gcc\libtx.a(tx_thread_initialize.o)
                0x20000824                _tx_thread_preempt_disable
 .bss._tx_thread_priority_list
                0x20000828       0x80 C:\Users\khurr\e2_studio_latest\workspace\COPJunction\synergy\ssp\src\framework\el\tx\cm4_gcc\libtx.a(tx_thread_initialize.o)
                0x20000828                _tx_thread_priority_list
 .bss._tx_thread_priority_maps
                0x200008a8        0x4 C:\Users\khurr\e2_studio_latest\workspace\COPJunction\synergy\ssp\src\framework\el\tx\cm4_gcc\libtx.a(tx_thread_initialize.o)
                0x200008a8                _tx_thread_priority_maps
 .bss._tx_thread_system_stack_ptr
                0x200008ac        0x4 C:\Users\khurr\e2_studio_latest\workspace\COPJunction\synergy\ssp\src\framework\el\tx\cm4_gcc\libtx.a(tx_thread_initialize.o)
                0x200008ac                _tx_thread_system_stack_ptr
 .bss._tx_timer_created_count
                0x200008b0        0x4 C:\Users\khurr\e2_studio_latest\workspace\COPJunction\synergy\ssp\src\framework\el\tx\cm4_gcc\libtx.a(tx_timer_initialize.o)
                0x200008b0                _tx_timer_created_count
 .bss._tx_timer_created_ptr
                0x200008b4        0x4 C:\Users\khurr\e2_studio_latest\workspace\COPJunction\synergy\ssp\src\framework\el\tx\cm4_gcc\libtx.a(tx_timer_initialize.o)
                0x200008b4                _tx_timer_created_ptr
 .bss._tx_timer_current_ptr
                0x200008b8        0x4 C:\Users\khurr\e2_studio_latest\workspace\COPJunction\synergy\ssp\src\framework\el\tx\cm4_gcc\libtx.a(tx_timer_initialize.o)
                0x200008b8                _tx_timer_current_ptr
 .bss._tx_timer_expired
                0x200008bc        0x4 C:\Users\khurr\e2_studio_latest\workspace\COPJunction\synergy\ssp\src\framework\el\tx\cm4_gcc\libtx.a(tx_timer_initialize.o)
                0x200008bc                _tx_timer_expired
 .bss._tx_timer_expired_time_slice
                0x200008c0        0x4 C:\Users\khurr\e2_studio_latest\workspace\COPJunction\synergy\ssp\src\framework\el\tx\cm4_gcc\libtx.a(tx_timer_initialize.o)
                0x200008c0                _tx_timer_expired_time_slice
 .bss._tx_timer_expired_timer_ptr
                0x200008c4        0x4 C:\Users\khurr\e2_studio_latest\workspace\COPJunction\synergy\ssp\src\framework\el\tx\cm4_gcc\libtx.a(tx_timer_initialize.o)
                0x200008c4                _tx_timer_expired_timer_ptr
 .bss._tx_timer_list
                0x200008c8       0x80 C:\Users\khurr\e2_studio_latest\workspace\COPJunction\synergy\ssp\src\framework\el\tx\cm4_gcc\libtx.a(tx_timer_initialize.o)
                0x200008c8                _tx_timer_list
 .bss._tx_timer_list_end
                0x20000948        0x4 C:\Users\khurr\e2_studio_latest\workspace\COPJunction\synergy\ssp\src\framework\el\tx\cm4_gcc\libtx.a(tx_timer_initialize.o)
                0x20000948                _tx_timer_list_end
 .bss._tx_timer_list_start
                0x2000094c        0x4 C:\Users\khurr\e2_studio_latest\workspace\COPJunction\synergy\ssp\src\framework\el\tx\cm4_gcc\libtx.a(tx_timer_initialize.o)
                0x2000094c                _tx_timer_list_start
 .bss._tx_timer_processing_active
                0x20000950        0x4 C:\Users\khurr\e2_studio_latest\workspace\COPJunction\synergy\ssp\src\framework\el\tx\cm4_gcc\libtx.a(tx_timer_initialize.o)
                0x20000950                _tx_timer_processing_active
 .bss._tx_timer_system_clock
                0x20000954        0x4 C:\Users\khurr\e2_studio_latest\workspace\COPJunction\synergy\ssp\src\framework\el\tx\cm4_gcc\libtx.a(tx_timer_initialize.o)
                0x20000954                _tx_timer_system_clock
 .bss._tx_timer_time_slice
                0x20000958        0x4 C:\Users\khurr\e2_studio_latest\workspace\COPJunction\synergy\ssp\src\framework\el\tx\cm4_gcc\libtx.a(tx_timer_initialize.o)
                0x20000958                _tx_timer_time_slice
 .bss.g_prcr    0x2000095c        0x4 C:\Users\khurr\e2_studio_latest\workspace\COPJunction\synergy\ssp\src\framework\el\tx\cm4_gcc\libtx.a(tx_thread_schedule.o)
 .bss.g_sbycr_ssby
                0x20000960        0x4 C:\Users\khurr\e2_studio_latest\workspace\COPJunction\synergy\ssp\src\framework\el\tx\cm4_gcc\libtx.a(tx_thread_schedule.o)
 .bss.__malloc_free_list
                0x20000964        0x4 c:/renesas/synergy/e2studio_v2022-10_ssp_v2.4.0/toolchains/gcc_arm/gcc-arm-none-eabi-10.3-2021.10/bin/../lib/gcc/arm-none-eabi/10.3.1/../../../../arm-none-eabi/lib/thumb/v7e-m+fp/hard\libg_nano.a(lib_a-nano-mallocr.o)
                0x20000964                __malloc_free_list
 .bss.__malloc_sbrk_start
                0x20000968        0x4 c:/renesas/synergy/e2studio_v2022-10_ssp_v2.4.0/toolchains/gcc_arm/gcc-arm-none-eabi-10.3-2021.10/bin/../lib/gcc/arm-none-eabi/10.3.1/../../../../arm-none-eabi/lib/thumb/v7e-m+fp/hard\libg_nano.a(lib_a-nano-mallocr.o)
                0x20000968                __malloc_sbrk_start
 .bss.__lock___malloc_recursive_mutex
                0x2000096c        0x1 c:/renesas/synergy/e2studio_v2022-10_ssp_v2.4.0/toolchains/gcc_arm/gcc-arm-none-eabi-10.3-2021.10/bin/../lib/gcc/arm-none-eabi/10.3.1/../../../../arm-none-eabi/lib/thumb/v7e-m+fp/hard\libg_nano.a(lib_a-lock.o)
                0x2000096c                __lock___malloc_recursive_mutex
 .bss.__lock___sfp_recursive_mutex
                0x2000096d        0x1 c:/renesas/synergy/e2studio_v2022-10_ssp_v2.4.0/toolchains/gcc_arm/gcc-arm-none-eabi-10.3-2021.10/bin/../lib/gcc/arm-none-eabi/10.3.1/../../../../arm-none-eabi/lib/thumb/v7e-m+fp/hard\libg_nano.a(lib_a-lock.o)
                0x2000096d                __lock___sfp_recursive_mutex
 .bss.__lock___sinit_recursive_mutex
                0x2000096e        0x1 c:/renesas/synergy/e2studio_v2022-10_ssp_v2.4.0/toolchains/gcc_arm/gcc-arm-none-eabi-10.3-2021.10/bin/../lib/gcc/arm-none-eabi/10.3.1/../../../../arm-none-eabi/lib/thumb/v7e-m+fp/hard\libg_nano.a(lib_a-lock.o)
                0x2000096e                __lock___sinit_recursive_mutex
 *fill*         0x2000096f        0x1 
 .bss.errno     0x20000970        0x4 c:/renesas/synergy/e2studio_v2022-10_ssp_v2.4.0/toolchains/gcc_arm/gcc-arm-none-eabi-10.3-2021.10/bin/../lib/gcc/arm-none-eabi/10.3.1/../../../../arm-none-eabi/lib/thumb/v7e-m+fp/hard\libg_nano.a(lib_a-reent.o)
                0x20000970                errno
 .bss.openfiles
                0x20000974       0xa0 c:/renesas/synergy/e2studio_v2022-10_ssp_v2.4.0/toolchains/gcc_arm/gcc-arm-none-eabi-10.3-2021.10/bin/../lib/gcc/arm-none-eabi/10.3.1/../../../../arm-none-eabi/lib/thumb/v7e-m+fp/hard\librdimon_nano.a(rdimon-syscalls.o)
 *(COMMON)
                0x20000a14                . = ALIGN (0x4)
                0x20000a14                __bss_end__ = .

.heap           0x20000a18     0x1000
                0x20000a18                . = ALIGN (0x8)
                0x20000a18                __HeapBase = .
                0x20000a18                __end__ = .
                0x20000a18                end = __end__
 *(.heap*)
 .heap          0x20000a18     0x1000 ./synergy/ssp/src/bsp/cmsis/Device/RENESAS/S3A7/Source/startup_S3A7.o
                0x20001a18                __HeapLimit = .

.stack_dummy    0x20001a18     0x2400
                0x20001a18                . = ALIGN (0x8)
                0x20001a18                __StackLimit = .
 *(.stack)
 .stack         0x20001a18      0x800 ./synergy/ssp/src/bsp/cmsis/Device/RENESAS/S3A7/Source/startup_S3A7.o
                0x20002218                __StackTop = .
 *(.stack*)
 .stack.adc_thread
                0x20002218      0x800 ./src/synergy_gen/adc_thread.o
 .stack.can_thread
                0x20002a18      0x400 ./src/synergy_gen/can_thread.o
 .stack.drv_thread
                0x20002e18      0x800 ./src/synergy_gen/drv_thread.o
 .stack.lcd_thread
                0x20003618      0x400 ./src/synergy_gen/lcd_thread.o
 .stack.status_led
                0x20003a18      0x400 ./src/synergy_gen/status_led.o
                0x20003e18                __StackTopAll = .
                0x20003e18                PROVIDE (__stack = __StackTopAll)
                0x20003e18                __RAM_segment_used_end__ = ALIGN (__StackTopAll, 0x4)

.dflash         0x40100000        0x0
                0x40100000                __Data_Flash_Start = .
 *(.dflash*)
                0x40100000                __Data_Flash_End = .

.id_code_1      0x01010018        0x4
                0x01010018                __ID_Code_1_Start = .
 *(.id_code_1*)
 .id_code_1     0x01010018        0x4 ./synergy/ssp/src/bsp/mcu/s3a7/bsp_rom_registers.o
                0x0101001c                __ID_Code_1_End = .

.id_code_2      0x01010020        0x4
                0x01010020                __ID_Code_2_Start = .
 *(.id_code_2*)
 .id_code_2     0x01010020        0x4 ./synergy/ssp/src/bsp/mcu/s3a7/bsp_rom_registers.o
                0x01010024                __ID_Code_2_End = .

.id_code_3      0x01010028        0x4
                0x01010028                __ID_Code_3_Start = .
 *(.id_code_3*)
 .id_code_3     0x01010028        0x4 ./synergy/ssp/src/bsp/mcu/s3a7/bsp_rom_registers.o
                0x0101002c                __ID_Code_3_End = .

.id_code_4      0x01010030        0x4
                0x01010030                __ID_Code_4_Start = .
 *(.id_code_4*)
 .id_code_4     0x01010030        0x4 ./synergy/ssp/src/bsp/mcu/s3a7/bsp_rom_registers.o
                0x01010034                __ID_Code_4_End = .
OUTPUT(COPJunction.elf elf32-littlearm)
LOAD linker stubs

.rel.dyn        0x01010034        0x0
 .rel.iplt      0x01010034        0x0 c:/renesas/synergy/e2studio_v2022-10_ssp_v2.4.0/toolchains/gcc_arm/gcc-arm-none-eabi-10.3-2021.10/bin/../lib/gcc/arm-none-eabi/10.3.1/thumb/v7e-m+fp/hard/crtbegin.o

.ARM.attributes
                0x00000000       0x30
 .ARM.attributes
                0x00000000       0x1e c:/renesas/synergy/e2studio_v2022-10_ssp_v2.4.0/toolchains/gcc_arm/gcc-arm-none-eabi-10.3-2021.10/bin/../lib/gcc/arm-none-eabi/10.3.1/thumb/v7e-m+fp/hard/crti.o
 .ARM.attributes
                0x0000001e       0x34 c:/renesas/synergy/e2studio_v2022-10_ssp_v2.4.0/toolchains/gcc_arm/gcc-arm-none-eabi-10.3-2021.10/bin/../lib/gcc/arm-none-eabi/10.3.1/thumb/v7e-m+fp/hard/crtbegin.o
 .ARM.attributes
                0x00000052       0x34 ./synergy/ssp/src/driver/r_sci_i2c/r_sci_i2c.o
 .ARM.attributes
                0x00000086       0x34 ./synergy/ssp/src/driver/r_ioport/r_ioport.o
 .ARM.attributes
                0x000000ba       0x34 ./synergy/ssp/src/driver/r_elc/r_elc.o
 .ARM.attributes
                0x000000ee       0x34 ./synergy/ssp/src/driver/r_cgc/r_cgc.o
 .ARM.attributes
                0x00000122       0x34 ./synergy/ssp/src/driver/r_can/hw/hw_can.o
 .ARM.attributes
                0x00000156       0x34 ./synergy/ssp/src/driver/r_can/r_can.o
 .ARM.attributes
                0x0000018a       0x34 ./synergy/ssp/src/driver/r_adc/r_adc.o
 .ARM.attributes
                0x000001be       0x34 ./synergy/ssp/src/bsp/mcu/s3a7/bsp_cache.o
 .ARM.attributes
                0x000001f2       0x34 ./synergy/ssp/src/bsp/mcu/s3a7/bsp_clocks.o
 .ARM.attributes
                0x00000226       0x34 ./synergy/ssp/src/bsp/mcu/s3a7/bsp_feature.o
 .ARM.attributes
                0x0000025a       0x34 ./synergy/ssp/src/bsp/mcu/s3a7/bsp_group_irq.o
 .ARM.attributes
                0x0000028e       0x34 ./synergy/ssp/src/bsp/mcu/s3a7/bsp_hw_locks.o
 .ARM.attributes
                0x000002c2       0x34 ./synergy/ssp/src/bsp/mcu/s3a7/bsp_module_stop.o
 .ARM.attributes
                0x000002f6       0x34 ./synergy/ssp/src/bsp/mcu/s3a7/bsp_rom_registers.o
 .ARM.attributes
                0x0000032a       0x34 ./synergy/ssp/src/bsp/mcu/all/bsp_common.o
 .ARM.attributes
                0x0000035e       0x34 ./synergy/ssp/src/bsp/mcu/all/bsp_delay.o
 .ARM.attributes
                0x00000392       0x34 ./synergy/ssp/src/bsp/mcu/all/bsp_irq.o
 .ARM.attributes
                0x000003c6       0x34 ./synergy/ssp/src/bsp/mcu/all/bsp_locking.o
 .ARM.attributes
                0x000003fa       0x34 ./synergy/ssp/src/bsp/mcu/all/bsp_register_protection.o
 .ARM.attributes
                0x0000042e       0x34 ./synergy/ssp/src/bsp/mcu/all/bsp_sbrk.o
 .ARM.attributes
                0x00000462       0x34 ./synergy/ssp/src/bsp/cmsis/Device/RENESAS/S3A7/Source/startup_S3A7.o
 .ARM.attributes
                0x00000496       0x34 ./synergy/ssp/src/bsp/cmsis/Device/RENESAS/S3A7/Source/system_S3A7.o
 .ARM.attributes
                0x000004ca       0x34 ./src/synergy_gen/adc_thread.o
 .ARM.attributes
                0x000004fe       0x34 ./src/synergy_gen/can_thread.o
 .ARM.attributes
                0x00000532       0x34 ./src/synergy_gen/common_data.o
 .ARM.attributes
                0x00000566       0x34 ./src/synergy_gen/drv_thread.o
 .ARM.attributes
                0x0000059a       0x34 ./src/synergy_gen/hal_data.o
 .ARM.attributes
                0x000005ce       0x34 ./src/synergy_gen/lcd_thread.o
 .ARM.attributes
                0x00000602       0x34 ./src/synergy_gen/main.o
 .ARM.attributes
                0x00000636       0x34 ./src/synergy_gen/pin_data.o
 .ARM.attributes
                0x0000066a       0x34 ./src/synergy_gen/status_led.o
 .ARM.attributes
                0x0000069e       0x34 ./src/adc_thread_entry.o
 .ARM.attributes
                0x000006d2       0x34 ./src/can_thread_entry.o
 .ARM.attributes
                0x00000706       0x34 ./src/drv_thread_entry.o
 .ARM.attributes
                0x0000073a       0x34 ./src/lcd_thread_entry.o
 .ARM.attributes
                0x0000076e       0x34 ./src/status_led_entry.o
 .ARM.attributes
                0x000007a2       0x34 C:\Users\khurr\e2_studio_latest\workspace\COPJunction\synergy\ssp\src\driver\r_fmi\libs\libfmi_cm4_s3a7_gcc.a(r_fmi.o)
 .ARM.attributes
                0x000007d6       0x34 C:\Users\khurr\e2_studio_latest\workspace\COPJunction\synergy\ssp\src\framework\el\tx\cm4_gcc\libtx.a(txe_semaphore_create.o)
 .ARM.attributes
                0x0000080a       0x34 C:\Users\khurr\e2_studio_latest\workspace\COPJunction\synergy\ssp\src\framework\el\tx\cm4_gcc\libtx.a(txe_semaphore_get.o)
 .ARM.attributes
                0x0000083e       0x34 C:\Users\khurr\e2_studio_latest\workspace\COPJunction\synergy\ssp\src\framework\el\tx\cm4_gcc\libtx.a(txe_semaphore_put.o)
 .ARM.attributes
                0x00000872       0x34 C:\Users\khurr\e2_studio_latest\workspace\COPJunction\synergy\ssp\src\framework\el\tx\cm4_gcc\libtx.a(txe_thread_create.o)
 .ARM.attributes
                0x000008a6       0x34 C:\Users\khurr\e2_studio_latest\workspace\COPJunction\synergy\ssp\src\framework\el\tx\cm4_gcc\libtx.a(tx_initialize_high_level.o)
 .ARM.attributes
                0x000008da       0x34 C:\Users\khurr\e2_studio_latest\workspace\COPJunction\synergy\ssp\src\framework\el\tx\cm4_gcc\libtx.a(tx_initialize_kernel_enter.o)
 .ARM.attributes
                0x0000090e       0x34 C:\Users\khurr\e2_studio_latest\workspace\COPJunction\synergy\ssp\src\framework\el\tx\cm4_gcc\libtx.a(tx_isr_end.o)
 .ARM.attributes
                0x00000942       0x34 C:\Users\khurr\e2_studio_latest\workspace\COPJunction\synergy\ssp\src\framework\el\tx\cm4_gcc\libtx.a(tx_isr_start.o)
 .ARM.attributes
                0x00000976       0x34 C:\Users\khurr\e2_studio_latest\workspace\COPJunction\synergy\ssp\src\framework\el\tx\cm4_gcc\libtx.a(tx_semaphore_create.o)
 .ARM.attributes
                0x000009aa       0x34 C:\Users\khurr\e2_studio_latest\workspace\COPJunction\synergy\ssp\src\framework\el\tx\cm4_gcc\libtx.a(tx_semaphore_get.o)
 .ARM.attributes
                0x000009de       0x34 C:\Users\khurr\e2_studio_latest\workspace\COPJunction\synergy\ssp\src\framework\el\tx\cm4_gcc\libtx.a(tx_semaphore_put.o)
 .ARM.attributes
                0x00000a12       0x34 C:\Users\khurr\e2_studio_latest\workspace\COPJunction\synergy\ssp\src\framework\el\tx\cm4_gcc\libtx.a(tx_thread_create.o)
 .ARM.attributes
                0x00000a46       0x34 C:\Users\khurr\e2_studio_latest\workspace\COPJunction\synergy\ssp\src\framework\el\tx\cm4_gcc\libtx.a(tx_thread_initialize.o)
 .ARM.attributes
                0x00000a7a       0x34 C:\Users\khurr\e2_studio_latest\workspace\COPJunction\synergy\ssp\src\framework\el\tx\cm4_gcc\libtx.a(tx_thread_shell_entry.o)
 .ARM.attributes
                0x00000aae       0x34 C:\Users\khurr\e2_studio_latest\workspace\COPJunction\synergy\ssp\src\framework\el\tx\cm4_gcc\libtx.a(tx_thread_sleep.o)
 .ARM.attributes
                0x00000ae2       0x34 C:\Users\khurr\e2_studio_latest\workspace\COPJunction\synergy\ssp\src\framework\el\tx\cm4_gcc\libtx.a(tx_thread_system_preempt_check.o)
 .ARM.attributes
                0x00000b16       0x34 C:\Users\khurr\e2_studio_latest\workspace\COPJunction\synergy\ssp\src\framework\el\tx\cm4_gcc\libtx.a(tx_thread_system_resume.o)
 .ARM.attributes
                0x00000b4a       0x34 C:\Users\khurr\e2_studio_latest\workspace\COPJunction\synergy\ssp\src\framework\el\tx\cm4_gcc\libtx.a(tx_thread_system_suspend.o)
 .ARM.attributes
                0x00000b7e       0x34 C:\Users\khurr\e2_studio_latest\workspace\COPJunction\synergy\ssp\src\framework\el\tx\cm4_gcc\libtx.a(tx_thread_timeout.o)
 .ARM.attributes
                0x00000bb2       0x34 C:\Users\khurr\e2_studio_latest\workspace\COPJunction\synergy\ssp\src\framework\el\tx\cm4_gcc\libtx.a(tx_timer_initialize.o)
 .ARM.attributes
                0x00000be6       0x34 C:\Users\khurr\e2_studio_latest\workspace\COPJunction\synergy\ssp\src\framework\el\tx\cm4_gcc\libtx.a(tx_timer_system_activate.o)
 .ARM.attributes
                0x00000c1a       0x34 C:\Users\khurr\e2_studio_latest\workspace\COPJunction\synergy\ssp\src\framework\el\tx\cm4_gcc\libtx.a(tx_timer_system_deactivate.o)
 .ARM.attributes
                0x00000c4e       0x34 C:\Users\khurr\e2_studio_latest\workspace\COPJunction\synergy\ssp\src\framework\el\tx\cm4_gcc\libtx.a(tx_initialize_low_level.o)
 .ARM.attributes
                0x00000c82       0x34 C:\Users\khurr\e2_studio_latest\workspace\COPJunction\synergy\ssp\src\framework\el\tx\cm4_gcc\libtx.a(tx_thread_schedule.o)
 .ARM.attributes
                0x00000cb6       0x34 C:\Users\khurr\e2_studio_latest\workspace\COPJunction\synergy\ssp\src\framework\el\tx\cm4_gcc\libtx.a(tx_thread_stack_build.o)
 .ARM.attributes
                0x00000cea       0x34 C:\Users\khurr\e2_studio_latest\workspace\COPJunction\synergy\ssp\src\framework\el\tx\cm4_gcc\libtx.a(tx_timer_interrupt.o)
 .ARM.attributes
                0x00000d1e       0x34 C:\Users\khurr\e2_studio_latest\workspace\COPJunction\synergy\ssp\src\framework\el\tx\cm4_gcc\libtx.a(tx_semaphore_cleanup.o)
 .ARM.attributes
                0x00000d52       0x34 C:\Users\khurr\e2_studio_latest\workspace\COPJunction\synergy\ssp\src\framework\el\tx\cm4_gcc\libtx.a(tx_thread_time_slice.o)
 .ARM.attributes
                0x00000d86       0x34 C:\Users\khurr\e2_studio_latest\workspace\COPJunction\synergy\ssp\src\framework\el\tx\cm4_gcc\libtx.a(tx_timer_expiration_process.o)
 .ARM.attributes
                0x00000dba       0x34 C:\Users\khurr\e2_studio_latest\workspace\COPJunction\synergy\ssp\src\bsp\mcu\s3a7\libfmi_R7FS3A77C3A01CFM_gcc.a(bsp_fmi_R7FS3A77C3A01CFM.o)
 .ARM.attributes
                0x00000dee       0x34 c:/renesas/synergy/e2studio_v2022-10_ssp_v2.4.0/toolchains/gcc_arm/gcc-arm-none-eabi-10.3-2021.10/bin/../lib/gcc/arm-none-eabi/10.3.1/../../../../arm-none-eabi/lib/thumb/v7e-m+fp/hard\libg_nano.a(lib_a-errno.o)
 .ARM.attributes
                0x00000e22       0x34 c:/renesas/synergy/e2studio_v2022-10_ssp_v2.4.0/toolchains/gcc_arm/gcc-arm-none-eabi-10.3-2021.10/bin/../lib/gcc/arm-none-eabi/10.3.1/../../../../arm-none-eabi/lib/thumb/v7e-m+fp/hard\libg_nano.a(lib_a-impure.o)
 .ARM.attributes
                0x00000e56       0x34 c:/renesas/synergy/e2studio_v2022-10_ssp_v2.4.0/toolchains/gcc_arm/gcc-arm-none-eabi-10.3-2021.10/bin/../lib/gcc/arm-none-eabi/10.3.1/../../../../arm-none-eabi/lib/thumb/v7e-m+fp/hard\libg_nano.a(lib_a-memcpy-stub.o)
 .ARM.attributes
                0x00000e8a       0x34 c:/renesas/synergy/e2studio_v2022-10_ssp_v2.4.0/toolchains/gcc_arm/gcc-arm-none-eabi-10.3-2021.10/bin/../lib/gcc/arm-none-eabi/10.3.1/../../../../arm-none-eabi/lib/thumb/v7e-m+fp/hard\libg_nano.a(lib_a-memset.o)
 .ARM.attributes
                0x00000ebe       0x34 c:/renesas/synergy/e2studio_v2022-10_ssp_v2.4.0/toolchains/gcc_arm/gcc-arm-none-eabi-10.3-2021.10/bin/../lib/gcc/arm-none-eabi/10.3.1/../../../../arm-none-eabi/lib/thumb/v7e-m+fp/hard\libg_nano.a(lib_a-rand.o)
 .ARM.attributes
                0x00000ef2       0x34 c:/renesas/synergy/e2studio_v2022-10_ssp_v2.4.0/toolchains/gcc_arm/gcc-arm-none-eabi-10.3-2021.10/bin/../lib/gcc/arm-none-eabi/10.3.1/../../../../arm-none-eabi/lib/thumb/v7e-m+fp/hard\libg_nano.a(lib_a-assert.o)
 .ARM.attributes
                0x00000f26       0x34 c:/renesas/synergy/e2studio_v2022-10_ssp_v2.4.0/toolchains/gcc_arm/gcc-arm-none-eabi-10.3-2021.10/bin/../lib/gcc/arm-none-eabi/10.3.1/../../../../arm-none-eabi/lib/thumb/v7e-m+fp/hard\libg_nano.a(lib_a-fprintf.o)
 .ARM.attributes
                0x00000f5a       0x34 c:/renesas/synergy/e2studio_v2022-10_ssp_v2.4.0/toolchains/gcc_arm/gcc-arm-none-eabi-10.3-2021.10/bin/../lib/gcc/arm-none-eabi/10.3.1/../../../../arm-none-eabi/lib/thumb/v7e-m+fp/hard\libg_nano.a(lib_a-malloc.o)
 .ARM.attributes
                0x00000f8e       0x34 c:/renesas/synergy/e2studio_v2022-10_ssp_v2.4.0/toolchains/gcc_arm/gcc-arm-none-eabi-10.3-2021.10/bin/../lib/gcc/arm-none-eabi/10.3.1/../../../../arm-none-eabi/lib/thumb/v7e-m+fp/hard\libg_nano.a(lib_a-nano-freer.o)
 .ARM.attributes
                0x00000fc2       0x34 c:/renesas/synergy/e2studio_v2022-10_ssp_v2.4.0/toolchains/gcc_arm/gcc-arm-none-eabi-10.3-2021.10/bin/../lib/gcc/arm-none-eabi/10.3.1/../../../../arm-none-eabi/lib/thumb/v7e-m+fp/hard\libg_nano.a(lib_a-nano-mallocr.o)
 .ARM.attributes
                0x00000ff6       0x34 c:/renesas/synergy/e2studio_v2022-10_ssp_v2.4.0/toolchains/gcc_arm/gcc-arm-none-eabi-10.3-2021.10/bin/../lib/gcc/arm-none-eabi/10.3.1/../../../../arm-none-eabi/lib/thumb/v7e-m+fp/hard\libg_nano.a(lib_a-nano-vfprintf.o)
 .ARM.attributes
                0x0000102a       0x34 c:/renesas/synergy/e2studio_v2022-10_ssp_v2.4.0/toolchains/gcc_arm/gcc-arm-none-eabi-10.3-2021.10/bin/../lib/gcc/arm-none-eabi/10.3.1/../../../../arm-none-eabi/lib/thumb/v7e-m+fp/hard\libg_nano.a(lib_a-nano-vfprintf_i.o)
 .ARM.attributes
                0x0000105e       0x34 c:/renesas/synergy/e2studio_v2022-10_ssp_v2.4.0/toolchains/gcc_arm/gcc-arm-none-eabi-10.3-2021.10/bin/../lib/gcc/arm-none-eabi/10.3.1/../../../../arm-none-eabi/lib/thumb/v7e-m+fp/hard\libg_nano.a(lib_a-sbrkr.o)
 .ARM.attributes
                0x00001092       0x34 c:/renesas/synergy/e2studio_v2022-10_ssp_v2.4.0/toolchains/gcc_arm/gcc-arm-none-eabi-10.3-2021.10/bin/../lib/gcc/arm-none-eabi/10.3.1/../../../../arm-none-eabi/lib/thumb/v7e-m+fp/hard\libg_nano.a(lib_a-wbuf.o)
 .ARM.attributes
                0x000010c6       0x34 c:/renesas/synergy/e2studio_v2022-10_ssp_v2.4.0/toolchains/gcc_arm/gcc-arm-none-eabi-10.3-2021.10/bin/../lib/gcc/arm-none-eabi/10.3.1/../../../../arm-none-eabi/lib/thumb/v7e-m+fp/hard\libg_nano.a(lib_a-wsetup.o)
 .ARM.attributes
                0x000010fa       0x34 c:/renesas/synergy/e2studio_v2022-10_ssp_v2.4.0/toolchains/gcc_arm/gcc-arm-none-eabi-10.3-2021.10/bin/../lib/gcc/arm-none-eabi/10.3.1/../../../../arm-none-eabi/lib/thumb/v7e-m+fp/hard\libg_nano.a(lib_a-abort.o)
 .ARM.attributes
                0x0000112e       0x34 c:/renesas/synergy/e2studio_v2022-10_ssp_v2.4.0/toolchains/gcc_arm/gcc-arm-none-eabi-10.3-2021.10/bin/../lib/gcc/arm-none-eabi/10.3.1/../../../../arm-none-eabi/lib/thumb/v7e-m+fp/hard\libg_nano.a(lib_a-fflush.o)
 .ARM.attributes
                0x00001162       0x34 c:/renesas/synergy/e2studio_v2022-10_ssp_v2.4.0/toolchains/gcc_arm/gcc-arm-none-eabi-10.3-2021.10/bin/../lib/gcc/arm-none-eabi/10.3.1/../../../../arm-none-eabi/lib/thumb/v7e-m+fp/hard\libg_nano.a(lib_a-findfp.o)
 .ARM.attributes
                0x00001196       0x34 c:/renesas/synergy/e2studio_v2022-10_ssp_v2.4.0/toolchains/gcc_arm/gcc-arm-none-eabi-10.3-2021.10/bin/../lib/gcc/arm-none-eabi/10.3.1/../../../../arm-none-eabi/lib/thumb/v7e-m+fp/hard\libg_nano.a(lib_a-fwalk.o)
 .ARM.attributes
                0x000011ca       0x34 c:/renesas/synergy/e2studio_v2022-10_ssp_v2.4.0/toolchains/gcc_arm/gcc-arm-none-eabi-10.3-2021.10/bin/../lib/gcc/arm-none-eabi/10.3.1/../../../../arm-none-eabi/lib/thumb/v7e-m+fp/hard\libg_nano.a(lib_a-lock.o)
 .ARM.attributes
                0x000011fe       0x34 c:/renesas/synergy/e2studio_v2022-10_ssp_v2.4.0/toolchains/gcc_arm/gcc-arm-none-eabi-10.3-2021.10/bin/../lib/gcc/arm-none-eabi/10.3.1/../../../../arm-none-eabi/lib/thumb/v7e-m+fp/hard\libg_nano.a(lib_a-makebuf.o)
 .ARM.attributes
                0x00001232       0x1c c:/renesas/synergy/e2studio_v2022-10_ssp_v2.4.0/toolchains/gcc_arm/gcc-arm-none-eabi-10.3-2021.10/bin/../lib/gcc/arm-none-eabi/10.3.1/../../../../arm-none-eabi/lib/thumb/v7e-m+fp/hard\libg_nano.a(lib_a-memchr.o)
 .ARM.attributes
                0x0000124e       0x34 c:/renesas/synergy/e2studio_v2022-10_ssp_v2.4.0/toolchains/gcc_arm/gcc-arm-none-eabi-10.3-2021.10/bin/../lib/gcc/arm-none-eabi/10.3.1/../../../../arm-none-eabi/lib/thumb/v7e-m+fp/hard\libg_nano.a(lib_a-mlock.o)
 .ARM.attributes
                0x00001282       0x34 c:/renesas/synergy/e2studio_v2022-10_ssp_v2.4.0/toolchains/gcc_arm/gcc-arm-none-eabi-10.3-2021.10/bin/../lib/gcc/arm-none-eabi/10.3.1/../../../../arm-none-eabi/lib/thumb/v7e-m+fp/hard\libg_nano.a(lib_a-reent.o)
 .ARM.attributes
                0x000012b6       0x34 c:/renesas/synergy/e2studio_v2022-10_ssp_v2.4.0/toolchains/gcc_arm/gcc-arm-none-eabi-10.3-2021.10/bin/../lib/gcc/arm-none-eabi/10.3.1/../../../../arm-none-eabi/lib/thumb/v7e-m+fp/hard\libg_nano.a(lib_a-signal.o)
 .ARM.attributes
                0x000012ea       0x34 c:/renesas/synergy/e2studio_v2022-10_ssp_v2.4.0/toolchains/gcc_arm/gcc-arm-none-eabi-10.3-2021.10/bin/../lib/gcc/arm-none-eabi/10.3.1/../../../../arm-none-eabi/lib/thumb/v7e-m+fp/hard\libg_nano.a(lib_a-signalr.o)
 .ARM.attributes
                0x0000131e       0x34 c:/renesas/synergy/e2studio_v2022-10_ssp_v2.4.0/toolchains/gcc_arm/gcc-arm-none-eabi-10.3-2021.10/bin/../lib/gcc/arm-none-eabi/10.3.1/../../../../arm-none-eabi/lib/thumb/v7e-m+fp/hard\libg_nano.a(lib_a-stdio.o)
 .ARM.attributes
                0x00001352       0x34 c:/renesas/synergy/e2studio_v2022-10_ssp_v2.4.0/toolchains/gcc_arm/gcc-arm-none-eabi-10.3-2021.10/bin/../lib/gcc/arm-none-eabi/10.3.1/../../../../arm-none-eabi/lib/thumb/v7e-m+fp/hard\libg_nano.a(lib_a-writer.o)
 .ARM.attributes
                0x00001386       0x34 c:/renesas/synergy/e2studio_v2022-10_ssp_v2.4.0/toolchains/gcc_arm/gcc-arm-none-eabi-10.3-2021.10/bin/../lib/gcc/arm-none-eabi/10.3.1/../../../../arm-none-eabi/lib/thumb/v7e-m+fp/hard\libg_nano.a(lib_a-closer.o)
 .ARM.attributes
                0x000013ba       0x34 c:/renesas/synergy/e2studio_v2022-10_ssp_v2.4.0/toolchains/gcc_arm/gcc-arm-none-eabi-10.3-2021.10/bin/../lib/gcc/arm-none-eabi/10.3.1/../../../../arm-none-eabi/lib/thumb/v7e-m+fp/hard\libg_nano.a(lib_a-fstatr.o)
 .ARM.attributes
                0x000013ee       0x34 c:/renesas/synergy/e2studio_v2022-10_ssp_v2.4.0/toolchains/gcc_arm/gcc-arm-none-eabi-10.3-2021.10/bin/../lib/gcc/arm-none-eabi/10.3.1/../../../../arm-none-eabi/lib/thumb/v7e-m+fp/hard\libg_nano.a(lib_a-isattyr.o)
 .ARM.attributes
                0x00001422       0x34 c:/renesas/synergy/e2studio_v2022-10_ssp_v2.4.0/toolchains/gcc_arm/gcc-arm-none-eabi-10.3-2021.10/bin/../lib/gcc/arm-none-eabi/10.3.1/../../../../arm-none-eabi/lib/thumb/v7e-m+fp/hard\libg_nano.a(lib_a-lseekr.o)
 .ARM.attributes
                0x00001456       0x34 c:/renesas/synergy/e2studio_v2022-10_ssp_v2.4.0/toolchains/gcc_arm/gcc-arm-none-eabi-10.3-2021.10/bin/../lib/gcc/arm-none-eabi/10.3.1/../../../../arm-none-eabi/lib/thumb/v7e-m+fp/hard\libg_nano.a(lib_a-readr.o)
 .ARM.attributes
                0x0000148a       0x34 c:/renesas/synergy/e2studio_v2022-10_ssp_v2.4.0/toolchains/gcc_arm/gcc-arm-none-eabi-10.3-2021.10/bin/../lib/gcc/arm-none-eabi/10.3.1/../../../../arm-none-eabi/lib/thumb/v7e-m+fp/hard\librdimon_nano.a(rdimon-syscalls.o)
 .ARM.attributes
                0x000014be       0x34 c:/renesas/synergy/e2studio_v2022-10_ssp_v2.4.0/toolchains/gcc_arm/gcc-arm-none-eabi-10.3-2021.10/bin/../lib/gcc/arm-none-eabi/10.3.1/../../../../arm-none-eabi/lib/thumb/v7e-m+fp/hard\librdimon_nano.a(rdimon-_exit.o)
 .ARM.attributes
                0x000014f2       0x34 c:/renesas/synergy/e2studio_v2022-10_ssp_v2.4.0/toolchains/gcc_arm/gcc-arm-none-eabi-10.3-2021.10/bin/../lib/gcc/arm-none-eabi/10.3.1/../../../../arm-none-eabi/lib/thumb/v7e-m+fp/hard\librdimon_nano.a(rdimon-_kill.o)
 .ARM.attributes
                0x00001526       0x17 c:/renesas/synergy/e2studio_v2022-10_ssp_v2.4.0/toolchains/gcc_arm/gcc-arm-none-eabi-10.3-2021.10/bin/../lib/gcc/arm-none-eabi/10.3.1/../../../../arm-none-eabi/lib/thumb/v7e-m+fp/hard\libc_nano.a(lib_a-strlen.o)
 .ARM.attributes
                0x0000153d       0x34 c:/renesas/synergy/e2studio_v2022-10_ssp_v2.4.0/toolchains/gcc_arm/gcc-arm-none-eabi-10.3-2021.10/bin/../lib/gcc/arm-none-eabi/10.3.1/thumb/v7e-m+fp/hard/crtend.o
 .ARM.attributes
                0x00001571       0x1e c:/renesas/synergy/e2studio_v2022-10_ssp_v2.4.0/toolchains/gcc_arm/gcc-arm-none-eabi-10.3-2021.10/bin/../lib/gcc/arm-none-eabi/10.3.1/thumb/v7e-m+fp/hard/crtn.o

.comment        0x00000000       0x49
 .comment       0x00000000       0x49 ./synergy/ssp/src/driver/r_sci_i2c/r_sci_i2c.o
                                 0x4a (size before relaxing)
 .comment       0x00000049       0x4a ./synergy/ssp/src/driver/r_ioport/r_ioport.o
 .comment       0x00000049       0x4a ./synergy/ssp/src/driver/r_elc/r_elc.o
 .comment       0x00000049       0x4a ./synergy/ssp/src/driver/r_cgc/r_cgc.o
 .comment       0x00000049       0x4a ./synergy/ssp/src/driver/r_can/hw/hw_can.o
 .comment       0x00000049       0x4a ./synergy/ssp/src/driver/r_can/r_can.o
 .comment       0x00000049       0x4a ./synergy/ssp/src/driver/r_adc/r_adc.o
 .comment       0x00000049       0x4a ./synergy/ssp/src/bsp/mcu/s3a7/bsp_cache.o
 .comment       0x00000049       0x4a ./synergy/ssp/src/bsp/mcu/s3a7/bsp_clocks.o
 .comment       0x00000049       0x4a ./synergy/ssp/src/bsp/mcu/s3a7/bsp_feature.o
 .comment       0x00000049       0x4a ./synergy/ssp/src/bsp/mcu/s3a7/bsp_group_irq.o
 .comment       0x00000049       0x4a ./synergy/ssp/src/bsp/mcu/s3a7/bsp_hw_locks.o
 .comment       0x00000049       0x4a ./synergy/ssp/src/bsp/mcu/s3a7/bsp_module_stop.o
 .comment       0x00000049       0x4a ./synergy/ssp/src/bsp/mcu/s3a7/bsp_rom_registers.o
 .comment       0x00000049       0x4a ./synergy/ssp/src/bsp/mcu/all/bsp_common.o
 .comment       0x00000049       0x4a ./synergy/ssp/src/bsp/mcu/all/bsp_delay.o
 .comment       0x00000049       0x4a ./synergy/ssp/src/bsp/mcu/all/bsp_irq.o
 .comment       0x00000049       0x4a ./synergy/ssp/src/bsp/mcu/all/bsp_locking.o
 .comment       0x00000049       0x4a ./synergy/ssp/src/bsp/mcu/all/bsp_register_protection.o
 .comment       0x00000049       0x4a ./synergy/ssp/src/bsp/mcu/all/bsp_sbrk.o
 .comment       0x00000049       0x4a ./synergy/ssp/src/bsp/cmsis/Device/RENESAS/S3A7/Source/startup_S3A7.o
 .comment       0x00000049       0x4a ./synergy/ssp/src/bsp/cmsis/Device/RENESAS/S3A7/Source/system_S3A7.o
 .comment       0x00000049       0x4a ./src/synergy_gen/adc_thread.o
 .comment       0x00000049       0x4a ./src/synergy_gen/can_thread.o
 .comment       0x00000049       0x4a ./src/synergy_gen/common_data.o
 .comment       0x00000049       0x4a ./src/synergy_gen/drv_thread.o
 .comment       0x00000049       0x4a ./src/synergy_gen/hal_data.o
 .comment       0x00000049       0x4a ./src/synergy_gen/lcd_thread.o
 .comment       0x00000049       0x4a ./src/synergy_gen/main.o
 .comment       0x00000049       0x4a ./src/synergy_gen/pin_data.o
 .comment       0x00000049       0x4a ./src/synergy_gen/status_led.o
 .comment       0x00000049       0x4a ./src/adc_thread_entry.o
 .comment       0x00000049       0x4a ./src/can_thread_entry.o
 .comment       0x00000049       0x4a ./src/drv_thread_entry.o
 .comment       0x00000049       0x4a ./src/lcd_thread_entry.o
 .comment       0x00000049       0x4a ./src/status_led_entry.o
 .comment       0x00000049       0x4a C:\Users\khurr\e2_studio_latest\workspace\COPJunction\synergy\ssp\src\driver\r_fmi\libs\libfmi_cm4_s3a7_gcc.a(r_fmi.o)
 .comment       0x00000049       0x4a C:\Users\khurr\e2_studio_latest\workspace\COPJunction\synergy\ssp\src\framework\el\tx\cm4_gcc\libtx.a(txe_semaphore_create.o)
 .comment       0x00000049       0x4a C:\Users\khurr\e2_studio_latest\workspace\COPJunction\synergy\ssp\src\framework\el\tx\cm4_gcc\libtx.a(txe_semaphore_get.o)
 .comment       0x00000049       0x4a C:\Users\khurr\e2_studio_latest\workspace\COPJunction\synergy\ssp\src\framework\el\tx\cm4_gcc\libtx.a(txe_semaphore_put.o)
 .comment       0x00000049       0x4a C:\Users\khurr\e2_studio_latest\workspace\COPJunction\synergy\ssp\src\framework\el\tx\cm4_gcc\libtx.a(txe_thread_create.o)
 .comment       0x00000049       0x4a C:\Users\khurr\e2_studio_latest\workspace\COPJunction\synergy\ssp\src\framework\el\tx\cm4_gcc\libtx.a(tx_initialize_high_level.o)
 .comment       0x00000049       0x4a C:\Users\khurr\e2_studio_latest\workspace\COPJunction\synergy\ssp\src\framework\el\tx\cm4_gcc\libtx.a(tx_initialize_kernel_enter.o)
 .comment       0x00000049       0x4a C:\Users\khurr\e2_studio_latest\workspace\COPJunction\synergy\ssp\src\framework\el\tx\cm4_gcc\libtx.a(tx_isr_end.o)
 .comment       0x00000049       0x4a C:\Users\khurr\e2_studio_latest\workspace\COPJunction\synergy\ssp\src\framework\el\tx\cm4_gcc\libtx.a(tx_isr_start.o)
 .comment       0x00000049       0x4a C:\Users\khurr\e2_studio_latest\workspace\COPJunction\synergy\ssp\src\framework\el\tx\cm4_gcc\libtx.a(tx_semaphore_create.o)
 .comment       0x00000049       0x4a C:\Users\khurr\e2_studio_latest\workspace\COPJunction\synergy\ssp\src\framework\el\tx\cm4_gcc\libtx.a(tx_semaphore_get.o)
 .comment       0x00000049       0x4a C:\Users\khurr\e2_studio_latest\workspace\COPJunction\synergy\ssp\src\framework\el\tx\cm4_gcc\libtx.a(tx_semaphore_put.o)
 .comment       0x00000049       0x4a C:\Users\khurr\e2_studio_latest\workspace\COPJunction\synergy\ssp\src\framework\el\tx\cm4_gcc\libtx.a(tx_thread_create.o)
 .comment       0x00000049       0x4a C:\Users\khurr\e2_studio_latest\workspace\COPJunction\synergy\ssp\src\framework\el\tx\cm4_gcc\libtx.a(tx_thread_initialize.o)
 .comment       0x00000049       0x4a C:\Users\khurr\e2_studio_latest\workspace\COPJunction\synergy\ssp\src\framework\el\tx\cm4_gcc\libtx.a(tx_thread_shell_entry.o)
 .comment       0x00000049       0x4a C:\Users\khurr\e2_studio_latest\workspace\COPJunction\synergy\ssp\src\framework\el\tx\cm4_gcc\libtx.a(tx_thread_sleep.o)
 .comment       0x00000049       0x4a C:\Users\khurr\e2_studio_latest\workspace\COPJunction\synergy\ssp\src\framework\el\tx\cm4_gcc\libtx.a(tx_thread_system_preempt_check.o)
 .comment       0x00000049       0x4a C:\Users\khurr\e2_studio_latest\workspace\COPJunction\synergy\ssp\src\framework\el\tx\cm4_gcc\libtx.a(tx_thread_system_resume.o)
 .comment       0x00000049       0x4a C:\Users\khurr\e2_studio_latest\workspace\COPJunction\synergy\ssp\src\framework\el\tx\cm4_gcc\libtx.a(tx_thread_system_suspend.o)
 .comment       0x00000049       0x4a C:\Users\khurr\e2_studio_latest\workspace\COPJunction\synergy\ssp\src\framework\el\tx\cm4_gcc\libtx.a(tx_thread_timeout.o)
 .comment       0x00000049       0x4a C:\Users\khurr\e2_studio_latest\workspace\COPJunction\synergy\ssp\src\framework\el\tx\cm4_gcc\libtx.a(tx_timer_initialize.o)
 .comment       0x00000049       0x4a C:\Users\khurr\e2_studio_latest\workspace\COPJunction\synergy\ssp\src\framework\el\tx\cm4_gcc\libtx.a(tx_timer_system_activate.o)
 .comment       0x00000049       0x4a C:\Users\khurr\e2_studio_latest\workspace\COPJunction\synergy\ssp\src\framework\el\tx\cm4_gcc\libtx.a(tx_timer_system_deactivate.o)
 .comment       0x00000049       0x4a C:\Users\khurr\e2_studio_latest\workspace\COPJunction\synergy\ssp\src\framework\el\tx\cm4_gcc\libtx.a(tx_initialize_low_level.o)
 .comment       0x00000049       0x4a C:\Users\khurr\e2_studio_latest\workspace\COPJunction\synergy\ssp\src\framework\el\tx\cm4_gcc\libtx.a(tx_thread_schedule.o)
 .comment       0x00000049       0x4a C:\Users\khurr\e2_studio_latest\workspace\COPJunction\synergy\ssp\src\framework\el\tx\cm4_gcc\libtx.a(tx_thread_stack_build.o)
 .comment       0x00000049       0x4a C:\Users\khurr\e2_studio_latest\workspace\COPJunction\synergy\ssp\src\framework\el\tx\cm4_gcc\libtx.a(tx_timer_interrupt.o)
 .comment       0x00000049       0x4a C:\Users\khurr\e2_studio_latest\workspace\COPJunction\synergy\ssp\src\framework\el\tx\cm4_gcc\libtx.a(tx_semaphore_cleanup.o)
 .comment       0x00000049       0x4a C:\Users\khurr\e2_studio_latest\workspace\COPJunction\synergy\ssp\src\framework\el\tx\cm4_gcc\libtx.a(tx_thread_time_slice.o)
 .comment       0x00000049       0x4a C:\Users\khurr\e2_studio_latest\workspace\COPJunction\synergy\ssp\src\framework\el\tx\cm4_gcc\libtx.a(tx_timer_expiration_process.o)
 .comment       0x00000049       0x4a C:\Users\khurr\e2_studio_latest\workspace\COPJunction\synergy\ssp\src\bsp\mcu\s3a7\libfmi_R7FS3A77C3A01CFM_gcc.a(bsp_fmi_R7FS3A77C3A01CFM.o)

.debug_info     0x00000000    0x73662
 .debug_info    0x00000000     0x85d6 ./synergy/ssp/src/driver/r_sci_i2c/r_sci_i2c.o
 .debug_info    0x000085d6    0x10780 ./synergy/ssp/src/driver/r_ioport/r_ioport.o
 .debug_info    0x00018d56     0x1f06 ./synergy/ssp/src/driver/r_elc/r_elc.o
 .debug_info    0x0001ac5c     0x82f1 ./synergy/ssp/src/driver/r_cgc/r_cgc.o
 .debug_info    0x00022f4d     0x33dd ./synergy/ssp/src/driver/r_can/hw/hw_can.o
 .debug_info    0x0002632a     0x65ea ./synergy/ssp/src/driver/r_can/r_can.o
 .debug_info    0x0002c914     0x8aac ./synergy/ssp/src/driver/r_adc/r_adc.o
 .debug_info    0x000353c0      0x85a ./synergy/ssp/src/bsp/mcu/s3a7/bsp_cache.o
 .debug_info    0x00035c1a     0x2e5d ./synergy/ssp/src/bsp/mcu/s3a7/bsp_clocks.o
 .debug_info    0x00038a77      0xc9b ./synergy/ssp/src/bsp/mcu/s3a7/bsp_feature.o
 .debug_info    0x00039712     0x1561 ./synergy/ssp/src/bsp/mcu/s3a7/bsp_group_irq.o
 .debug_info    0x0003ac73     0x10e4 ./synergy/ssp/src/bsp/mcu/s3a7/bsp_hw_locks.o
 .debug_info    0x0003bd57     0x331a ./synergy/ssp/src/bsp/mcu/s3a7/bsp_module_stop.o
 .debug_info    0x0003f071      0x2b7 ./synergy/ssp/src/bsp/mcu/s3a7/bsp_rom_registers.o
 .debug_info    0x0003f328      0x997 ./synergy/ssp/src/bsp/mcu/all/bsp_common.o
 .debug_info    0x0003fcbf      0x1d7 ./synergy/ssp/src/bsp/mcu/all/bsp_delay.o
 .debug_info    0x0003fe96      0xd82 ./synergy/ssp/src/bsp/mcu/all/bsp_irq.o
 .debug_info    0x00040c18      0xee7 ./synergy/ssp/src/bsp/mcu/all/bsp_locking.o
 .debug_info    0x00041aff     0x22e6 ./synergy/ssp/src/bsp/mcu/all/bsp_register_protection.o
 .debug_info    0x00043de5      0x13b ./synergy/ssp/src/bsp/mcu/all/bsp_sbrk.o
 .debug_info    0x00043f20      0x328 ./synergy/ssp/src/bsp/cmsis/Device/RENESAS/S3A7/Source/startup_S3A7.o
 .debug_info    0x00044248     0xed22 ./synergy/ssp/src/bsp/cmsis/Device/RENESAS/S3A7/Source/system_S3A7.o
 .debug_info    0x00052f6a     0x219f ./src/synergy_gen/adc_thread.o
 .debug_info    0x00055109     0x2569 ./src/synergy_gen/can_thread.o
 .debug_info    0x00057672     0x2b86 ./src/synergy_gen/common_data.o
 .debug_info    0x0005a1f8     0x2686 ./src/synergy_gen/drv_thread.o
 .debug_info    0x0005c87e       0xa6 ./src/synergy_gen/hal_data.o
 .debug_info    0x0005c924      0x77c ./src/synergy_gen/lcd_thread.o
 .debug_info    0x0005d0a0      0x94c ./src/synergy_gen/main.o
 .debug_info    0x0005d9ec      0x9de ./src/synergy_gen/pin_data.o
 .debug_info    0x0005e3ca      0x776 ./src/synergy_gen/status_led.o
 .debug_info    0x0005eb40     0x2491 ./src/adc_thread_entry.o
 .debug_info    0x00060fd1     0x1d4a ./src/can_thread_entry.o
 .debug_info    0x00062d1b      0x228 ./src/drv_thread_entry.o
 .debug_info    0x00062f43     0x20e1 ./src/lcd_thread_entry.o
 .debug_info    0x00065024     0x1068 ./src/status_led_entry.o
 .debug_info    0x0006608c      0x7d8 C:\Users\khurr\e2_studio_latest\workspace\COPJunction\synergy\ssp\src\framework\el\tx\cm4_gcc\libtx.a(txe_semaphore_create.o)
 .debug_info    0x00066864      0x5b5 C:\Users\khurr\e2_studio_latest\workspace\COPJunction\synergy\ssp\src\framework\el\tx\cm4_gcc\libtx.a(txe_semaphore_get.o)
 .debug_info    0x00066e19      0x540 C:\Users\khurr\e2_studio_latest\workspace\COPJunction\synergy\ssp\src\framework\el\tx\cm4_gcc\libtx.a(txe_semaphore_put.o)
 .debug_info    0x00067359      0x840 C:\Users\khurr\e2_studio_latest\workspace\COPJunction\synergy\ssp\src\framework\el\tx\cm4_gcc\libtx.a(txe_thread_create.o)
 .debug_info    0x00067b99      0x98e C:\Users\khurr\e2_studio_latest\workspace\COPJunction\synergy\ssp\src\framework\el\tx\cm4_gcc\libtx.a(tx_initialize_high_level.o)
 .debug_info    0x00068527      0x12a C:\Users\khurr\e2_studio_latest\workspace\COPJunction\synergy\ssp\src\framework\el\tx\cm4_gcc\libtx.a(tx_initialize_kernel_enter.o)
 .debug_info    0x00068651       0xa0 C:\Users\khurr\e2_studio_latest\workspace\COPJunction\synergy\ssp\src\framework\el\tx\cm4_gcc\libtx.a(tx_isr_end.o)
 .debug_info    0x000686f1       0xa0 C:\Users\khurr\e2_studio_latest\workspace\COPJunction\synergy\ssp\src\framework\el\tx\cm4_gcc\libtx.a(tx_isr_start.o)
 .debug_info    0x00068791      0x660 C:\Users\khurr\e2_studio_latest\workspace\COPJunction\synergy\ssp\src\framework\el\tx\cm4_gcc\libtx.a(tx_semaphore_create.o)
 .debug_info    0x00068df1      0x6f2 C:\Users\khurr\e2_studio_latest\workspace\COPJunction\synergy\ssp\src\framework\el\tx\cm4_gcc\libtx.a(tx_semaphore_get.o)
 .debug_info    0x000694e3      0x6a3 C:\Users\khurr\e2_studio_latest\workspace\COPJunction\synergy\ssp\src\framework\el\tx\cm4_gcc\libtx.a(tx_semaphore_put.o)
 .debug_info    0x00069b86      0x886 C:\Users\khurr\e2_studio_latest\workspace\COPJunction\synergy\ssp\src\framework\el\tx\cm4_gcc\libtx.a(tx_thread_create.o)
 .debug_info    0x0006a40c      0x676 C:\Users\khurr\e2_studio_latest\workspace\COPJunction\synergy\ssp\src\framework\el\tx\cm4_gcc\libtx.a(tx_thread_initialize.o)
 .debug_info    0x0006aa82      0x679 C:\Users\khurr\e2_studio_latest\workspace\COPJunction\synergy\ssp\src\framework\el\tx\cm4_gcc\libtx.a(tx_thread_shell_entry.o)
 .debug_info    0x0006b0fb      0x685 C:\Users\khurr\e2_studio_latest\workspace\COPJunction\synergy\ssp\src\framework\el\tx\cm4_gcc\libtx.a(tx_thread_sleep.o)
 .debug_info    0x0006b780      0x7ff C:\Users\khurr\e2_studio_latest\workspace\COPJunction\synergy\ssp\src\framework\el\tx\cm4_gcc\libtx.a(tx_thread_system_preempt_check.o)
 .debug_info    0x0006bf7f      0x9a3 C:\Users\khurr\e2_studio_latest\workspace\COPJunction\synergy\ssp\src\framework\el\tx\cm4_gcc\libtx.a(tx_thread_system_resume.o)
 .debug_info    0x0006c922      0x9f4 C:\Users\khurr\e2_studio_latest\workspace\COPJunction\synergy\ssp\src\framework\el\tx\cm4_gcc\libtx.a(tx_thread_system_suspend.o)
 .debug_info    0x0006d316      0x60e C:\Users\khurr\e2_studio_latest\workspace\COPJunction\synergy\ssp\src\framework\el\tx\cm4_gcc\libtx.a(tx_thread_timeout.o)
 .debug_info    0x0006d924      0x340 C:\Users\khurr\e2_studio_latest\workspace\COPJunction\synergy\ssp\src\framework\el\tx\cm4_gcc\libtx.a(tx_timer_initialize.o)
 .debug_info    0x0006dc64      0x1e3 C:\Users\khurr\e2_studio_latest\workspace\COPJunction\synergy\ssp\src\framework\el\tx\cm4_gcc\libtx.a(tx_timer_system_activate.o)
 .debug_info    0x0006de47      0x183 C:\Users\khurr\e2_studio_latest\workspace\COPJunction\synergy\ssp\src\framework\el\tx\cm4_gcc\libtx.a(tx_timer_system_deactivate.o)
 .debug_info    0x0006dfca      0x77d C:\Users\khurr\e2_studio_latest\workspace\COPJunction\synergy\ssp\src\framework\el\tx\cm4_gcc\libtx.a(tx_initialize_low_level.o)
 .debug_info    0x0006e747     0x32a2 C:\Users\khurr\e2_studio_latest\workspace\COPJunction\synergy\ssp\src\framework\el\tx\cm4_gcc\libtx.a(tx_thread_schedule.o)
 .debug_info    0x000719e9      0x49b C:\Users\khurr\e2_studio_latest\workspace\COPJunction\synergy\ssp\src\framework\el\tx\cm4_gcc\libtx.a(tx_thread_stack_build.o)
 .debug_info    0x00071e84      0x728 C:\Users\khurr\e2_studio_latest\workspace\COPJunction\synergy\ssp\src\framework\el\tx\cm4_gcc\libtx.a(tx_timer_interrupt.o)
 .debug_info    0x000725ac      0x700 C:\Users\khurr\e2_studio_latest\workspace\COPJunction\synergy\ssp\src\framework\el\tx\cm4_gcc\libtx.a(tx_semaphore_cleanup.o)
 .debug_info    0x00072cac      0x5c2 C:\Users\khurr\e2_studio_latest\workspace\COPJunction\synergy\ssp\src\framework\el\tx\cm4_gcc\libtx.a(tx_thread_time_slice.o)
 .debug_info    0x0007326e      0x3f4 C:\Users\khurr\e2_studio_latest\workspace\COPJunction\synergy\ssp\src\framework\el\tx\cm4_gcc\libtx.a(tx_timer_expiration_process.o)

.debug_abbrev   0x00000000     0x8dcf
 .debug_abbrev  0x00000000      0x71f ./synergy/ssp/src/driver/r_sci_i2c/r_sci_i2c.o
 .debug_abbrev  0x0000071f      0x553 ./synergy/ssp/src/driver/r_ioport/r_ioport.o
 .debug_abbrev  0x00000c72      0x358 ./synergy/ssp/src/driver/r_elc/r_elc.o
 .debug_abbrev  0x00000fca      0x65b ./synergy/ssp/src/driver/r_cgc/r_cgc.o
 .debug_abbrev  0x00001625      0x48c ./synergy/ssp/src/driver/r_can/hw/hw_can.o
 .debug_abbrev  0x00001ab1      0x649 ./synergy/ssp/src/driver/r_can/r_can.o
 .debug_abbrev  0x000020fa      0x610 ./synergy/ssp/src/driver/r_adc/r_adc.o
 .debug_abbrev  0x0000270a      0x179 ./synergy/ssp/src/bsp/mcu/s3a7/bsp_cache.o
 .debug_abbrev  0x00002883      0x371 ./synergy/ssp/src/bsp/mcu/s3a7/bsp_clocks.o
 .debug_abbrev  0x00002bf4       0xe7 ./synergy/ssp/src/bsp/mcu/s3a7/bsp_feature.o
 .debug_abbrev  0x00002cdb      0x2bc ./synergy/ssp/src/bsp/mcu/s3a7/bsp_group_irq.o
 .debug_abbrev  0x00002f97      0x14a ./synergy/ssp/src/bsp/mcu/s3a7/bsp_hw_locks.o
 .debug_abbrev  0x000030e1      0x366 ./synergy/ssp/src/bsp/mcu/s3a7/bsp_module_stop.o
 .debug_abbrev  0x00003447       0x86 ./synergy/ssp/src/bsp/mcu/s3a7/bsp_rom_registers.o
 .debug_abbrev  0x000034cd      0x1b4 ./synergy/ssp/src/bsp/mcu/all/bsp_common.o
 .debug_abbrev  0x00003681      0x11c ./synergy/ssp/src/bsp/mcu/all/bsp_delay.o
 .debug_abbrev  0x0000379d      0x254 ./synergy/ssp/src/bsp/mcu/all/bsp_irq.o
 .debug_abbrev  0x000039f1      0x34e ./synergy/ssp/src/bsp/mcu/all/bsp_locking.o
 .debug_abbrev  0x00003d3f      0x27a ./synergy/ssp/src/bsp/mcu/all/bsp_register_protection.o
 .debug_abbrev  0x00003fb9       0xcc ./synergy/ssp/src/bsp/mcu/all/bsp_sbrk.o
 .debug_abbrev  0x00004085      0x10d ./synergy/ssp/src/bsp/cmsis/Device/RENESAS/S3A7/Source/startup_S3A7.o
 .debug_abbrev  0x00004192      0x46f ./synergy/ssp/src/bsp/cmsis/Device/RENESAS/S3A7/Source/system_S3A7.o
 .debug_abbrev  0x00004601      0x2b6 ./src/synergy_gen/adc_thread.o
 .debug_abbrev  0x000048b7      0x2f6 ./src/synergy_gen/can_thread.o
 .debug_abbrev  0x00004bad      0x230 ./src/synergy_gen/common_data.o
 .debug_abbrev  0x00004ddd      0x2fb ./src/synergy_gen/drv_thread.o
 .debug_abbrev  0x000050d8       0x67 ./src/synergy_gen/hal_data.o
 .debug_abbrev  0x0000513f      0x1b3 ./src/synergy_gen/lcd_thread.o
 .debug_abbrev  0x000052f2      0x1ba ./src/synergy_gen/main.o
 .debug_abbrev  0x000054ac       0xf1 ./src/synergy_gen/pin_data.o
 .debug_abbrev  0x0000559d      0x1c1 ./src/synergy_gen/status_led.o
 .debug_abbrev  0x0000575e      0x252 ./src/adc_thread_entry.o
 .debug_abbrev  0x000059b0      0x34a ./src/can_thread_entry.o
 .debug_abbrev  0x00005cfa       0xf7 ./src/drv_thread_entry.o
 .debug_abbrev  0x00005df1      0x34e ./src/lcd_thread_entry.o
 .debug_abbrev  0x0000613f      0x189 ./src/status_led_entry.o
 .debug_abbrev  0x000062c8      0x206 C:\Users\khurr\e2_studio_latest\workspace\COPJunction\synergy\ssp\src\framework\el\tx\cm4_gcc\libtx.a(txe_semaphore_create.o)
 .debug_abbrev  0x000064ce      0x153 C:\Users\khurr\e2_studio_latest\workspace\COPJunction\synergy\ssp\src\framework\el\tx\cm4_gcc\libtx.a(txe_semaphore_get.o)
 .debug_abbrev  0x00006621       0xec C:\Users\khurr\e2_studio_latest\workspace\COPJunction\synergy\ssp\src\framework\el\tx\cm4_gcc\libtx.a(txe_semaphore_put.o)
 .debug_abbrev  0x0000670d      0x1da C:\Users\khurr\e2_studio_latest\workspace\COPJunction\synergy\ssp\src\framework\el\tx\cm4_gcc\libtx.a(txe_thread_create.o)
 .debug_abbrev  0x000068e7      0x10c C:\Users\khurr\e2_studio_latest\workspace\COPJunction\synergy\ssp\src\framework\el\tx\cm4_gcc\libtx.a(tx_initialize_high_level.o)
 .debug_abbrev  0x000069f3       0xc8 C:\Users\khurr\e2_studio_latest\workspace\COPJunction\synergy\ssp\src\framework\el\tx\cm4_gcc\libtx.a(tx_initialize_kernel_enter.o)
 .debug_abbrev  0x00006abb       0x64 C:\Users\khurr\e2_studio_latest\workspace\COPJunction\synergy\ssp\src\framework\el\tx\cm4_gcc\libtx.a(tx_isr_end.o)
 .debug_abbrev  0x00006b1f       0x64 C:\Users\khurr\e2_studio_latest\workspace\COPJunction\synergy\ssp\src\framework\el\tx\cm4_gcc\libtx.a(tx_isr_start.o)
 .debug_abbrev  0x00006b83      0x198 C:\Users\khurr\e2_studio_latest\workspace\COPJunction\synergy\ssp\src\framework\el\tx\cm4_gcc\libtx.a(tx_semaphore_create.o)
 .debug_abbrev  0x00006d1b      0x1bb C:\Users\khurr\e2_studio_latest\workspace\COPJunction\synergy\ssp\src\framework\el\tx\cm4_gcc\libtx.a(tx_semaphore_get.o)
 .debug_abbrev  0x00006ed6      0x1af C:\Users\khurr\e2_studio_latest\workspace\COPJunction\synergy\ssp\src\framework\el\tx\cm4_gcc\libtx.a(tx_semaphore_put.o)
 .debug_abbrev  0x00007085      0x20e C:\Users\khurr\e2_studio_latest\workspace\COPJunction\synergy\ssp\src\framework\el\tx\cm4_gcc\libtx.a(tx_thread_create.o)
 .debug_abbrev  0x00007293      0x123 C:\Users\khurr\e2_studio_latest\workspace\COPJunction\synergy\ssp\src\framework\el\tx\cm4_gcc\libtx.a(tx_thread_initialize.o)
 .debug_abbrev  0x000073b6      0x1b7 C:\Users\khurr\e2_studio_latest\workspace\COPJunction\synergy\ssp\src\framework\el\tx\cm4_gcc\libtx.a(tx_thread_shell_entry.o)
 .debug_abbrev  0x0000756d      0x1bb C:\Users\khurr\e2_studio_latest\workspace\COPJunction\synergy\ssp\src\framework\el\tx\cm4_gcc\libtx.a(tx_thread_sleep.o)
 .debug_abbrev  0x00007728      0x1e9 C:\Users\khurr\e2_studio_latest\workspace\COPJunction\synergy\ssp\src\framework\el\tx\cm4_gcc\libtx.a(tx_thread_system_preempt_check.o)
 .debug_abbrev  0x00007911      0x22f C:\Users\khurr\e2_studio_latest\workspace\COPJunction\synergy\ssp\src\framework\el\tx\cm4_gcc\libtx.a(tx_thread_system_resume.o)
 .debug_abbrev  0x00007b40      0x23a C:\Users\khurr\e2_studio_latest\workspace\COPJunction\synergy\ssp\src\framework\el\tx\cm4_gcc\libtx.a(tx_thread_system_suspend.o)
 .debug_abbrev  0x00007d7a      0x1af C:\Users\khurr\e2_studio_latest\workspace\COPJunction\synergy\ssp\src\framework\el\tx\cm4_gcc\libtx.a(tx_thread_timeout.o)
 .debug_abbrev  0x00007f29      0x102 C:\Users\khurr\e2_studio_latest\workspace\COPJunction\synergy\ssp\src\framework\el\tx\cm4_gcc\libtx.a(tx_timer_initialize.o)
 .debug_abbrev  0x0000802b       0xd5 C:\Users\khurr\e2_studio_latest\workspace\COPJunction\synergy\ssp\src\framework\el\tx\cm4_gcc\libtx.a(tx_timer_system_activate.o)
 .debug_abbrev  0x00008100       0xc2 C:\Users\khurr\e2_studio_latest\workspace\COPJunction\synergy\ssp\src\framework\el\tx\cm4_gcc\libtx.a(tx_timer_system_deactivate.o)
 .debug_abbrev  0x000081c2      0x1e5 C:\Users\khurr\e2_studio_latest\workspace\COPJunction\synergy\ssp\src\framework\el\tx\cm4_gcc\libtx.a(tx_initialize_low_level.o)
 .debug_abbrev  0x000083a7      0x2be C:\Users\khurr\e2_studio_latest\workspace\COPJunction\synergy\ssp\src\framework\el\tx\cm4_gcc\libtx.a(tx_thread_schedule.o)
 .debug_abbrev  0x00008665       0xbc C:\Users\khurr\e2_studio_latest\workspace\COPJunction\synergy\ssp\src\framework\el\tx\cm4_gcc\libtx.a(tx_thread_stack_build.o)
 .debug_abbrev  0x00008721      0x13d C:\Users\khurr\e2_studio_latest\workspace\COPJunction\synergy\ssp\src\framework\el\tx\cm4_gcc\libtx.a(tx_timer_interrupt.o)
 .debug_abbrev  0x0000885e      0x1e0 C:\Users\khurr\e2_studio_latest\workspace\COPJunction\synergy\ssp\src\framework\el\tx\cm4_gcc\libtx.a(tx_semaphore_cleanup.o)
 .debug_abbrev  0x00008a3e      0x1a5 C:\Users\khurr\e2_studio_latest\workspace\COPJunction\synergy\ssp\src\framework\el\tx\cm4_gcc\libtx.a(tx_thread_time_slice.o)
 .debug_abbrev  0x00008be3      0x1ec C:\Users\khurr\e2_studio_latest\workspace\COPJunction\synergy\ssp\src\framework\el\tx\cm4_gcc\libtx.a(tx_timer_expiration_process.o)

.debug_loc      0x00000000    0x14991
 .debug_loc     0x00000000     0x422f ./synergy/ssp/src/driver/r_sci_i2c/r_sci_i2c.o
 .debug_loc     0x0000422f     0x210d ./synergy/ssp/src/driver/r_ioport/r_ioport.o
 .debug_loc     0x0000633c      0x2e8 ./synergy/ssp/src/driver/r_elc/r_elc.o
 .debug_loc     0x00006624     0x387f ./synergy/ssp/src/driver/r_cgc/r_cgc.o
 .debug_loc     0x00009ea3     0x11d9 ./synergy/ssp/src/driver/r_can/hw/hw_can.o
 .debug_loc     0x0000b07c     0x2062 ./synergy/ssp/src/driver/r_can/r_can.o
 .debug_loc     0x0000d0de     0x3aa0 ./synergy/ssp/src/driver/r_adc/r_adc.o
 .debug_loc     0x00010b7e       0xcf ./synergy/ssp/src/bsp/mcu/s3a7/bsp_cache.o
 .debug_loc     0x00010c4d      0x1a1 ./synergy/ssp/src/bsp/mcu/s3a7/bsp_clocks.o
 .debug_loc     0x00010dee      0x29b ./synergy/ssp/src/bsp/mcu/s3a7/bsp_group_irq.o
 .debug_loc     0x00011089      0x917 ./synergy/ssp/src/bsp/mcu/s3a7/bsp_module_stop.o
 .debug_loc     0x000119a0       0x84 ./synergy/ssp/src/bsp/mcu/all/bsp_common.o
 .debug_loc     0x00011a24      0x15d ./synergy/ssp/src/bsp/mcu/all/bsp_delay.o
 .debug_loc     0x00011b81       0x48 ./synergy/ssp/src/bsp/mcu/all/bsp_irq.o
 .debug_loc     0x00011bc9      0x3f4 ./synergy/ssp/src/bsp/mcu/all/bsp_locking.o
 .debug_loc     0x00011fbd      0x145 ./synergy/ssp/src/bsp/mcu/all/bsp_register_protection.o
 .debug_loc     0x00012102       0xf3 ./synergy/ssp/src/bsp/mcu/all/bsp_sbrk.o
 .debug_loc     0x000121f5       0xb8 ./synergy/ssp/src/bsp/cmsis/Device/RENESAS/S3A7/Source/system_S3A7.o
 .debug_loc     0x000122ad       0x3a ./src/synergy_gen/adc_thread.o
 .debug_loc     0x000122e7       0x3a ./src/synergy_gen/can_thread.o
 .debug_loc     0x00012321       0x3a ./src/synergy_gen/drv_thread.o
 .debug_loc     0x0001235b       0x3a ./src/synergy_gen/lcd_thread.o
 .debug_loc     0x00012395       0x73 ./src/synergy_gen/main.o
 .debug_loc     0x00012408       0x3a ./src/synergy_gen/status_led.o
 .debug_loc     0x00012442       0x48 ./src/adc_thread_entry.o
 .debug_loc     0x0001248a       0x7f ./src/can_thread_entry.o
 .debug_loc     0x00012509      0x124 ./src/drv_thread_entry.o
 .debug_loc     0x0001262d      0x3ce ./src/lcd_thread_entry.o
 .debug_loc     0x000129fb      0x29e C:\Users\khurr\e2_studio_latest\workspace\COPJunction\synergy\ssp\src\framework\el\tx\cm4_gcc\libtx.a(txe_semaphore_create.o)
 .debug_loc     0x00012c99       0xd8 C:\Users\khurr\e2_studio_latest\workspace\COPJunction\synergy\ssp\src\framework\el\tx\cm4_gcc\libtx.a(txe_semaphore_get.o)
 .debug_loc     0x00012d71       0x42 C:\Users\khurr\e2_studio_latest\workspace\COPJunction\synergy\ssp\src\framework\el\tx\cm4_gcc\libtx.a(txe_semaphore_put.o)
 .debug_loc     0x00012db3      0x551 C:\Users\khurr\e2_studio_latest\workspace\COPJunction\synergy\ssp\src\framework\el\tx\cm4_gcc\libtx.a(txe_thread_create.o)
 .debug_loc     0x00013304      0x134 C:\Users\khurr\e2_studio_latest\workspace\COPJunction\synergy\ssp\src\framework\el\tx\cm4_gcc\libtx.a(tx_semaphore_create.o)
 .debug_loc     0x00013438      0x1de C:\Users\khurr\e2_studio_latest\workspace\COPJunction\synergy\ssp\src\framework\el\tx\cm4_gcc\libtx.a(tx_semaphore_get.o)
 .debug_loc     0x00013616      0x16d C:\Users\khurr\e2_studio_latest\workspace\COPJunction\synergy\ssp\src\framework\el\tx\cm4_gcc\libtx.a(tx_semaphore_put.o)
 .debug_loc     0x00013783      0x31e C:\Users\khurr\e2_studio_latest\workspace\COPJunction\synergy\ssp\src\framework\el\tx\cm4_gcc\libtx.a(tx_thread_create.o)
 .debug_loc     0x00013aa1       0xe6 C:\Users\khurr\e2_studio_latest\workspace\COPJunction\synergy\ssp\src\framework\el\tx\cm4_gcc\libtx.a(tx_thread_shell_entry.o)
 .debug_loc     0x00013b87      0x12a C:\Users\khurr\e2_studio_latest\workspace\COPJunction\synergy\ssp\src\framework\el\tx\cm4_gcc\libtx.a(tx_thread_sleep.o)
 .debug_loc     0x00013cb1       0xaf C:\Users\khurr\e2_studio_latest\workspace\COPJunction\synergy\ssp\src\framework\el\tx\cm4_gcc\libtx.a(tx_thread_system_preempt_check.o)
 .debug_loc     0x00013d60      0x1ed C:\Users\khurr\e2_studio_latest\workspace\COPJunction\synergy\ssp\src\framework\el\tx\cm4_gcc\libtx.a(tx_thread_system_resume.o)
 .debug_loc     0x00013f4d      0x290 C:\Users\khurr\e2_studio_latest\workspace\COPJunction\synergy\ssp\src\framework\el\tx\cm4_gcc\libtx.a(tx_thread_system_suspend.o)
 .debug_loc     0x000141dd      0x14b C:\Users\khurr\e2_studio_latest\workspace\COPJunction\synergy\ssp\src\framework\el\tx\cm4_gcc\libtx.a(tx_thread_timeout.o)
 .debug_loc     0x00014328       0xcd C:\Users\khurr\e2_studio_latest\workspace\COPJunction\synergy\ssp\src\framework\el\tx\cm4_gcc\libtx.a(tx_timer_system_activate.o)
 .debug_loc     0x000143f5       0x75 C:\Users\khurr\e2_studio_latest\workspace\COPJunction\synergy\ssp\src\framework\el\tx\cm4_gcc\libtx.a(tx_timer_system_deactivate.o)
 .debug_loc     0x0001446a       0xd8 C:\Users\khurr\e2_studio_latest\workspace\COPJunction\synergy\ssp\src\framework\el\tx\cm4_gcc\libtx.a(tx_initialize_low_level.o)
 .debug_loc     0x00014542       0x2a C:\Users\khurr\e2_studio_latest\workspace\COPJunction\synergy\ssp\src\framework\el\tx\cm4_gcc\libtx.a(tx_thread_schedule.o)
 .debug_loc     0x0001456c      0x1e3 C:\Users\khurr\e2_studio_latest\workspace\COPJunction\synergy\ssp\src\framework\el\tx\cm4_gcc\libtx.a(tx_semaphore_cleanup.o)
 .debug_loc     0x0001474f       0x83 C:\Users\khurr\e2_studio_latest\workspace\COPJunction\synergy\ssp\src\framework\el\tx\cm4_gcc\libtx.a(tx_thread_time_slice.o)
 .debug_loc     0x000147d2      0x1bf C:\Users\khurr\e2_studio_latest\workspace\COPJunction\synergy\ssp\src\framework\el\tx\cm4_gcc\libtx.a(tx_timer_expiration_process.o)

.debug_aranges  0x00000000      0xd60
 .debug_aranges
                0x00000000       0x90 ./synergy/ssp/src/driver/r_sci_i2c/r_sci_i2c.o
 .debug_aranges
                0x00000090       0x98 ./synergy/ssp/src/driver/r_ioport/r_ioport.o
 .debug_aranges
                0x00000128       0x50 ./synergy/ssp/src/driver/r_elc/r_elc.o
 .debug_aranges
                0x00000178      0x120 ./synergy/ssp/src/driver/r_cgc/r_cgc.o
 .debug_aranges
                0x00000298       0x88 ./synergy/ssp/src/driver/r_can/hw/hw_can.o
 .debug_aranges
                0x00000320       0x70 ./synergy/ssp/src/driver/r_can/r_can.o
 .debug_aranges
                0x00000390       0xa8 ./synergy/ssp/src/driver/r_adc/r_adc.o
 .debug_aranges
                0x00000438       0x28 ./synergy/ssp/src/bsp/mcu/s3a7/bsp_cache.o
 .debug_aranges
                0x00000460       0x30 ./synergy/ssp/src/bsp/mcu/s3a7/bsp_clocks.o
 .debug_aranges
                0x00000490       0xa0 ./synergy/ssp/src/bsp/mcu/s3a7/bsp_feature.o
 .debug_aranges
                0x00000530       0x38 ./synergy/ssp/src/bsp/mcu/s3a7/bsp_group_irq.o
 .debug_aranges
                0x00000568       0x18 ./synergy/ssp/src/bsp/mcu/s3a7/bsp_hw_locks.o
 .debug_aranges
                0x00000580       0x38 ./synergy/ssp/src/bsp/mcu/s3a7/bsp_module_stop.o
 .debug_aranges
                0x000005b8       0x18 ./synergy/ssp/src/bsp/mcu/s3a7/bsp_rom_registers.o
 .debug_aranges
                0x000005d0       0x30 ./synergy/ssp/src/bsp/mcu/all/bsp_common.o
 .debug_aranges
                0x00000600       0x28 ./synergy/ssp/src/bsp/mcu/all/bsp_delay.o
 .debug_aranges
                0x00000628       0x28 ./synergy/ssp/src/bsp/mcu/all/bsp_irq.o
 .debug_aranges
                0x00000650       0x40 ./synergy/ssp/src/bsp/mcu/all/bsp_locking.o
 .debug_aranges
                0x00000690       0x30 ./synergy/ssp/src/bsp/mcu/all/bsp_register_protection.o
 .debug_aranges
                0x000006c0       0x20 ./synergy/ssp/src/bsp/mcu/all/bsp_sbrk.o
 .debug_aranges
                0x000006e0       0x28 ./synergy/ssp/src/bsp/cmsis/Device/RENESAS/S3A7/Source/startup_S3A7.o
 .debug_aranges
                0x00000708       0x30 ./synergy/ssp/src/bsp/cmsis/Device/RENESAS/S3A7/Source/system_S3A7.o
 .debug_aranges
                0x00000738       0x28 ./src/synergy_gen/adc_thread.o
 .debug_aranges
                0x00000760       0x28 ./src/synergy_gen/can_thread.o
 .debug_aranges
                0x00000788       0x20 ./src/synergy_gen/common_data.o
 .debug_aranges
                0x000007a8       0x28 ./src/synergy_gen/drv_thread.o
 .debug_aranges
                0x000007d0       0x20 ./src/synergy_gen/hal_data.o
 .debug_aranges
                0x000007f0       0x28 ./src/synergy_gen/lcd_thread.o
 .debug_aranges
                0x00000818       0x40 ./src/synergy_gen/main.o
 .debug_aranges
                0x00000858       0x18 ./src/synergy_gen/pin_data.o
 .debug_aranges
                0x00000870       0x28 ./src/synergy_gen/status_led.o
 .debug_aranges
                0x00000898       0x30 ./src/adc_thread_entry.o
 .debug_aranges
                0x000008c8       0x38 ./src/can_thread_entry.o
 .debug_aranges
                0x00000900       0x20 ./src/drv_thread_entry.o
 .debug_aranges
                0x00000920       0x68 ./src/lcd_thread_entry.o
 .debug_aranges
                0x00000988       0x20 ./src/status_led_entry.o
 .debug_aranges
                0x000009a8       0x20 C:\Users\khurr\e2_studio_latest\workspace\COPJunction\synergy\ssp\src\framework\el\tx\cm4_gcc\libtx.a(txe_semaphore_create.o)
 .debug_aranges
                0x000009c8       0x20 C:\Users\khurr\e2_studio_latest\workspace\COPJunction\synergy\ssp\src\framework\el\tx\cm4_gcc\libtx.a(txe_semaphore_get.o)
 .debug_aranges
                0x000009e8       0x20 C:\Users\khurr\e2_studio_latest\workspace\COPJunction\synergy\ssp\src\framework\el\tx\cm4_gcc\libtx.a(txe_semaphore_put.o)
 .debug_aranges
                0x00000a08       0x20 C:\Users\khurr\e2_studio_latest\workspace\COPJunction\synergy\ssp\src\framework\el\tx\cm4_gcc\libtx.a(txe_thread_create.o)
 .debug_aranges
                0x00000a28       0x20 C:\Users\khurr\e2_studio_latest\workspace\COPJunction\synergy\ssp\src\framework\el\tx\cm4_gcc\libtx.a(tx_initialize_high_level.o)
 .debug_aranges
                0x00000a48       0x20 C:\Users\khurr\e2_studio_latest\workspace\COPJunction\synergy\ssp\src\framework\el\tx\cm4_gcc\libtx.a(tx_initialize_kernel_enter.o)
 .debug_aranges
                0x00000a68       0x20 C:\Users\khurr\e2_studio_latest\workspace\COPJunction\synergy\ssp\src\framework\el\tx\cm4_gcc\libtx.a(tx_isr_end.o)
 .debug_aranges
                0x00000a88       0x20 C:\Users\khurr\e2_studio_latest\workspace\COPJunction\synergy\ssp\src\framework\el\tx\cm4_gcc\libtx.a(tx_isr_start.o)
 .debug_aranges
                0x00000aa8       0x20 C:\Users\khurr\e2_studio_latest\workspace\COPJunction\synergy\ssp\src\framework\el\tx\cm4_gcc\libtx.a(tx_semaphore_create.o)
 .debug_aranges
                0x00000ac8       0x20 C:\Users\khurr\e2_studio_latest\workspace\COPJunction\synergy\ssp\src\framework\el\tx\cm4_gcc\libtx.a(tx_semaphore_get.o)
 .debug_aranges
                0x00000ae8       0x20 C:\Users\khurr\e2_studio_latest\workspace\COPJunction\synergy\ssp\src\framework\el\tx\cm4_gcc\libtx.a(tx_semaphore_put.o)
 .debug_aranges
                0x00000b08       0x20 C:\Users\khurr\e2_studio_latest\workspace\COPJunction\synergy\ssp\src\framework\el\tx\cm4_gcc\libtx.a(tx_thread_create.o)
 .debug_aranges
                0x00000b28       0x20 C:\Users\khurr\e2_studio_latest\workspace\COPJunction\synergy\ssp\src\framework\el\tx\cm4_gcc\libtx.a(tx_thread_initialize.o)
 .debug_aranges
                0x00000b48       0x20 C:\Users\khurr\e2_studio_latest\workspace\COPJunction\synergy\ssp\src\framework\el\tx\cm4_gcc\libtx.a(tx_thread_shell_entry.o)
 .debug_aranges
                0x00000b68       0x20 C:\Users\khurr\e2_studio_latest\workspace\COPJunction\synergy\ssp\src\framework\el\tx\cm4_gcc\libtx.a(tx_thread_sleep.o)
 .debug_aranges
                0x00000b88       0x20 C:\Users\khurr\e2_studio_latest\workspace\COPJunction\synergy\ssp\src\framework\el\tx\cm4_gcc\libtx.a(tx_thread_system_preempt_check.o)
 .debug_aranges
                0x00000ba8       0x20 C:\Users\khurr\e2_studio_latest\workspace\COPJunction\synergy\ssp\src\framework\el\tx\cm4_gcc\libtx.a(tx_thread_system_resume.o)
 .debug_aranges
                0x00000bc8       0x20 C:\Users\khurr\e2_studio_latest\workspace\COPJunction\synergy\ssp\src\framework\el\tx\cm4_gcc\libtx.a(tx_thread_system_suspend.o)
 .debug_aranges
                0x00000be8       0x20 C:\Users\khurr\e2_studio_latest\workspace\COPJunction\synergy\ssp\src\framework\el\tx\cm4_gcc\libtx.a(tx_thread_timeout.o)
 .debug_aranges
                0x00000c08       0x20 C:\Users\khurr\e2_studio_latest\workspace\COPJunction\synergy\ssp\src\framework\el\tx\cm4_gcc\libtx.a(tx_timer_initialize.o)
 .debug_aranges
                0x00000c28       0x20 C:\Users\khurr\e2_studio_latest\workspace\COPJunction\synergy\ssp\src\framework\el\tx\cm4_gcc\libtx.a(tx_timer_system_activate.o)
 .debug_aranges
                0x00000c48       0x20 C:\Users\khurr\e2_studio_latest\workspace\COPJunction\synergy\ssp\src\framework\el\tx\cm4_gcc\libtx.a(tx_timer_system_deactivate.o)
 .debug_aranges
                0x00000c68       0x20 C:\Users\khurr\e2_studio_latest\workspace\COPJunction\synergy\ssp\src\framework\el\tx\cm4_gcc\libtx.a(tx_initialize_low_level.o)
 .debug_aranges
                0x00000c88       0x38 C:\Users\khurr\e2_studio_latest\workspace\COPJunction\synergy\ssp\src\framework\el\tx\cm4_gcc\libtx.a(tx_thread_schedule.o)
 .debug_aranges
                0x00000cc0       0x20 C:\Users\khurr\e2_studio_latest\workspace\COPJunction\synergy\ssp\src\framework\el\tx\cm4_gcc\libtx.a(tx_thread_stack_build.o)
 .debug_aranges
                0x00000ce0       0x20 C:\Users\khurr\e2_studio_latest\workspace\COPJunction\synergy\ssp\src\framework\el\tx\cm4_gcc\libtx.a(tx_timer_interrupt.o)
 .debug_aranges
                0x00000d00       0x20 C:\Users\khurr\e2_studio_latest\workspace\COPJunction\synergy\ssp\src\framework\el\tx\cm4_gcc\libtx.a(tx_semaphore_cleanup.o)
 .debug_aranges
                0x00000d20       0x20 C:\Users\khurr\e2_studio_latest\workspace\COPJunction\synergy\ssp\src\framework\el\tx\cm4_gcc\libtx.a(tx_thread_time_slice.o)
 .debug_aranges
                0x00000d40       0x20 C:\Users\khurr\e2_studio_latest\workspace\COPJunction\synergy\ssp\src\framework\el\tx\cm4_gcc\libtx.a(tx_timer_expiration_process.o)

.debug_ranges   0x00000000     0x4020
 .debug_ranges  0x00000000      0xaf0 ./synergy/ssp/src/driver/r_sci_i2c/r_sci_i2c.o
 .debug_ranges  0x00000af0      0x648 ./synergy/ssp/src/driver/r_ioport/r_ioport.o
 .debug_ranges  0x00001138       0xf0 ./synergy/ssp/src/driver/r_elc/r_elc.o
 .debug_ranges  0x00001228     0x1018 ./synergy/ssp/src/driver/r_cgc/r_cgc.o
 .debug_ranges  0x00002240       0xc0 ./synergy/ssp/src/driver/r_can/hw/hw_can.o
 .debug_ranges  0x00002300      0x4f8 ./synergy/ssp/src/driver/r_can/r_can.o
 .debug_ranges  0x000027f8      0xac0 ./synergy/ssp/src/driver/r_adc/r_adc.o
 .debug_ranges  0x000032b8       0x18 ./synergy/ssp/src/bsp/mcu/s3a7/bsp_cache.o
 .debug_ranges  0x000032d0       0x70 ./synergy/ssp/src/bsp/mcu/s3a7/bsp_clocks.o
 .debug_ranges  0x00003340       0x90 ./synergy/ssp/src/bsp/mcu/s3a7/bsp_feature.o
 .debug_ranges  0x000033d0       0x28 ./synergy/ssp/src/bsp/mcu/s3a7/bsp_group_irq.o
 .debug_ranges  0x000033f8      0x270 ./synergy/ssp/src/bsp/mcu/s3a7/bsp_module_stop.o
 .debug_ranges  0x00003668       0x20 ./synergy/ssp/src/bsp/mcu/all/bsp_common.o
 .debug_ranges  0x00003688       0x18 ./synergy/ssp/src/bsp/mcu/all/bsp_delay.o
 .debug_ranges  0x000036a0       0x18 ./synergy/ssp/src/bsp/mcu/all/bsp_irq.o
 .debug_ranges  0x000036b8      0x180 ./synergy/ssp/src/bsp/mcu/all/bsp_locking.o
 .debug_ranges  0x00003838       0x50 ./synergy/ssp/src/bsp/mcu/all/bsp_register_protection.o
 .debug_ranges  0x00003888       0x10 ./synergy/ssp/src/bsp/mcu/all/bsp_sbrk.o
 .debug_ranges  0x00003898       0x18 ./synergy/ssp/src/bsp/cmsis/Device/RENESAS/S3A7/Source/startup_S3A7.o
 .debug_ranges  0x000038b0       0xc0 ./synergy/ssp/src/bsp/cmsis/Device/RENESAS/S3A7/Source/system_S3A7.o
 .debug_ranges  0x00003970       0x18 ./src/synergy_gen/adc_thread.o
 .debug_ranges  0x00003988       0x18 ./src/synergy_gen/can_thread.o
 .debug_ranges  0x000039a0       0x10 ./src/synergy_gen/common_data.o
 .debug_ranges  0x000039b0       0x18 ./src/synergy_gen/drv_thread.o
 .debug_ranges  0x000039c8       0x10 ./src/synergy_gen/hal_data.o
 .debug_ranges  0x000039d8       0x18 ./src/synergy_gen/lcd_thread.o
 .debug_ranges  0x000039f0       0x48 ./src/synergy_gen/main.o
 .debug_ranges  0x00003a38       0x18 ./src/synergy_gen/status_led.o
 .debug_ranges  0x00003a50       0x20 ./src/adc_thread_entry.o
 .debug_ranges  0x00003a70       0x48 ./src/can_thread_entry.o
 .debug_ranges  0x00003ab8       0x68 ./src/drv_thread_entry.o
 .debug_ranges  0x00003b20       0xa8 ./src/lcd_thread_entry.o
 .debug_ranges  0x00003bc8       0x10 ./src/status_led_entry.o
 .debug_ranges  0x00003bd8       0x40 C:\Users\khurr\e2_studio_latest\workspace\COPJunction\synergy\ssp\src\framework\el\tx\cm4_gcc\libtx.a(txe_semaphore_create.o)
 .debug_ranges  0x00003c18       0x10 C:\Users\khurr\e2_studio_latest\workspace\COPJunction\synergy\ssp\src\framework\el\tx\cm4_gcc\libtx.a(txe_semaphore_get.o)
 .debug_ranges  0x00003c28       0x10 C:\Users\khurr\e2_studio_latest\workspace\COPJunction\synergy\ssp\src\framework\el\tx\cm4_gcc\libtx.a(txe_semaphore_put.o)
 .debug_ranges  0x00003c38       0x10 C:\Users\khurr\e2_studio_latest\workspace\COPJunction\synergy\ssp\src\framework\el\tx\cm4_gcc\libtx.a(txe_thread_create.o)
 .debug_ranges  0x00003c48       0x10 C:\Users\khurr\e2_studio_latest\workspace\COPJunction\synergy\ssp\src\framework\el\tx\cm4_gcc\libtx.a(tx_initialize_high_level.o)
 .debug_ranges  0x00003c58       0x10 C:\Users\khurr\e2_studio_latest\workspace\COPJunction\synergy\ssp\src\framework\el\tx\cm4_gcc\libtx.a(tx_initialize_kernel_enter.o)
 .debug_ranges  0x00003c68       0x10 C:\Users\khurr\e2_studio_latest\workspace\COPJunction\synergy\ssp\src\framework\el\tx\cm4_gcc\libtx.a(tx_isr_end.o)
 .debug_ranges  0x00003c78       0x10 C:\Users\khurr\e2_studio_latest\workspace\COPJunction\synergy\ssp\src\framework\el\tx\cm4_gcc\libtx.a(tx_isr_start.o)
 .debug_ranges  0x00003c88       0x10 C:\Users\khurr\e2_studio_latest\workspace\COPJunction\synergy\ssp\src\framework\el\tx\cm4_gcc\libtx.a(tx_semaphore_create.o)
 .debug_ranges  0x00003c98       0x40 C:\Users\khurr\e2_studio_latest\workspace\COPJunction\synergy\ssp\src\framework\el\tx\cm4_gcc\libtx.a(tx_semaphore_get.o)
 .debug_ranges  0x00003cd8       0x40 C:\Users\khurr\e2_studio_latest\workspace\COPJunction\synergy\ssp\src\framework\el\tx\cm4_gcc\libtx.a(tx_semaphore_put.o)
 .debug_ranges  0x00003d18       0x28 C:\Users\khurr\e2_studio_latest\workspace\COPJunction\synergy\ssp\src\framework\el\tx\cm4_gcc\libtx.a(tx_thread_create.o)
 .debug_ranges  0x00003d40       0x10 C:\Users\khurr\e2_studio_latest\workspace\COPJunction\synergy\ssp\src\framework\el\tx\cm4_gcc\libtx.a(tx_thread_initialize.o)
 .debug_ranges  0x00003d50       0x28 C:\Users\khurr\e2_studio_latest\workspace\COPJunction\synergy\ssp\src\framework\el\tx\cm4_gcc\libtx.a(tx_thread_shell_entry.o)
 .debug_ranges  0x00003d78       0x40 C:\Users\khurr\e2_studio_latest\workspace\COPJunction\synergy\ssp\src\framework\el\tx\cm4_gcc\libtx.a(tx_thread_sleep.o)
 .debug_ranges  0x00003db8       0x10 C:\Users\khurr\e2_studio_latest\workspace\COPJunction\synergy\ssp\src\framework\el\tx\cm4_gcc\libtx.a(tx_thread_system_preempt_check.o)
 .debug_ranges  0x00003dc8       0x40 C:\Users\khurr\e2_studio_latest\workspace\COPJunction\synergy\ssp\src\framework\el\tx\cm4_gcc\libtx.a(tx_thread_system_resume.o)
 .debug_ranges  0x00003e08       0x10 C:\Users\khurr\e2_studio_latest\workspace\COPJunction\synergy\ssp\src\framework\el\tx\cm4_gcc\libtx.a(tx_thread_system_suspend.o)
 .debug_ranges  0x00003e18       0x10 C:\Users\khurr\e2_studio_latest\workspace\COPJunction\synergy\ssp\src\framework\el\tx\cm4_gcc\libtx.a(tx_thread_timeout.o)
 .debug_ranges  0x00003e28       0x10 C:\Users\khurr\e2_studio_latest\workspace\COPJunction\synergy\ssp\src\framework\el\tx\cm4_gcc\libtx.a(tx_timer_initialize.o)
 .debug_ranges  0x00003e38       0x10 C:\Users\khurr\e2_studio_latest\workspace\COPJunction\synergy\ssp\src\framework\el\tx\cm4_gcc\libtx.a(tx_timer_system_activate.o)
 .debug_ranges  0x00003e48       0x10 C:\Users\khurr\e2_studio_latest\workspace\COPJunction\synergy\ssp\src\framework\el\tx\cm4_gcc\libtx.a(tx_timer_system_deactivate.o)
 .debug_ranges  0x00003e58       0x90 C:\Users\khurr\e2_studio_latest\workspace\COPJunction\synergy\ssp\src\framework\el\tx\cm4_gcc\libtx.a(tx_initialize_low_level.o)
 .debug_ranges  0x00003ee8       0x40 C:\Users\khurr\e2_studio_latest\workspace\COPJunction\synergy\ssp\src\framework\el\tx\cm4_gcc\libtx.a(tx_thread_schedule.o)
 .debug_ranges  0x00003f28       0x10 C:\Users\khurr\e2_studio_latest\workspace\COPJunction\synergy\ssp\src\framework\el\tx\cm4_gcc\libtx.a(tx_thread_stack_build.o)
 .debug_ranges  0x00003f38       0x10 C:\Users\khurr\e2_studio_latest\workspace\COPJunction\synergy\ssp\src\framework\el\tx\cm4_gcc\libtx.a(tx_timer_interrupt.o)
 .debug_ranges  0x00003f48       0x40 C:\Users\khurr\e2_studio_latest\workspace\COPJunction\synergy\ssp\src\framework\el\tx\cm4_gcc\libtx.a(tx_semaphore_cleanup.o)
 .debug_ranges  0x00003f88       0x28 C:\Users\khurr\e2_studio_latest\workspace\COPJunction\synergy\ssp\src\framework\el\tx\cm4_gcc\libtx.a(tx_thread_time_slice.o)
 .debug_ranges  0x00003fb0       0x70 C:\Users\khurr\e2_studio_latest\workspace\COPJunction\synergy\ssp\src\framework\el\tx\cm4_gcc\libtx.a(tx_timer_expiration_process.o)

.debug_line     0x00000000    0x17d72
 .debug_line    0x00000000     0x2f0a ./synergy/ssp/src/driver/r_sci_i2c/r_sci_i2c.o
 .debug_line    0x00002f0a     0x15ec ./synergy/ssp/src/driver/r_ioport/r_ioport.o
 .debug_line    0x000044f6      0x705 ./synergy/ssp/src/driver/r_elc/r_elc.o
 .debug_line    0x00004bfb     0x3252 ./synergy/ssp/src/driver/r_cgc/r_cgc.o
 .debug_line    0x00007e4d      0xf26 ./synergy/ssp/src/driver/r_can/hw/hw_can.o
 .debug_line    0x00008d73     0x1819 ./synergy/ssp/src/driver/r_can/r_can.o
 .debug_line    0x0000a58c     0x26d5 ./synergy/ssp/src/driver/r_adc/r_adc.o
 .debug_line    0x0000cc61      0x35a ./synergy/ssp/src/bsp/mcu/s3a7/bsp_cache.o
 .debug_line    0x0000cfbb      0x5fc ./synergy/ssp/src/bsp/mcu/s3a7/bsp_clocks.o
 .debug_line    0x0000d5b7      0x50d ./synergy/ssp/src/bsp/mcu/s3a7/bsp_feature.o
 .debug_line    0x0000dac4      0x60a ./synergy/ssp/src/bsp/mcu/s3a7/bsp_group_irq.o
 .debug_line    0x0000e0ce      0x23e ./synergy/ssp/src/bsp/mcu/s3a7/bsp_hw_locks.o
 .debug_line    0x0000e30c      0x78a ./synergy/ssp/src/bsp/mcu/s3a7/bsp_module_stop.o
 .debug_line    0x0000ea96      0x1da ./synergy/ssp/src/bsp/mcu/s3a7/bsp_rom_registers.o
 .debug_line    0x0000ec70      0x2bb ./synergy/ssp/src/bsp/mcu/all/bsp_common.o
 .debug_line    0x0000ef2b      0x28f ./synergy/ssp/src/bsp/mcu/all/bsp_delay.o
 .debug_line    0x0000f1ba      0x341 ./synergy/ssp/src/bsp/mcu/all/bsp_irq.o
 .debug_line    0x0000f4fb      0x5f2 ./synergy/ssp/src/bsp/mcu/all/bsp_locking.o
 .debug_line    0x0000faed      0x467 ./synergy/ssp/src/bsp/mcu/all/bsp_register_protection.o
 .debug_line    0x0000ff54      0x1f6 ./synergy/ssp/src/bsp/mcu/all/bsp_sbrk.o
 .debug_line    0x0001014a      0x2c4 ./synergy/ssp/src/bsp/cmsis/Device/RENESAS/S3A7/Source/startup_S3A7.o
 .debug_line    0x0001040e      0x915 ./synergy/ssp/src/bsp/cmsis/Device/RENESAS/S3A7/Source/system_S3A7.o
 .debug_line    0x00010d23      0x514 ./src/synergy_gen/adc_thread.o
 .debug_line    0x00011237      0x518 ./src/synergy_gen/can_thread.o
 .debug_line    0x0001174f      0x442 ./src/synergy_gen/common_data.o
 .debug_line    0x00011b91      0x53b ./src/synergy_gen/drv_thread.o
 .debug_line    0x000120cc       0x61 ./src/synergy_gen/hal_data.o
 .debug_line    0x0001212d      0x30c ./src/synergy_gen/lcd_thread.o
 .debug_line    0x00012439      0x437 ./src/synergy_gen/main.o
 .debug_line    0x00012870      0x227 ./src/synergy_gen/pin_data.o
 .debug_line    0x00012a97      0x30c ./src/synergy_gen/status_led.o
 .debug_line    0x00012da3      0x57d ./src/adc_thread_entry.o
 .debug_line    0x00013320      0x550 ./src/can_thread_entry.o
 .debug_line    0x00013870      0x297 ./src/drv_thread_entry.o
 .debug_line    0x00013b07      0x774 ./src/lcd_thread_entry.o
 .debug_line    0x0001427b      0x304 ./src/status_led_entry.o
 .debug_line    0x0001457f      0x25f C:\Users\khurr\e2_studio_latest\workspace\COPJunction\synergy\ssp\src\framework\el\tx\cm4_gcc\libtx.a(txe_semaphore_create.o)
 .debug_line    0x000147de       0xfd C:\Users\khurr\e2_studio_latest\workspace\COPJunction\synergy\ssp\src\framework\el\tx\cm4_gcc\libtx.a(txe_semaphore_get.o)
 .debug_line    0x000148db       0xb5 C:\Users\khurr\e2_studio_latest\workspace\COPJunction\synergy\ssp\src\framework\el\tx\cm4_gcc\libtx.a(txe_semaphore_put.o)
 .debug_line    0x00014990      0x2da C:\Users\khurr\e2_studio_latest\workspace\COPJunction\synergy\ssp\src\framework\el\tx\cm4_gcc\libtx.a(txe_thread_create.o)
 .debug_line    0x00014c6a      0x167 C:\Users\khurr\e2_studio_latest\workspace\COPJunction\synergy\ssp\src\framework\el\tx\cm4_gcc\libtx.a(tx_initialize_high_level.o)
 .debug_line    0x00014dd1      0x104 C:\Users\khurr\e2_studio_latest\workspace\COPJunction\synergy\ssp\src\framework\el\tx\cm4_gcc\libtx.a(tx_initialize_kernel_enter.o)
 .debug_line    0x00014ed5       0x87 C:\Users\khurr\e2_studio_latest\workspace\COPJunction\synergy\ssp\src\framework\el\tx\cm4_gcc\libtx.a(tx_isr_end.o)
 .debug_line    0x00014f5c       0x89 C:\Users\khurr\e2_studio_latest\workspace\COPJunction\synergy\ssp\src\framework\el\tx\cm4_gcc\libtx.a(tx_isr_start.o)
 .debug_line    0x00014fe5      0x16a C:\Users\khurr\e2_studio_latest\workspace\COPJunction\synergy\ssp\src\framework\el\tx\cm4_gcc\libtx.a(tx_semaphore_create.o)
 .debug_line    0x0001514f      0x219 C:\Users\khurr\e2_studio_latest\workspace\COPJunction\synergy\ssp\src\framework\el\tx\cm4_gcc\libtx.a(tx_semaphore_get.o)
 .debug_line    0x00015368      0x1c8 C:\Users\khurr\e2_studio_latest\workspace\COPJunction\synergy\ssp\src\framework\el\tx\cm4_gcc\libtx.a(tx_semaphore_put.o)
 .debug_line    0x00015530      0x36c C:\Users\khurr\e2_studio_latest\workspace\COPJunction\synergy\ssp\src\framework\el\tx\cm4_gcc\libtx.a(tx_thread_create.o)
 .debug_line    0x0001589c      0x130 C:\Users\khurr\e2_studio_latest\workspace\COPJunction\synergy\ssp\src\framework\el\tx\cm4_gcc\libtx.a(tx_thread_initialize.o)
 .debug_line    0x000159cc      0x189 C:\Users\khurr\e2_studio_latest\workspace\COPJunction\synergy\ssp\src\framework\el\tx\cm4_gcc\libtx.a(tx_thread_shell_entry.o)
 .debug_line    0x00015b55      0x1c3 C:\Users\khurr\e2_studio_latest\workspace\COPJunction\synergy\ssp\src\framework\el\tx\cm4_gcc\libtx.a(tx_thread_sleep.o)
 .debug_line    0x00015d18      0x224 C:\Users\khurr\e2_studio_latest\workspace\COPJunction\synergy\ssp\src\framework\el\tx\cm4_gcc\libtx.a(tx_thread_system_preempt_check.o)
 .debug_line    0x00015f3c      0x3de C:\Users\khurr\e2_studio_latest\workspace\COPJunction\synergy\ssp\src\framework\el\tx\cm4_gcc\libtx.a(tx_thread_system_resume.o)
 .debug_line    0x0001631a      0x3be C:\Users\khurr\e2_studio_latest\workspace\COPJunction\synergy\ssp\src\framework\el\tx\cm4_gcc\libtx.a(tx_thread_system_suspend.o)
 .debug_line    0x000166d8      0x13d C:\Users\khurr\e2_studio_latest\workspace\COPJunction\synergy\ssp\src\framework\el\tx\cm4_gcc\libtx.a(tx_thread_timeout.o)
 .debug_line    0x00016815      0x158 C:\Users\khurr\e2_studio_latest\workspace\COPJunction\synergy\ssp\src\framework\el\tx\cm4_gcc\libtx.a(tx_timer_initialize.o)
 .debug_line    0x0001696d      0x164 C:\Users\khurr\e2_studio_latest\workspace\COPJunction\synergy\ssp\src\framework\el\tx\cm4_gcc\libtx.a(tx_timer_system_activate.o)
 .debug_line    0x00016ad1      0x114 C:\Users\khurr\e2_studio_latest\workspace\COPJunction\synergy\ssp\src\framework\el\tx\cm4_gcc\libtx.a(tx_timer_system_deactivate.o)
 .debug_line    0x00016be5      0x320 C:\Users\khurr\e2_studio_latest\workspace\COPJunction\synergy\ssp\src\framework\el\tx\cm4_gcc\libtx.a(tx_initialize_low_level.o)
 .debug_line    0x00016f05      0x403 C:\Users\khurr\e2_studio_latest\workspace\COPJunction\synergy\ssp\src\framework\el\tx\cm4_gcc\libtx.a(tx_thread_schedule.o)
 .debug_line    0x00017308       0xbc C:\Users\khurr\e2_studio_latest\workspace\COPJunction\synergy\ssp\src\framework\el\tx\cm4_gcc\libtx.a(tx_thread_stack_build.o)
 .debug_line    0x000173c4      0x2e2 C:\Users\khurr\e2_studio_latest\workspace\COPJunction\synergy\ssp\src\framework\el\tx\cm4_gcc\libtx.a(tx_timer_interrupt.o)
 .debug_line    0x000176a6      0x1fb C:\Users\khurr\e2_studio_latest\workspace\COPJunction\synergy\ssp\src\framework\el\tx\cm4_gcc\libtx.a(tx_semaphore_cleanup.o)
 .debug_line    0x000178a1      0x17f C:\Users\khurr\e2_studio_latest\workspace\COPJunction\synergy\ssp\src\framework\el\tx\cm4_gcc\libtx.a(tx_thread_time_slice.o)
 .debug_line    0x00017a20      0x352 C:\Users\khurr\e2_studio_latest\workspace\COPJunction\synergy\ssp\src\framework\el\tx\cm4_gcc\libtx.a(tx_timer_expiration_process.o)

.debug_str      0x00000000    0x14539
 .debug_str     0x00000000     0x64bf ./synergy/ssp/src/driver/r_sci_i2c/r_sci_i2c.o
                               0x67c0 (size before relaxing)
 .debug_str     0x000064bf     0x3538 ./synergy/ssp/src/driver/r_ioport/r_ioport.o
                               0x7789 (size before relaxing)
 .debug_str     0x000099f7      0x3ee ./synergy/ssp/src/driver/r_elc/r_elc.o
                               0x4579 (size before relaxing)
 .debug_str     0x00009de5     0x1136 ./synergy/ssp/src/driver/r_cgc/r_cgc.o
                               0x67a8 (size before relaxing)
 .debug_str     0x0000af1b      0xb74 ./synergy/ssp/src/driver/r_can/hw/hw_can.o
                               0x29e7 (size before relaxing)
 .debug_str     0x0000ba8f      0xa78 ./synergy/ssp/src/driver/r_can/r_can.o
                               0x6067 (size before relaxing)
 .debug_str     0x0000c507     0x27be ./synergy/ssp/src/driver/r_adc/r_adc.o
                               0x7789 (size before relaxing)
 .debug_str     0x0000ecc5       0x6b ./synergy/ssp/src/bsp/mcu/s3a7/bsp_cache.o
                               0x162c (size before relaxing)
 .debug_str     0x0000ed30       0x99 ./synergy/ssp/src/bsp/mcu/s3a7/bsp_clocks.o
                               0x2b13 (size before relaxing)
 .debug_str     0x0000edc9      0xe72 ./synergy/ssp/src/bsp/mcu/s3a7/bsp_feature.o
                               0x1687 (size before relaxing)
 .debug_str     0x0000fc3b       0x91 ./synergy/ssp/src/bsp/mcu/s3a7/bsp_group_irq.o
                               0x22ca (size before relaxing)
 .debug_str     0x0000fccc      0xf0c ./synergy/ssp/src/bsp/mcu/s3a7/bsp_hw_locks.o
                               0x1c41 (size before relaxing)
 .debug_str     0x00010bd8      0x2da ./synergy/ssp/src/bsp/mcu/s3a7/bsp_module_stop.o
                               0x2f95 (size before relaxing)
 .debug_str     0x00010eb2       0x88 ./synergy/ssp/src/bsp/mcu/s3a7/bsp_rom_registers.o
                                0xa65 (size before relaxing)
 .debug_str     0x00010f3a       0xcb ./synergy/ssp/src/bsp/mcu/all/bsp_common.o
                               0x1eb5 (size before relaxing)
 .debug_str     0x00011005       0xa2 ./synergy/ssp/src/bsp/mcu/all/bsp_delay.o
                                0x2d3 (size before relaxing)
 .debug_str     0x000110a7       0x9e ./synergy/ssp/src/bsp/mcu/all/bsp_irq.o
                                0xf42 (size before relaxing)
 .debug_str     0x00011145      0x126 ./synergy/ssp/src/bsp/mcu/all/bsp_locking.o
                               0x2229 (size before relaxing)
 .debug_str     0x0001126b       0xa7 ./synergy/ssp/src/bsp/mcu/all/bsp_register_protection.o
                               0x1715 (size before relaxing)
 .debug_str     0x00011312       0x9b ./synergy/ssp/src/bsp/mcu/all/bsp_sbrk.o
                                0x23f (size before relaxing)
 .debug_str     0x000113ad       0x98 ./synergy/ssp/src/bsp/cmsis/Device/RENESAS/S3A7/Source/startup_S3A7.o
                                0xa8c (size before relaxing)
 .debug_str     0x00011445      0x5c1 ./synergy/ssp/src/bsp/cmsis/Device/RENESAS/S3A7/Source/system_S3A7.o
                               0x7936 (size before relaxing)
 .debug_str     0x00011a06      0x708 ./src/synergy_gen/adc_thread.o
                               0x4da7 (size before relaxing)
 .debug_str     0x0001210e      0x1ed ./src/synergy_gen/can_thread.o
                               0x5a1f (size before relaxing)
 .debug_str     0x000122fb       0xcc ./src/synergy_gen/common_data.o
                               0x68a0 (size before relaxing)
 .debug_str     0x000123c7      0x233 ./src/synergy_gen/drv_thread.o
                               0x5932 (size before relaxing)
 .debug_str     0x000125fa       0x29 ./src/synergy_gen/hal_data.o
                                0x1c8 (size before relaxing)
 .debug_str     0x00012623       0x6f ./src/synergy_gen/lcd_thread.o
                               0x10d2 (size before relaxing)
 .debug_str     0x00012692      0x20b ./src/synergy_gen/main.o
                               0x127d (size before relaxing)
 .debug_str     0x0001289d      0x1fc ./src/synergy_gen/pin_data.o
                               0x1fce (size before relaxing)
 .debug_str     0x00012a99       0x5d ./src/synergy_gen/status_led.o
                               0x10d2 (size before relaxing)
 .debug_str     0x00012af6       0x55 ./src/adc_thread_entry.o
                               0x5993 (size before relaxing)
 .debug_str     0x00012b4b       0x7c ./src/can_thread_entry.o
                               0x3d1e (size before relaxing)
 .debug_str     0x00012bc7       0x1a ./src/drv_thread_entry.o
                                0x205 (size before relaxing)
 .debug_str     0x00012be1       0xab ./src/lcd_thread_entry.o
                               0x3371 (size before relaxing)
 .debug_str     0x00012c8c       0x1a ./src/status_led_entry.o
                               0x2a65 (size before relaxing)
 .debug_str     0x00012ca6      0x1ae C:\Users\khurr\e2_studio_latest\workspace\COPJunction\synergy\ssp\src\framework\el\tx\cm4_gcc\libtx.a(txe_semaphore_create.o)
                                0x9ee (size before relaxing)
 .debug_str     0x00012e54       0x51 C:\Users\khurr\e2_studio_latest\workspace\COPJunction\synergy\ssp\src\framework\el\tx\cm4_gcc\libtx.a(txe_semaphore_get.o)
                                0x8d9 (size before relaxing)
 .debug_str     0x00012ea5       0x45 C:\Users\khurr\e2_studio_latest\workspace\COPJunction\synergy\ssp\src\framework\el\tx\cm4_gcc\libtx.a(txe_semaphore_put.o)
                                0x899 (size before relaxing)
 .debug_str     0x00012eea       0xdb C:\Users\khurr\e2_studio_latest\workspace\COPJunction\synergy\ssp\src\framework\el\tx\cm4_gcc\libtx.a(txe_thread_create.o)
                                0x987 (size before relaxing)
 .debug_str     0x00012fc5      0x6aa C:\Users\khurr\e2_studio_latest\workspace\COPJunction\synergy\ssp\src\framework\el\tx\cm4_gcc\libtx.a(tx_initialize_high_level.o)
                                0xf12 (size before relaxing)
 .debug_str     0x0001366f       0x69 C:\Users\khurr\e2_studio_latest\workspace\COPJunction\synergy\ssp\src\framework\el\tx\cm4_gcc\libtx.a(tx_initialize_kernel_enter.o)
                                0x27a (size before relaxing)
 .debug_str     0x000136d8       0x33 C:\Users\khurr\e2_studio_latest\workspace\COPJunction\synergy\ssp\src\framework\el\tx\cm4_gcc\libtx.a(tx_isr_end.o)
                                0x1ae (size before relaxing)
 .debug_str     0x0001370b       0x2e C:\Users\khurr\e2_studio_latest\workspace\COPJunction\synergy\ssp\src\framework\el\tx\cm4_gcc\libtx.a(tx_isr_start.o)
                                0x1b2 (size before relaxing)
 .debug_str     0x00013739       0x48 C:\Users\khurr\e2_studio_latest\workspace\COPJunction\synergy\ssp\src\framework\el\tx\cm4_gcc\libtx.a(tx_semaphore_create.o)
                                0x957 (size before relaxing)
 .debug_str     0x00013781       0x73 C:\Users\khurr\e2_studio_latest\workspace\COPJunction\synergy\ssp\src\framework\el\tx\cm4_gcc\libtx.a(tx_semaphore_get.o)
                                0x968 (size before relaxing)
 .debug_str     0x000137f4       0x4b C:\Users\khurr\e2_studio_latest\workspace\COPJunction\synergy\ssp\src\framework\el\tx\cm4_gcc\libtx.a(tx_semaphore_put.o)
                                0x94d (size before relaxing)
 .debug_str     0x0001383f       0x8a C:\Users\khurr\e2_studio_latest\workspace\COPJunction\synergy\ssp\src\framework\el\tx\cm4_gcc\libtx.a(tx_thread_create.o)
                                0x9cd (size before relaxing)
 .debug_str     0x000138c9       0xf4 C:\Users\khurr\e2_studio_latest\workspace\COPJunction\synergy\ssp\src\framework\el\tx\cm4_gcc\libtx.a(tx_thread_initialize.o)
                                0x917 (size before relaxing)
 .debug_str     0x000139bd       0x84 C:\Users\khurr\e2_studio_latest\workspace\COPJunction\synergy\ssp\src\framework\el\tx\cm4_gcc\libtx.a(tx_thread_shell_entry.o)
                                0x8ca (size before relaxing)
 .debug_str     0x00013a41       0x3d C:\Users\khurr\e2_studio_latest\workspace\COPJunction\synergy\ssp\src\framework\el\tx\cm4_gcc\libtx.a(tx_thread_sleep.o)
                                0x8a8 (size before relaxing)
 .debug_str     0x00013a7e       0x92 C:\Users\khurr\e2_studio_latest\workspace\COPJunction\synergy\ssp\src\framework\el\tx\cm4_gcc\libtx.a(tx_thread_system_preempt_check.o)
                                0x959 (size before relaxing)
 .debug_str     0x00013b10       0x74 C:\Users\khurr\e2_studio_latest\workspace\COPJunction\synergy\ssp\src\framework\el\tx\cm4_gcc\libtx.a(tx_thread_system_resume.o)
                                0x9fe (size before relaxing)
 .debug_str     0x00013b84       0x84 C:\Users\khurr\e2_studio_latest\workspace\COPJunction\synergy\ssp\src\framework\el\tx\cm4_gcc\libtx.a(tx_thread_system_suspend.o)
                                0xa32 (size before relaxing)
 .debug_str     0x00013c08       0x54 C:\Users\khurr\e2_studio_latest\workspace\COPJunction\synergy\ssp\src\framework\el\tx\cm4_gcc\libtx.a(tx_thread_timeout.o)
                                0x87f (size before relaxing)
 .debug_str     0x00013c5c      0x1a3 C:\Users\khurr\e2_studio_latest\workspace\COPJunction\synergy\ssp\src\framework\el\tx\cm4_gcc\libtx.a(tx_timer_initialize.o)
                                0x471 (size before relaxing)
 .debug_str     0x00013dff       0x6a C:\Users\khurr\e2_studio_latest\workspace\COPJunction\synergy\ssp\src\framework\el\tx\cm4_gcc\libtx.a(tx_timer_system_activate.o)
                                0x369 (size before relaxing)
 .debug_str     0x00013e69       0x3c C:\Users\khurr\e2_studio_latest\workspace\COPJunction\synergy\ssp\src\framework\el\tx\cm4_gcc\libtx.a(tx_timer_system_deactivate.o)
                                0x308 (size before relaxing)
 .debug_str     0x00013ea5       0xed C:\Users\khurr\e2_studio_latest\workspace\COPJunction\synergy\ssp\src\framework\el\tx\cm4_gcc\libtx.a(tx_initialize_low_level.o)
                                0x4c2 (size before relaxing)
 .debug_str     0x00013f92      0x3ff C:\Users\khurr\e2_studio_latest\workspace\COPJunction\synergy\ssp\src\framework\el\tx\cm4_gcc\libtx.a(tx_thread_schedule.o)
                               0x18a7 (size before relaxing)
 .debug_str     0x00014391       0x4c C:\Users\khurr\e2_studio_latest\workspace\COPJunction\synergy\ssp\src\framework\el\tx\cm4_gcc\libtx.a(tx_thread_stack_build.o)
                                0x7d2 (size before relaxing)
 .debug_str     0x000143dd       0x6f C:\Users\khurr\e2_studio_latest\workspace\COPJunction\synergy\ssp\src\framework\el\tx\cm4_gcc\libtx.a(tx_timer_interrupt.o)
                                0x94d (size before relaxing)
 .debug_str     0x0001444c       0x4c C:\Users\khurr\e2_studio_latest\workspace\COPJunction\synergy\ssp\src\framework\el\tx\cm4_gcc\libtx.a(tx_semaphore_cleanup.o)
                                0x969 (size before relaxing)
 .debug_str     0x00014498       0x36 C:\Users\khurr\e2_studio_latest\workspace\COPJunction\synergy\ssp\src\framework\el\tx\cm4_gcc\libtx.a(tx_thread_time_slice.o)
                                0x8b4 (size before relaxing)
 .debug_str     0x000144ce       0x6b C:\Users\khurr\e2_studio_latest\workspace\COPJunction\synergy\ssp\src\framework\el\tx\cm4_gcc\libtx.a(tx_timer_expiration_process.o)
                                0x44e (size before relaxing)

.debug_frame    0x00000000     0x2df4
 .debug_frame   0x00000000      0x30c ./synergy/ssp/src/driver/r_sci_i2c/r_sci_i2c.o
 .debug_frame   0x0000030c      0x284 ./synergy/ssp/src/driver/r_ioport/r_ioport.o
 .debug_frame   0x00000590       0xa0 ./synergy/ssp/src/driver/r_elc/r_elc.o
 .debug_frame   0x00000630      0x490 ./synergy/ssp/src/driver/r_cgc/r_cgc.o
 .debug_frame   0x00000ac0      0x184 ./synergy/ssp/src/driver/r_can/hw/hw_can.o
 .debug_frame   0x00000c44      0x1d4 ./synergy/ssp/src/driver/r_can/r_can.o
 .debug_frame   0x00000e18      0x280 ./synergy/ssp/src/driver/r_adc/r_adc.o
 .debug_frame   0x00001098       0x30 ./synergy/ssp/src/bsp/mcu/s3a7/bsp_cache.o
 .debug_frame   0x000010c8       0x60 ./synergy/ssp/src/bsp/mcu/s3a7/bsp_clocks.o
 .debug_frame   0x00001128      0x120 ./synergy/ssp/src/bsp/mcu/s3a7/bsp_feature.o
 .debug_frame   0x00001248       0x60 ./synergy/ssp/src/bsp/mcu/s3a7/bsp_group_irq.o
 .debug_frame   0x000012a8       0x90 ./synergy/ssp/src/bsp/mcu/s3a7/bsp_module_stop.o
 .debug_frame   0x00001338       0x40 ./synergy/ssp/src/bsp/mcu/all/bsp_common.o
 .debug_frame   0x00001378       0x44 ./synergy/ssp/src/bsp/mcu/all/bsp_delay.o
 .debug_frame   0x000013bc       0x3c ./synergy/ssp/src/bsp/mcu/all/bsp_irq.o
 .debug_frame   0x000013f8       0x9c ./synergy/ssp/src/bsp/mcu/all/bsp_locking.o
 .debug_frame   0x00001494       0x58 ./synergy/ssp/src/bsp/mcu/all/bsp_register_protection.o
 .debug_frame   0x000014ec       0x28 ./synergy/ssp/src/bsp/mcu/all/bsp_sbrk.o
 .debug_frame   0x00001514       0x38 ./synergy/ssp/src/bsp/cmsis/Device/RENESAS/S3A7/Source/startup_S3A7.o
 .debug_frame   0x0000154c       0x64 ./synergy/ssp/src/bsp/cmsis/Device/RENESAS/S3A7/Source/system_S3A7.o
 .debug_frame   0x000015b0       0x58 ./src/synergy_gen/adc_thread.o
 .debug_frame   0x00001608       0x58 ./src/synergy_gen/can_thread.o
 .debug_frame   0x00001660       0x20 ./src/synergy_gen/common_data.o
 .debug_frame   0x00001680       0x58 ./src/synergy_gen/drv_thread.o
 .debug_frame   0x000016d8       0x20 ./src/synergy_gen/hal_data.o
 .debug_frame   0x000016f8       0x58 ./src/synergy_gen/lcd_thread.o
 .debug_frame   0x00001750       0x80 ./src/synergy_gen/main.o
 .debug_frame   0x000017d0       0x58 ./src/synergy_gen/status_led.o
 .debug_frame   0x00001828       0x74 ./src/adc_thread_entry.o
 .debug_frame   0x0000189c       0x80 ./src/can_thread_entry.o
 .debug_frame   0x0000191c       0x28 ./src/drv_thread_entry.o
 .debug_frame   0x00001944      0x164 ./src/lcd_thread_entry.o
 .debug_frame   0x00001aa8       0x28 ./src/status_led_entry.o
 .debug_frame   0x00001ad0       0x3c C:\Users\khurr\e2_studio_latest\workspace\COPJunction\synergy\ssp\src\framework\el\tx\cm4_gcc\libtx.a(txe_semaphore_create.o)
 .debug_frame   0x00001b0c       0x20 C:\Users\khurr\e2_studio_latest\workspace\COPJunction\synergy\ssp\src\framework\el\tx\cm4_gcc\libtx.a(txe_semaphore_get.o)
 .debug_frame   0x00001b2c       0x20 C:\Users\khurr\e2_studio_latest\workspace\COPJunction\synergy\ssp\src\framework\el\tx\cm4_gcc\libtx.a(txe_semaphore_put.o)
 .debug_frame   0x00001b4c       0x58 C:\Users\khurr\e2_studio_latest\workspace\COPJunction\synergy\ssp\src\framework\el\tx\cm4_gcc\libtx.a(txe_thread_create.o)
 .debug_frame   0x00001ba4       0x2c C:\Users\khurr\e2_studio_latest\workspace\COPJunction\synergy\ssp\src\framework\el\tx\cm4_gcc\libtx.a(tx_initialize_high_level.o)
 .debug_frame   0x00001bd0       0x2c C:\Users\khurr\e2_studio_latest\workspace\COPJunction\synergy\ssp\src\framework\el\tx\cm4_gcc\libtx.a(tx_initialize_kernel_enter.o)
 .debug_frame   0x00001bfc       0x20 C:\Users\khurr\e2_studio_latest\workspace\COPJunction\synergy\ssp\src\framework\el\tx\cm4_gcc\libtx.a(tx_isr_end.o)
 .debug_frame   0x00001c1c       0x20 C:\Users\khurr\e2_studio_latest\workspace\COPJunction\synergy\ssp\src\framework\el\tx\cm4_gcc\libtx.a(tx_isr_start.o)
 .debug_frame   0x00001c3c       0x30 C:\Users\khurr\e2_studio_latest\workspace\COPJunction\synergy\ssp\src\framework\el\tx\cm4_gcc\libtx.a(tx_semaphore_create.o)
 .debug_frame   0x00001c6c       0x30 C:\Users\khurr\e2_studio_latest\workspace\COPJunction\synergy\ssp\src\framework\el\tx\cm4_gcc\libtx.a(tx_semaphore_get.o)
 .debug_frame   0x00001c9c       0x2c C:\Users\khurr\e2_studio_latest\workspace\COPJunction\synergy\ssp\src\framework\el\tx\cm4_gcc\libtx.a(tx_semaphore_put.o)
 .debug_frame   0x00001cc8       0x38 C:\Users\khurr\e2_studio_latest\workspace\COPJunction\synergy\ssp\src\framework\el\tx\cm4_gcc\libtx.a(tx_thread_create.o)
 .debug_frame   0x00001d00       0x28 C:\Users\khurr\e2_studio_latest\workspace\COPJunction\synergy\ssp\src\framework\el\tx\cm4_gcc\libtx.a(tx_thread_initialize.o)
 .debug_frame   0x00001d28       0x2c C:\Users\khurr\e2_studio_latest\workspace\COPJunction\synergy\ssp\src\framework\el\tx\cm4_gcc\libtx.a(tx_thread_shell_entry.o)
 .debug_frame   0x00001d54       0x28 C:\Users\khurr\e2_studio_latest\workspace\COPJunction\synergy\ssp\src\framework\el\tx\cm4_gcc\libtx.a(tx_thread_sleep.o)
 .debug_frame   0x00001d7c       0x20 C:\Users\khurr\e2_studio_latest\workspace\COPJunction\synergy\ssp\src\framework\el\tx\cm4_gcc\libtx.a(tx_thread_system_preempt_check.o)
 .debug_frame   0x00001d9c       0x30 C:\Users\khurr\e2_studio_latest\workspace\COPJunction\synergy\ssp\src\framework\el\tx\cm4_gcc\libtx.a(tx_thread_system_resume.o)
 .debug_frame   0x00001dcc       0x30 C:\Users\khurr\e2_studio_latest\workspace\COPJunction\synergy\ssp\src\framework\el\tx\cm4_gcc\libtx.a(tx_thread_system_suspend.o)
 .debug_frame   0x00001dfc       0x20 C:\Users\khurr\e2_studio_latest\workspace\COPJunction\synergy\ssp\src\framework\el\tx\cm4_gcc\libtx.a(tx_thread_timeout.o)
 .debug_frame   0x00001e1c       0x28 C:\Users\khurr\e2_studio_latest\workspace\COPJunction\synergy\ssp\src\framework\el\tx\cm4_gcc\libtx.a(tx_timer_initialize.o)
 .debug_frame   0x00001e44       0x20 C:\Users\khurr\e2_studio_latest\workspace\COPJunction\synergy\ssp\src\framework\el\tx\cm4_gcc\libtx.a(tx_timer_system_activate.o)
 .debug_frame   0x00001e64       0x20 C:\Users\khurr\e2_studio_latest\workspace\COPJunction\synergy\ssp\src\framework\el\tx\cm4_gcc\libtx.a(tx_timer_system_deactivate.o)
 .debug_frame   0x00001e84       0x2c C:\Users\khurr\e2_studio_latest\workspace\COPJunction\synergy\ssp\src\framework\el\tx\cm4_gcc\libtx.a(tx_initialize_low_level.o)
 .debug_frame   0x00001eb0       0x64 C:\Users\khurr\e2_studio_latest\workspace\COPJunction\synergy\ssp\src\framework\el\tx\cm4_gcc\libtx.a(tx_thread_schedule.o)
 .debug_frame   0x00001f14       0x20 C:\Users\khurr\e2_studio_latest\workspace\COPJunction\synergy\ssp\src\framework\el\tx\cm4_gcc\libtx.a(tx_thread_stack_build.o)
 .debug_frame   0x00001f34       0x28 C:\Users\khurr\e2_studio_latest\workspace\COPJunction\synergy\ssp\src\framework\el\tx\cm4_gcc\libtx.a(tx_timer_interrupt.o)
 .debug_frame   0x00001f5c       0x28 C:\Users\khurr\e2_studio_latest\workspace\COPJunction\synergy\ssp\src\framework\el\tx\cm4_gcc\libtx.a(tx_semaphore_cleanup.o)
 .debug_frame   0x00001f84       0x30 C:\Users\khurr\e2_studio_latest\workspace\COPJunction\synergy\ssp\src\framework\el\tx\cm4_gcc\libtx.a(tx_thread_time_slice.o)
 .debug_frame   0x00001fb4       0x40 C:\Users\khurr\e2_studio_latest\workspace\COPJunction\synergy\ssp\src\framework\el\tx\cm4_gcc\libtx.a(tx_timer_expiration_process.o)
 .debug_frame   0x00001ff4       0x20 c:/renesas/synergy/e2studio_v2022-10_ssp_v2.4.0/toolchains/gcc_arm/gcc-arm-none-eabi-10.3-2021.10/bin/../lib/gcc/arm-none-eabi/10.3.1/../../../../arm-none-eabi/lib/thumb/v7e-m+fp/hard\libg_nano.a(lib_a-errno.o)
 .debug_frame   0x00002014       0x28 c:/renesas/synergy/e2studio_v2022-10_ssp_v2.4.0/toolchains/gcc_arm/gcc-arm-none-eabi-10.3-2021.10/bin/../lib/gcc/arm-none-eabi/10.3.1/../../../../arm-none-eabi/lib/thumb/v7e-m+fp/hard\libg_nano.a(lib_a-memcpy-stub.o)
 .debug_frame   0x0000203c       0x20 c:/renesas/synergy/e2studio_v2022-10_ssp_v2.4.0/toolchains/gcc_arm/gcc-arm-none-eabi-10.3-2021.10/bin/../lib/gcc/arm-none-eabi/10.3.1/../../../../arm-none-eabi/lib/thumb/v7e-m+fp/hard\libg_nano.a(lib_a-memset.o)
 .debug_frame   0x0000205c       0x44 c:/renesas/synergy/e2studio_v2022-10_ssp_v2.4.0/toolchains/gcc_arm/gcc-arm-none-eabi-10.3-2021.10/bin/../lib/gcc/arm-none-eabi/10.3.1/../../../../arm-none-eabi/lib/thumb/v7e-m+fp/hard\libg_nano.a(lib_a-rand.o)
 .debug_frame   0x000020a0       0x40 c:/renesas/synergy/e2studio_v2022-10_ssp_v2.4.0/toolchains/gcc_arm/gcc-arm-none-eabi-10.3-2021.10/bin/../lib/gcc/arm-none-eabi/10.3.1/../../../../arm-none-eabi/lib/thumb/v7e-m+fp/hard\libg_nano.a(lib_a-assert.o)
 .debug_frame   0x000020e0       0x64 c:/renesas/synergy/e2studio_v2022-10_ssp_v2.4.0/toolchains/gcc_arm/gcc-arm-none-eabi-10.3-2021.10/bin/../lib/gcc/arm-none-eabi/10.3.1/../../../../arm-none-eabi/lib/thumb/v7e-m+fp/hard\libg_nano.a(lib_a-fprintf.o)
 .debug_frame   0x00002144       0x30 c:/renesas/synergy/e2studio_v2022-10_ssp_v2.4.0/toolchains/gcc_arm/gcc-arm-none-eabi-10.3-2021.10/bin/../lib/gcc/arm-none-eabi/10.3.1/../../../../arm-none-eabi/lib/thumb/v7e-m+fp/hard\libg_nano.a(lib_a-malloc.o)
 .debug_frame   0x00002174       0x38 c:/renesas/synergy/e2studio_v2022-10_ssp_v2.4.0/toolchains/gcc_arm/gcc-arm-none-eabi-10.3-2021.10/bin/../lib/gcc/arm-none-eabi/10.3.1/../../../../arm-none-eabi/lib/thumb/v7e-m+fp/hard\libg_nano.a(lib_a-nano-freer.o)
 .debug_frame   0x000021ac       0x4c c:/renesas/synergy/e2studio_v2022-10_ssp_v2.4.0/toolchains/gcc_arm/gcc-arm-none-eabi-10.3-2021.10/bin/../lib/gcc/arm-none-eabi/10.3.1/../../../../arm-none-eabi/lib/thumb/v7e-m+fp/hard\libg_nano.a(lib_a-nano-mallocr.o)
 .debug_frame   0x000021f8       0xac c:/renesas/synergy/e2studio_v2022-10_ssp_v2.4.0/toolchains/gcc_arm/gcc-arm-none-eabi-10.3-2021.10/bin/../lib/gcc/arm-none-eabi/10.3.1/../../../../arm-none-eabi/lib/thumb/v7e-m+fp/hard\libg_nano.a(lib_a-nano-vfprintf.o)
 .debug_frame   0x000022a4       0x60 c:/renesas/synergy/e2studio_v2022-10_ssp_v2.4.0/toolchains/gcc_arm/gcc-arm-none-eabi-10.3-2021.10/bin/../lib/gcc/arm-none-eabi/10.3.1/../../../../arm-none-eabi/lib/thumb/v7e-m+fp/hard\libg_nano.a(lib_a-nano-vfprintf_i.o)
 .debug_frame   0x00002304       0x2c c:/renesas/synergy/e2studio_v2022-10_ssp_v2.4.0/toolchains/gcc_arm/gcc-arm-none-eabi-10.3-2021.10/bin/../lib/gcc/arm-none-eabi/10.3.1/../../../../arm-none-eabi/lib/thumb/v7e-m+fp/hard\libg_nano.a(lib_a-sbrkr.o)
 .debug_frame   0x00002330       0x40 c:/renesas/synergy/e2studio_v2022-10_ssp_v2.4.0/toolchains/gcc_arm/gcc-arm-none-eabi-10.3-2021.10/bin/../lib/gcc/arm-none-eabi/10.3.1/../../../../arm-none-eabi/lib/thumb/v7e-m+fp/hard\libg_nano.a(lib_a-wbuf.o)
 .debug_frame   0x00002370       0x2c c:/renesas/synergy/e2studio_v2022-10_ssp_v2.4.0/toolchains/gcc_arm/gcc-arm-none-eabi-10.3-2021.10/bin/../lib/gcc/arm-none-eabi/10.3.1/../../../../arm-none-eabi/lib/thumb/v7e-m+fp/hard\libg_nano.a(lib_a-wsetup.o)
 .debug_frame   0x0000239c       0x28 c:/renesas/synergy/e2studio_v2022-10_ssp_v2.4.0/toolchains/gcc_arm/gcc-arm-none-eabi-10.3-2021.10/bin/../lib/gcc/arm-none-eabi/10.3.1/../../../../arm-none-eabi/lib/thumb/v7e-m+fp/hard\libg_nano.a(lib_a-abort.o)
 .debug_frame   0x000023c4       0x5c c:/renesas/synergy/e2studio_v2022-10_ssp_v2.4.0/toolchains/gcc_arm/gcc-arm-none-eabi-10.3-2021.10/bin/../lib/gcc/arm-none-eabi/10.3.1/../../../../arm-none-eabi/lib/thumb/v7e-m+fp/hard\libg_nano.a(lib_a-fflush.o)
 .debug_frame   0x00002420      0x14c c:/renesas/synergy/e2studio_v2022-10_ssp_v2.4.0/toolchains/gcc_arm/gcc-arm-none-eabi-10.3-2021.10/bin/../lib/gcc/arm-none-eabi/10.3.1/../../../../arm-none-eabi/lib/thumb/v7e-m+fp/hard\libg_nano.a(lib_a-findfp.o)
 .debug_frame   0x0000256c       0x54 c:/renesas/synergy/e2studio_v2022-10_ssp_v2.4.0/toolchains/gcc_arm/gcc-arm-none-eabi-10.3-2021.10/bin/../lib/gcc/arm-none-eabi/10.3.1/../../../../arm-none-eabi/lib/thumb/v7e-m+fp/hard\libg_nano.a(lib_a-fwalk.o)
 .debug_frame   0x000025c0       0xb0 c:/renesas/synergy/e2studio_v2022-10_ssp_v2.4.0/toolchains/gcc_arm/gcc-arm-none-eabi-10.3-2021.10/bin/../lib/gcc/arm-none-eabi/10.3.1/../../../../arm-none-eabi/lib/thumb/v7e-m+fp/hard\libg_nano.a(lib_a-lock.o)
 .debug_frame   0x00002670       0x58 c:/renesas/synergy/e2studio_v2022-10_ssp_v2.4.0/toolchains/gcc_arm/gcc-arm-none-eabi-10.3-2021.10/bin/../lib/gcc/arm-none-eabi/10.3.1/../../../../arm-none-eabi/lib/thumb/v7e-m+fp/hard\libg_nano.a(lib_a-makebuf.o)
 .debug_frame   0x000026c8       0x30 c:/renesas/synergy/e2studio_v2022-10_ssp_v2.4.0/toolchains/gcc_arm/gcc-arm-none-eabi-10.3-2021.10/bin/../lib/gcc/arm-none-eabi/10.3.1/../../../../arm-none-eabi/lib/thumb/v7e-m+fp/hard\libg_nano.a(lib_a-mlock.o)
 .debug_frame   0x000026f8       0x5c c:/renesas/synergy/e2studio_v2022-10_ssp_v2.4.0/toolchains/gcc_arm/gcc-arm-none-eabi-10.3-2021.10/bin/../lib/gcc/arm-none-eabi/10.3.1/../../../../arm-none-eabi/lib/thumb/v7e-m+fp/hard\libg_nano.a(lib_a-reent.o)
 .debug_frame   0x00002754       0xcc c:/renesas/synergy/e2studio_v2022-10_ssp_v2.4.0/toolchains/gcc_arm/gcc-arm-none-eabi-10.3-2021.10/bin/../lib/gcc/arm-none-eabi/10.3.1/../../../../arm-none-eabi/lib/thumb/v7e-m+fp/hard\libg_nano.a(lib_a-signal.o)
 .debug_frame   0x00002820       0x3c c:/renesas/synergy/e2studio_v2022-10_ssp_v2.4.0/toolchains/gcc_arm/gcc-arm-none-eabi-10.3-2021.10/bin/../lib/gcc/arm-none-eabi/10.3.1/../../../../arm-none-eabi/lib/thumb/v7e-m+fp/hard\libg_nano.a(lib_a-signalr.o)
 .debug_frame   0x0000285c       0x88 c:/renesas/synergy/e2studio_v2022-10_ssp_v2.4.0/toolchains/gcc_arm/gcc-arm-none-eabi-10.3-2021.10/bin/../lib/gcc/arm-none-eabi/10.3.1/../../../../arm-none-eabi/lib/thumb/v7e-m+fp/hard\libg_nano.a(lib_a-stdio.o)
 .debug_frame   0x000028e4       0x2c c:/renesas/synergy/e2studio_v2022-10_ssp_v2.4.0/toolchains/gcc_arm/gcc-arm-none-eabi-10.3-2021.10/bin/../lib/gcc/arm-none-eabi/10.3.1/../../../../arm-none-eabi/lib/thumb/v7e-m+fp/hard\libg_nano.a(lib_a-writer.o)
 .debug_frame   0x00002910       0x2c c:/renesas/synergy/e2studio_v2022-10_ssp_v2.4.0/toolchains/gcc_arm/gcc-arm-none-eabi-10.3-2021.10/bin/../lib/gcc/arm-none-eabi/10.3.1/../../../../arm-none-eabi/lib/thumb/v7e-m+fp/hard\libg_nano.a(lib_a-closer.o)
 .debug_frame   0x0000293c       0x2c c:/renesas/synergy/e2studio_v2022-10_ssp_v2.4.0/toolchains/gcc_arm/gcc-arm-none-eabi-10.3-2021.10/bin/../lib/gcc/arm-none-eabi/10.3.1/../../../../arm-none-eabi/lib/thumb/v7e-m+fp/hard\libg_nano.a(lib_a-fstatr.o)
 .debug_frame   0x00002968       0x2c c:/renesas/synergy/e2studio_v2022-10_ssp_v2.4.0/toolchains/gcc_arm/gcc-arm-none-eabi-10.3-2021.10/bin/../lib/gcc/arm-none-eabi/10.3.1/../../../../arm-none-eabi/lib/thumb/v7e-m+fp/hard\libg_nano.a(lib_a-isattyr.o)
 .debug_frame   0x00002994       0x2c c:/renesas/synergy/e2studio_v2022-10_ssp_v2.4.0/toolchains/gcc_arm/gcc-arm-none-eabi-10.3-2021.10/bin/../lib/gcc/arm-none-eabi/10.3.1/../../../../arm-none-eabi/lib/thumb/v7e-m+fp/hard\libg_nano.a(lib_a-lseekr.o)
 .debug_frame   0x000029c0       0x2c c:/renesas/synergy/e2studio_v2022-10_ssp_v2.4.0/toolchains/gcc_arm/gcc-arm-none-eabi-10.3-2021.10/bin/../lib/gcc/arm-none-eabi/10.3.1/../../../../arm-none-eabi/lib/thumb/v7e-m+fp/hard\libg_nano.a(lib_a-readr.o)
 .debug_frame   0x000029ec      0x3a0 c:/renesas/synergy/e2studio_v2022-10_ssp_v2.4.0/toolchains/gcc_arm/gcc-arm-none-eabi-10.3-2021.10/bin/../lib/gcc/arm-none-eabi/10.3.1/../../../../arm-none-eabi/lib/thumb/v7e-m+fp/hard\librdimon_nano.a(rdimon-syscalls.o)
 .debug_frame   0x00002d8c       0x28 c:/renesas/synergy/e2studio_v2022-10_ssp_v2.4.0/toolchains/gcc_arm/gcc-arm-none-eabi-10.3-2021.10/bin/../lib/gcc/arm-none-eabi/10.3.1/../../../../arm-none-eabi/lib/thumb/v7e-m+fp/hard\librdimon_nano.a(rdimon-_exit.o)
 .debug_frame   0x00002db4       0x40 c:/renesas/synergy/e2studio_v2022-10_ssp_v2.4.0/toolchains/gcc_arm/gcc-arm-none-eabi-10.3-2021.10/bin/../lib/gcc/arm-none-eabi/10.3.1/../../../../arm-none-eabi/lib/thumb/v7e-m+fp/hard\librdimon_nano.a(rdimon-_kill.o)
